                              1 ;--------------------------------------------------------
                              2 ; File Created by SDCC : FreeWare ANSI-C Compiler
                              3 ; Version 2.2.1 Tue Feb 21 19:09:49 2023
                              4 
                              5 ;--------------------------------------------------------
                              6 	.module lcc215640
                              7 	
                              8 ;--------------------------------------------------------
                              9 ; Public variables in this module
                             10 ;--------------------------------------------------------
                             11 	.globl _main
                             12 	.globl _copyCPU
                             13 	.globl _isWallCollisionDetected
                             14 	.globl _displayRoom
                             15 	.globl _isLookingAtCPU
                             16 	.globl _isCPUCollisionDetected
                             17 	.globl _movegamecharacter
                             18 	.globl _updategamecharacter
                             19 	.globl _changeCPU
                             20 	.globl _setUpPlayer
                             21 	.globl _onDoor
                             22 	.globl _Navigation
                             23 	.globl _convertTileIndex
                             24 	.globl _canplayermove
                             25 	.globl _moveInput
                             26 	.globl _selectInput
                             27 	.globl _displayMonsterList
                             28 	.globl _setBackgound
                             29 	.globl _displayMonsterInfo
                             30 	.globl _printPaddedString
                             31 	.globl _printPaddedNumber
                             32 	.globl _get_size
                             33 	.globl _pop
                             34 	.globl _push
                             35 	.globl _is_full
                             36 	.globl _is_empty
                             37 	.globl _init_stack
                             38 	.globl _gotoxy
                             39 	.globl _getCPUDefeatedDialog
                             40 	.globl _getCPUIsDefeated
                             41 	.globl _getCPUMonsterTeam
                             42 	.globl _playCollisionSound
                             43 	.globl _playDoorSound
                             44 	.globl _clearScreen
                             45 	.globl _performantdelay
                             46 	.globl _setUpEniroment
                             47 	.globl _strlen
                             48 	.globl _memcpy
                             49 	.globl _printf
                             50 	.globl _move_sprite
                             51 	.globl _set_sprite_tile
                             52 	.globl _set_sprite_data
                             53 	.globl _set_bkg_tiles
                             54 	.globl _set_bkg_data
                             55 	.globl _wait_vbl_done
                             56 	.globl _waitpad
                             57 	.globl _joypad
                             58 	.globl _delay
                             59 	.globl _currentRoom
                             60 	.globl _roomType
                             61 	.globl _cpu
                             62 	.globl _player
                             63 	.globl _s
                             64 	.globl _currentList
                             65 	.globl _Cursors
                             66 	.globl _Female_Player
                             67 	.globl _wait
                             68 	.globl _performantdelay
                             69 	.globl _clearScreen
                             70 	.globl _setUpEniroment
                             71 	.globl _main
                             72 	.globl _convertTileIndex
                             73 	.globl _changeCPU
                             74 	.globl _copyCPU
                             75 	.globl _updategamecharacter
                             76 	.globl _movegamecharacter
                             77 	.globl _isLookingAtCPU
                             78 	.globl _isCPUCollisionDetected
                             79 	.globl _canplayermove
                             80 	.globl _isWallCollisionDetected
                             81 	.globl _Navigation
                             82 	.globl _onDoor
                             83 	.globl _moveInput
                             84 	.globl _NavgateCurrentRoom
                             85 	.globl _displayRoom
                             86 	.globl _setUpPlayer
                             87 	.globl _setNavi
                             88 	.globl _selectMonsters
                             89 	.globl _selectInput
                             90 	.globl _displayMonsterList
                             91 	.globl _setBackgound
                             92 	.globl _displayMonsterInfo
                             93 	.globl _printPaddedString
                             94 	.globl _printPaddedNumber
                             95 	.globl _get_size
                             96 	.globl _pop
                             97 	.globl _push
                             98 	.globl _is_full
                             99 	.globl _is_empty
                            100 	.globl _startCursor
                            101 	.globl _Select_Screen_map
                            102 	.globl _Select_Screen_data
                            103 	.globl _monsters
                            104 	.globl _init_stack
                            105 	.globl _getCPUDefeatedDialog
                            106 	.globl _getCPUIsDefeated
                            107 	.globl _CPU_info
                            108 	.globl _ElementalTypes
                            109 	.globl _rooms
                            110 	.globl _room_bottom_map
                            111 	.globl _room_bottom_data
                            112 	.globl _room_middle_map
                            113 	.globl _room_middle_data
                            114 	.globl _room_top_map
                            115 	.globl _room_top_data
                            116 	.globl _wall
                            117 	.globl _getCPUMonsterTeam
                            118 	.globl _playCollisionSound
                            119 	.globl _playDoorSound
                            120 	.globl _splashPage
                            121 	.globl _fadein
                            122 	.globl _splashscreen_map
                            123 	.globl _splashscreen_data
                            124 	.globl _fadeout
                            125 ;--------------------------------------------------------
                            126 ; Externals used
                            127 ;--------------------------------------------------------
                            128 	.globl _IE_REG
                            129 	.globl _SVBK_REG
                            130 	.globl _OCPD_REG
                            131 	.globl _OCPS_REG
                            132 	.globl _BCPD_REG
                            133 	.globl _BCPS_REG
                            134 	.globl _RP_REG
                            135 	.globl _HDMA5_REG
                            136 	.globl _HDMA4_REG
                            137 	.globl _HDMA3_REG
                            138 	.globl _HDMA2_REG
                            139 	.globl _HDMA1_REG
                            140 	.globl _VBK_REG
                            141 	.globl _KEY1_REG
                            142 	.globl _WX_REG
                            143 	.globl _WY_REG
                            144 	.globl _OBP1_REG
                            145 	.globl _OBP0_REG
                            146 	.globl _BGP_REG
                            147 	.globl _DMA_REG
                            148 	.globl _LYC_REG
                            149 	.globl _LY_REG
                            150 	.globl _SCX_REG
                            151 	.globl _SCY_REG
                            152 	.globl _STAT_REG
                            153 	.globl _LCDC_REG
                            154 	.globl _NR52_REG
                            155 	.globl _NR51_REG
                            156 	.globl _NR50_REG
                            157 	.globl _NR44_REG
                            158 	.globl _NR43_REG
                            159 	.globl _NR42_REG
                            160 	.globl _NR41_REG
                            161 	.globl _NR34_REG
                            162 	.globl _NR33_REG
                            163 	.globl _NR32_REG
                            164 	.globl _NR31_REG
                            165 	.globl _NR30_REG
                            166 	.globl _NR24_REG
                            167 	.globl _NR23_REG
                            168 	.globl _NR22_REG
                            169 	.globl _NR21_REG
                            170 	.globl _NR14_REG
                            171 	.globl _NR13_REG
                            172 	.globl _NR12_REG
                            173 	.globl _NR11_REG
                            174 	.globl _NR10_REG
                            175 	.globl _IF_REG
                            176 	.globl _TAC_REG
                            177 	.globl _TMA_REG
                            178 	.globl _TIMA_REG
                            179 	.globl _DIV_REG
                            180 	.globl _SC_REG
                            181 	.globl _SB_REG
                            182 	.globl _P1_REG
                            183 	.globl __io_out
                            184 	.globl __io_in
                            185 	.globl __io_status
                            186 	.globl _sys_time
                            187 	.globl __cpu
                            188 ;--------------------------------------------------------
                            189 ; special function registers
                            190 ;--------------------------------------------------------
                            191 ;--------------------------------------------------------
                            192 ; special function bits 
                            193 ;--------------------------------------------------------
                            194 ;--------------------------------------------------------
                            195 ; internal ram data
                            196 ;--------------------------------------------------------
                            197 	.area _DATA
   0000                     198 _wait::
   0000                     199 	.ds 1
   0001                     200 _Smiler::
   0001                     201 	.ds 32
   0021                     202 _Female_Player::
   0021                     203 	.ds 128
   00A1                     204 _spritesize::
   00A1                     205 	.ds 1
   00A2                     206 _Cursors::
   00A2                     207 	.ds 16
   00B2                     208 _currentList::
   00B2                     209 	.ds 1
   00B3                     210 _s::
   00B3                     211 	.ds 14
   00C1                     212 _player::
   00C1                     213 	.ds 16
   00D1                     214 _cpu::
   00D1                     215 	.ds 12
   00DD                     216 _roomType::
   00DD                     217 	.ds 1
   00DE                     218 _currentRoom::
   00DE                     219 	.ds 1
                            220 ;--------------------------------------------------------
                            221 ; overlayable items in internal ram 
                            222 ;--------------------------------------------------------
                            223 	.area _OVERLAY
                            224 ;--------------------------------------------------------
                            225 ; indirectly addressable internal ram data
                            226 ;--------------------------------------------------------
                            227 	.area _ISEG
                            228 ;--------------------------------------------------------
                            229 ; bit data
                            230 ;--------------------------------------------------------
                            231 	.area _BSEG
                            232 ;--------------------------------------------------------
                            233 ; external ram data
                            234 ;--------------------------------------------------------
                            235 	.area _XSEG
                            236 ;--------------------------------------------------------
                            237 ; global & static initialisations
                            238 ;--------------------------------------------------------
                            239 	.area _GSINIT
                            240 	.area _GSFINAL
                            241 	.area _GSINIT
                            242 ;	main.c 56
                            243 ; genAssign (pointer)
   0000 11 01 00            244 	ld	de,#_Smiler + 0
   0003 3E 7E               245 	ld	a,#0x7E
   0005 12                  246 	ld	(de),a
                            247 ; genPlus
                            248 ; genPlusIncr
   0006 11 02 00            249 	ld	de,#_Smiler + 0 + 1
                            250 ; genAssign (pointer)
   0009 3E 7E               251 	ld	a,#0x7E
   000B 12                  252 	ld	(de),a
                            253 ; genPlus
                            254 ; genPlusIncr
   000C 11 03 00            255 	ld	de,#_Smiler + 0 + 2
                            256 ; genAssign (pointer)
   000F 3E FF               257 	ld	a,#0xFF
   0011 12                  258 	ld	(de),a
                            259 ; genPlus
                            260 ; genPlusIncr
   0012 11 04 00            261 	ld	de,#_Smiler + 0 + 3
                            262 ; genAssign (pointer)
   0015 3E 81               263 	ld	a,#0x81
   0017 12                  264 	ld	(de),a
                            265 ; genPlus
                            266 ; genPlusIncr
   0018 11 05 00            267 	ld	de,#_Smiler + 0 + 4
                            268 ; genAssign (pointer)
   001B 3E FF               269 	ld	a,#0xFF
   001D 12                  270 	ld	(de),a
                            271 ; genPlus
                            272 ; genPlusIncr
   001E 11 06 00            273 	ld	de,#_Smiler + 0 + 5
                            274 ; genAssign (pointer)
   0021 3E A5               275 	ld	a,#0xA5
   0023 12                  276 	ld	(de),a
                            277 ; genPlus
                            278 ; genPlusIncr
   0024 11 07 00            279 	ld	de,#_Smiler + 0 + 6
                            280 ; genAssign (pointer)
   0027 3E FF               281 	ld	a,#0xFF
   0029 12                  282 	ld	(de),a
                            283 ; genPlus
                            284 ; genPlusIncr
   002A 11 08 00            285 	ld	de,#_Smiler + 0 + 7
                            286 ; genAssign (pointer)
   002D 3E 81               287 	ld	a,#0x81
   002F 12                  288 	ld	(de),a
                            289 ; genPlus
                            290 ; genPlusIncr
   0030 11 09 00            291 	ld	de,#_Smiler + 0 + 8
                            292 ; genAssign (pointer)
   0033 3E FF               293 	ld	a,#0xFF
   0035 12                  294 	ld	(de),a
                            295 ; genPlus
                            296 ; genPlusIncr
   0036 11 0A 00            297 	ld	de,#_Smiler + 0 + 9
                            298 ; genAssign (pointer)
   0039 3E 81               299 	ld	a,#0x81
   003B 12                  300 	ld	(de),a
                            301 ; genPlus
                            302 ; genPlusIncr
   003C 11 0B 00            303 	ld	de,#_Smiler + 0 + 10
                            304 ; genAssign (pointer)
   003F 3E FF               305 	ld	a,#0xFF
   0041 12                  306 	ld	(de),a
                            307 ; genPlus
                            308 ; genPlusIncr
   0042 11 0C 00            309 	ld	de,#_Smiler + 0 + 11
                            310 ; genAssign (pointer)
   0045 3E BD               311 	ld	a,#0xBD
   0047 12                  312 	ld	(de),a
                            313 ; genPlus
                            314 ; genPlusIncr
   0048 11 0D 00            315 	ld	de,#_Smiler + 0 + 12
                            316 ; genAssign (pointer)
   004B 3E FF               317 	ld	a,#0xFF
   004D 12                  318 	ld	(de),a
                            319 ; genPlus
                            320 ; genPlusIncr
   004E 11 0E 00            321 	ld	de,#_Smiler + 0 + 13
                            322 ; genAssign (pointer)
   0051 3E 81               323 	ld	a,#0x81
   0053 12                  324 	ld	(de),a
                            325 ; genPlus
                            326 ; genPlusIncr
   0054 11 0F 00            327 	ld	de,#_Smiler + 0 + 14
                            328 ; genAssign (pointer)
   0057 3E 7E               329 	ld	a,#0x7E
   0059 12                  330 	ld	(de),a
                            331 ; genPlus
                            332 ; genPlusIncr
   005A 11 10 00            333 	ld	de,#_Smiler + 0 + 15
                            334 ; genAssign (pointer)
   005D 3E 7E               335 	ld	a,#0x7E
   005F 12                  336 	ld	(de),a
                            337 ; genPlus
                            338 ; genPlusIncr
   0060 11 11 00            339 	ld	de,#_Smiler + 0 + 16
                            340 ; genAssign (pointer)
   0063 3E 7E               341 	ld	a,#0x7E
   0065 12                  342 	ld	(de),a
                            343 ; genPlus
                            344 ; genPlusIncr
   0066 11 12 00            345 	ld	de,#_Smiler + 0 + 17
                            346 ; genAssign (pointer)
   0069 3E 7E               347 	ld	a,#0x7E
   006B 12                  348 	ld	(de),a
                            349 ; genPlus
                            350 ; genPlusIncr
   006C 11 13 00            351 	ld	de,#_Smiler + 0 + 18
                            352 ; genAssign (pointer)
   006F 3E FF               353 	ld	a,#0xFF
   0071 12                  354 	ld	(de),a
                            355 ; genPlus
                            356 ; genPlusIncr
   0072 11 14 00            357 	ld	de,#_Smiler + 0 + 19
                            358 ; genAssign (pointer)
   0075 3E 81               359 	ld	a,#0x81
   0077 12                  360 	ld	(de),a
                            361 ; genPlus
                            362 ; genPlusIncr
   0078 11 15 00            363 	ld	de,#_Smiler + 0 + 20
                            364 ; genAssign (pointer)
   007B 3E FF               365 	ld	a,#0xFF
   007D 12                  366 	ld	(de),a
                            367 ; genPlus
                            368 ; genPlusIncr
   007E 11 16 00            369 	ld	de,#_Smiler + 0 + 21
                            370 ; genAssign (pointer)
   0081 3E A5               371 	ld	a,#0xA5
   0083 12                  372 	ld	(de),a
                            373 ; genPlus
                            374 ; genPlusIncr
   0084 11 17 00            375 	ld	de,#_Smiler + 0 + 22
                            376 ; genAssign (pointer)
   0087 3E FF               377 	ld	a,#0xFF
   0089 12                  378 	ld	(de),a
                            379 ; genPlus
                            380 ; genPlusIncr
   008A 11 18 00            381 	ld	de,#_Smiler + 0 + 23
                            382 ; genAssign (pointer)
   008D 3E 81               383 	ld	a,#0x81
   008F 12                  384 	ld	(de),a
                            385 ; genPlus
                            386 ; genPlusIncr
   0090 11 19 00            387 	ld	de,#_Smiler + 0 + 24
                            388 ; genAssign (pointer)
   0093 3E FF               389 	ld	a,#0xFF
   0095 12                  390 	ld	(de),a
                            391 ; genPlus
                            392 ; genPlusIncr
   0096 11 1A 00            393 	ld	de,#_Smiler + 0 + 25
                            394 ; genAssign (pointer)
   0099 3E A5               395 	ld	a,#0xA5
   009B 12                  396 	ld	(de),a
                            397 ; genPlus
                            398 ; genPlusIncr
   009C 11 1B 00            399 	ld	de,#_Smiler + 0 + 26
                            400 ; genAssign (pointer)
   009F 3E FF               401 	ld	a,#0xFF
   00A1 12                  402 	ld	(de),a
                            403 ; genPlus
                            404 ; genPlusIncr
   00A2 11 1C 00            405 	ld	de,#_Smiler + 0 + 27
                            406 ; genAssign (pointer)
   00A5 3E 99               407 	ld	a,#0x99
   00A7 12                  408 	ld	(de),a
                            409 ; genPlus
                            410 ; genPlusIncr
   00A8 11 1D 00            411 	ld	de,#_Smiler + 0 + 28
                            412 ; genAssign (pointer)
   00AB 3E FF               413 	ld	a,#0xFF
   00AD 12                  414 	ld	(de),a
                            415 ; genPlus
                            416 ; genPlusIncr
   00AE 11 1E 00            417 	ld	de,#_Smiler + 0 + 29
                            418 ; genAssign (pointer)
   00B1 3E 81               419 	ld	a,#0x81
   00B3 12                  420 	ld	(de),a
                            421 ; genPlus
                            422 ; genPlusIncr
   00B4 11 1F 00            423 	ld	de,#_Smiler + 0 + 30
                            424 ; genAssign (pointer)
   00B7 3E 7E               425 	ld	a,#0x7E
   00B9 12                  426 	ld	(de),a
                            427 ; genPlus
                            428 ; genPlusIncr
   00BA 11 20 00            429 	ld	de,#_Smiler + 0 + 31
                            430 ; genAssign (pointer)
   00BD 3E 7E               431 	ld	a,#0x7E
   00BF 12                  432 	ld	(de),a
                            433 ;	main.c 56
                            434 ; genAssign (pointer)
   00C0 11 21 00            435 	ld	de,#_Female_Player + 0
   00C3 3E 01               436 	ld	a,#0x01
   00C5 12                  437 	ld	(de),a
                            438 ; genPlus
                            439 ; genPlusIncr
   00C6 11 22 00            440 	ld	de,#_Female_Player + 0 + 1
                            441 ; genAssign (pointer)
   00C9 3E 00               442 	ld	a,#0x00
   00CB 12                  443 	ld	(de),a
                            444 ; genPlus
                            445 ; genPlusIncr
   00CC 11 23 00            446 	ld	de,#_Female_Player + 0 + 2
                            447 ; genAssign (pointer)
   00CF 3E 01               448 	ld	a,#0x01
   00D1 12                  449 	ld	(de),a
                            450 ; genPlus
                            451 ; genPlusIncr
   00D2 11 24 00            452 	ld	de,#_Female_Player + 0 + 3
                            453 ; genAssign (pointer)
   00D5 3E 01               454 	ld	a,#0x01
   00D7 12                  455 	ld	(de),a
                            456 ; genPlus
                            457 ; genPlusIncr
   00D8 11 25 00            458 	ld	de,#_Female_Player + 0 + 4
                            459 ; genAssign (pointer)
   00DB 3E 01               460 	ld	a,#0x01
   00DD 12                  461 	ld	(de),a
                            462 ; genPlus
                            463 ; genPlusIncr
   00DE 11 26 00            464 	ld	de,#_Female_Player + 0 + 5
                            465 ; genAssign (pointer)
   00E1 3E 01               466 	ld	a,#0x01
   00E3 12                  467 	ld	(de),a
                            468 ; genPlus
                            469 ; genPlusIncr
   00E4 11 27 00            470 	ld	de,#_Female_Player + 0 + 6
                            471 ; genAssign (pointer)
   00E7 3E 81               472 	ld	a,#0x81
   00E9 12                  473 	ld	(de),a
                            474 ; genPlus
                            475 ; genPlusIncr
   00EA 11 28 00            476 	ld	de,#_Female_Player + 0 + 7
                            477 ; genAssign (pointer)
   00ED 3E 01               478 	ld	a,#0x01
   00EF 12                  479 	ld	(de),a
                            480 ; genPlus
                            481 ; genPlusIncr
   00F0 11 29 00            482 	ld	de,#_Female_Player + 0 + 8
                            483 ; genAssign (pointer)
   00F3 3E 81               484 	ld	a,#0x81
   00F5 12                  485 	ld	(de),a
                            486 ; genPlus
                            487 ; genPlusIncr
   00F6 11 2A 00            488 	ld	de,#_Female_Player + 0 + 9
                            489 ; genAssign (pointer)
   00F9 3E 81               490 	ld	a,#0x81
   00FB 12                  491 	ld	(de),a
                            492 ; genPlus
                            493 ; genPlusIncr
   00FC 11 2B 00            494 	ld	de,#_Female_Player + 0 + 10
                            495 ; genAssign (pointer)
   00FF 3E 81               496 	ld	a,#0x81
   0101 12                  497 	ld	(de),a
                            498 ; genPlus
                            499 ; genPlusIncr
   0102 11 2C 00            500 	ld	de,#_Female_Player + 0 + 11
                            501 ; genAssign (pointer)
   0105 3E 82               502 	ld	a,#0x82
   0107 12                  503 	ld	(de),a
                            504 ; genPlus
                            505 ; genPlusIncr
   0108 11 2D 00            506 	ld	de,#_Female_Player + 0 + 12
                            507 ; genAssign (pointer)
   010B 3E 03               508 	ld	a,#0x03
   010D 12                  509 	ld	(de),a
                            510 ; genPlus
                            511 ; genPlusIncr
   010E 11 2E 00            512 	ld	de,#_Female_Player + 0 + 13
                            513 ; genAssign (pointer)
   0111 3E E4               514 	ld	a,#0xE4
   0113 12                  515 	ld	(de),a
                            516 ; genPlus
                            517 ; genPlusIncr
   0114 11 2F 00            518 	ld	de,#_Female_Player + 0 + 14
                            519 ; genAssign (pointer)
   0117 3E 67               520 	ld	a,#0x67
   0119 12                  521 	ld	(de),a
                            522 ; genPlus
                            523 ; genPlusIncr
   011A 11 30 00            524 	ld	de,#_Female_Player + 0 + 15
                            525 ; genAssign (pointer)
   011D 3E 99               526 	ld	a,#0x99
   011F 12                  527 	ld	(de),a
                            528 ; genPlus
                            529 ; genPlusIncr
   0120 11 31 00            530 	ld	de,#_Female_Player + 0 + 16
                            531 ; genAssign (pointer)
   0123 3E 80               532 	ld	a,#0x80
   0125 12                  533 	ld	(de),a
                            534 ; genPlus
                            535 ; genPlusIncr
   0126 11 32 00            536 	ld	de,#_Female_Player + 0 + 17
                            537 ; genAssign (pointer)
   0129 3E 00               538 	ld	a,#0x00
   012B 12                  539 	ld	(de),a
                            540 ; genPlus
                            541 ; genPlusIncr
   012C 11 33 00            542 	ld	de,#_Female_Player + 0 + 18
                            543 ; genAssign (pointer)
   012F 3E 80               544 	ld	a,#0x80
   0131 12                  545 	ld	(de),a
                            546 ; genPlus
                            547 ; genPlusIncr
   0132 11 34 00            548 	ld	de,#_Female_Player + 0 + 19
                            549 ; genAssign (pointer)
   0135 3E 80               550 	ld	a,#0x80
   0137 12                  551 	ld	(de),a
                            552 ; genPlus
                            553 ; genPlusIncr
   0138 11 35 00            554 	ld	de,#_Female_Player + 0 + 20
                            555 ; genAssign (pointer)
   013B 3E 80               556 	ld	a,#0x80
   013D 12                  557 	ld	(de),a
                            558 ; genPlus
                            559 ; genPlusIncr
   013E 11 36 00            560 	ld	de,#_Female_Player + 0 + 21
                            561 ; genAssign (pointer)
   0141 3E 80               562 	ld	a,#0x80
   0143 12                  563 	ld	(de),a
                            564 ; genPlus
                            565 ; genPlusIncr
   0144 11 37 00            566 	ld	de,#_Female_Player + 0 + 22
                            567 ; genAssign (pointer)
   0147 3E 81               568 	ld	a,#0x81
   0149 12                  569 	ld	(de),a
                            570 ; genPlus
                            571 ; genPlusIncr
   014A 11 38 00            572 	ld	de,#_Female_Player + 0 + 23
                            573 ; genAssign (pointer)
   014D 3E 80               574 	ld	a,#0x80
   014F 12                  575 	ld	(de),a
                            576 ; genPlus
                            577 ; genPlusIncr
   0150 11 39 00            578 	ld	de,#_Female_Player + 0 + 24
                            579 ; genAssign (pointer)
   0153 3E 81               580 	ld	a,#0x81
   0155 12                  581 	ld	(de),a
                            582 ; genPlus
                            583 ; genPlusIncr
   0156 11 3A 00            584 	ld	de,#_Female_Player + 0 + 25
                            585 ; genAssign (pointer)
   0159 3E 81               586 	ld	a,#0x81
   015B 12                  587 	ld	(de),a
                            588 ; genPlus
                            589 ; genPlusIncr
   015C 11 3B 00            590 	ld	de,#_Female_Player + 0 + 26
                            591 ; genAssign (pointer)
   015F 3E 81               592 	ld	a,#0x81
   0161 12                  593 	ld	(de),a
                            594 ; genPlus
                            595 ; genPlusIncr
   0162 11 3C 00            596 	ld	de,#_Female_Player + 0 + 27
                            597 ; genAssign (pointer)
   0165 3E 41               598 	ld	a,#0x41
   0167 12                  599 	ld	(de),a
                            600 ; genPlus
                            601 ; genPlusIncr
   0168 11 3D 00            602 	ld	de,#_Female_Player + 0 + 28
                            603 ; genAssign (pointer)
   016B 3E C0               604 	ld	a,#0xC0
   016D 12                  605 	ld	(de),a
                            606 ; genPlus
                            607 ; genPlusIncr
   016E 11 3E 00            608 	ld	de,#_Female_Player + 0 + 29
                            609 ; genAssign (pointer)
   0171 3E 27               610 	ld	a,#0x27
   0173 12                  611 	ld	(de),a
                            612 ; genPlus
                            613 ; genPlusIncr
   0174 11 3F 00            614 	ld	de,#_Female_Player + 0 + 30
                            615 ; genAssign (pointer)
   0177 3E E6               616 	ld	a,#0xE6
   0179 12                  617 	ld	(de),a
                            618 ; genPlus
                            619 ; genPlusIncr
   017A 11 40 00            620 	ld	de,#_Female_Player + 0 + 31
                            621 ; genAssign (pointer)
   017D 3E 99               622 	ld	a,#0x99
   017F 12                  623 	ld	(de),a
                            624 ; genPlus
                            625 ; genPlusIncr
   0180 11 41 00            626 	ld	de,#_Female_Player + 0 + 32
                            627 ; genAssign (pointer)
   0183 3E 7F               628 	ld	a,#0x7F
   0185 12                  629 	ld	(de),a
                            630 ; genPlus
                            631 ; genPlusIncr
   0186 11 42 00            632 	ld	de,#_Female_Player + 0 + 33
                            633 ; genAssign (pointer)
   0189 3E 81               634 	ld	a,#0x81
   018B 12                  635 	ld	(de),a
                            636 ; genPlus
                            637 ; genPlusIncr
   018C 11 43 00            638 	ld	de,#_Female_Player + 0 + 34
                            639 ; genAssign (pointer)
   018F 3E 3F               640 	ld	a,#0x3F
   0191 12                  641 	ld	(de),a
                            642 ; genPlus
                            643 ; genPlusIncr
   0192 11 44 00            644 	ld	de,#_Female_Player + 0 + 35
                            645 ; genAssign (pointer)
   0195 3E 41               646 	ld	a,#0x41
   0197 12                  647 	ld	(de),a
                            648 ; genPlus
                            649 ; genPlusIncr
   0198 11 45 00            650 	ld	de,#_Female_Player + 0 + 36
                            651 ; genAssign (pointer)
   019B 3E 0F               652 	ld	a,#0x0F
   019D 12                  653 	ld	(de),a
                            654 ; genPlus
                            655 ; genPlusIncr
   019E 11 46 00            656 	ld	de,#_Female_Player + 0 + 37
                            657 ; genAssign (pointer)
   01A1 3E 30               658 	ld	a,#0x30
   01A3 12                  659 	ld	(de),a
                            660 ; genPlus
                            661 ; genPlusIncr
   01A4 11 47 00            662 	ld	de,#_Female_Player + 0 + 38
                            663 ; genAssign (pointer)
   01A7 3E 01               664 	ld	a,#0x01
   01A9 12                  665 	ld	(de),a
                            666 ; genPlus
                            667 ; genPlusIncr
   01AA 11 48 00            668 	ld	de,#_Female_Player + 0 + 39
                            669 ; genAssign (pointer)
   01AD 3E 0E               670 	ld	a,#0x0E
   01AF 12                  671 	ld	(de),a
                            672 ; genPlus
                            673 ; genPlusIncr
   01B0 11 49 00            674 	ld	de,#_Female_Player + 0 + 40
                            675 ; genAssign (pointer)
   01B3 3E 08               676 	ld	a,#0x08
   01B5 12                  677 	ld	(de),a
                            678 ; genPlus
                            679 ; genPlusIncr
   01B6 11 4A 00            680 	ld	de,#_Female_Player + 0 + 41
                            681 ; genAssign (pointer)
   01B9 3E 01               682 	ld	a,#0x01
   01BB 12                  683 	ld	(de),a
                            684 ; genPlus
                            685 ; genPlusIncr
   01BC 11 4B 00            686 	ld	de,#_Female_Player + 0 + 42
                            687 ; genAssign (pointer)
   01BF 3E 1C               688 	ld	a,#0x1C
   01C1 12                  689 	ld	(de),a
                            690 ; genPlus
                            691 ; genPlusIncr
   01C2 11 4C 00            692 	ld	de,#_Female_Player + 0 + 43
                            693 ; genAssign (pointer)
   01C5 3E 00               694 	ld	a,#0x00
   01C7 12                  695 	ld	(de),a
                            696 ; genPlus
                            697 ; genPlusIncr
   01C8 11 4D 00            698 	ld	de,#_Female_Player + 0 + 44
                            699 ; genAssign (pointer)
   01CB 3E 2A               700 	ld	a,#0x2A
   01CD 12                  701 	ld	(de),a
                            702 ; genPlus
                            703 ; genPlusIncr
   01CE 11 4E 00            704 	ld	de,#_Female_Player + 0 + 45
                            705 ; genAssign (pointer)
   01D1 3E 00               706 	ld	a,#0x00
   01D3 12                  707 	ld	(de),a
                            708 ; genPlus
                            709 ; genPlusIncr
   01D4 11 4F 00            710 	ld	de,#_Female_Player + 0 + 46
                            711 ; genAssign (pointer)
   01D7 3E 00               712 	ld	a,#0x00
   01D9 12                  713 	ld	(de),a
                            714 ; genPlus
                            715 ; genPlusIncr
   01DA 11 50 00            716 	ld	de,#_Female_Player + 0 + 47
                            717 ; genAssign (pointer)
   01DD 3E 00               718 	ld	a,#0x00
   01DF 12                  719 	ld	(de),a
                            720 ; genPlus
                            721 ; genPlusIncr
   01E0 11 51 00            722 	ld	de,#_Female_Player + 0 + 48
                            723 ; genAssign (pointer)
   01E3 3E FE               724 	ld	a,#0xFE
   01E5 12                  725 	ld	(de),a
                            726 ; genPlus
                            727 ; genPlusIncr
   01E6 11 52 00            728 	ld	de,#_Female_Player + 0 + 49
                            729 ; genAssign (pointer)
   01E9 3E 81               730 	ld	a,#0x81
   01EB 12                  731 	ld	(de),a
                            732 ; genPlus
                            733 ; genPlusIncr
   01EC 11 53 00            734 	ld	de,#_Female_Player + 0 + 50
                            735 ; genAssign (pointer)
   01EF 3E FC               736 	ld	a,#0xFC
   01F1 12                  737 	ld	(de),a
                            738 ; genPlus
                            739 ; genPlusIncr
   01F2 11 54 00            740 	ld	de,#_Female_Player + 0 + 51
                            741 ; genAssign (pointer)
   01F5 3E 82               742 	ld	a,#0x82
   01F7 12                  743 	ld	(de),a
                            744 ; genPlus
                            745 ; genPlusIncr
   01F8 11 55 00            746 	ld	de,#_Female_Player + 0 + 52
                            747 ; genAssign (pointer)
   01FB 3E F0               748 	ld	a,#0xF0
   01FD 12                  749 	ld	(de),a
                            750 ; genPlus
                            751 ; genPlusIncr
   01FE 11 56 00            752 	ld	de,#_Female_Player + 0 + 53
                            753 ; genAssign (pointer)
   0201 3E 0C               754 	ld	a,#0x0C
   0203 12                  755 	ld	(de),a
                            756 ; genPlus
                            757 ; genPlusIncr
   0204 11 57 00            758 	ld	de,#_Female_Player + 0 + 54
                            759 ; genAssign (pointer)
   0207 3E 80               760 	ld	a,#0x80
   0209 12                  761 	ld	(de),a
                            762 ; genPlus
                            763 ; genPlusIncr
   020A 11 58 00            764 	ld	de,#_Female_Player + 0 + 55
                            765 ; genAssign (pointer)
   020D 3E 70               766 	ld	a,#0x70
   020F 12                  767 	ld	(de),a
                            768 ; genPlus
                            769 ; genPlusIncr
   0210 11 59 00            770 	ld	de,#_Female_Player + 0 + 56
                            771 ; genAssign (pointer)
   0213 3E 10               772 	ld	a,#0x10
   0215 12                  773 	ld	(de),a
                            774 ; genPlus
                            775 ; genPlusIncr
   0216 11 5A 00            776 	ld	de,#_Female_Player + 0 + 57
                            777 ; genAssign (pointer)
   0219 3E 80               778 	ld	a,#0x80
   021B 12                  779 	ld	(de),a
                            780 ; genPlus
                            781 ; genPlusIncr
   021C 11 5B 00            782 	ld	de,#_Female_Player + 0 + 58
                            783 ; genAssign (pointer)
   021F 3E 38               784 	ld	a,#0x38
   0221 12                  785 	ld	(de),a
                            786 ; genPlus
                            787 ; genPlusIncr
   0222 11 5C 00            788 	ld	de,#_Female_Player + 0 + 59
                            789 ; genAssign (pointer)
   0225 3E 00               790 	ld	a,#0x00
   0227 12                  791 	ld	(de),a
                            792 ; genPlus
                            793 ; genPlusIncr
   0228 11 5D 00            794 	ld	de,#_Female_Player + 0 + 60
                            795 ; genAssign (pointer)
   022B 3E 54               796 	ld	a,#0x54
   022D 12                  797 	ld	(de),a
                            798 ; genPlus
                            799 ; genPlusIncr
   022E 11 5E 00            800 	ld	de,#_Female_Player + 0 + 61
                            801 ; genAssign (pointer)
   0231 3E 00               802 	ld	a,#0x00
   0233 12                  803 	ld	(de),a
                            804 ; genPlus
                            805 ; genPlusIncr
   0234 11 5F 00            806 	ld	de,#_Female_Player + 0 + 62
                            807 ; genAssign (pointer)
   0237 3E 00               808 	ld	a,#0x00
   0239 12                  809 	ld	(de),a
                            810 ; genPlus
                            811 ; genPlusIncr
   023A 11 60 00            812 	ld	de,#_Female_Player + 0 + 63
                            813 ; genAssign (pointer)
   023D 3E 00               814 	ld	a,#0x00
   023F 12                  815 	ld	(de),a
                            816 ; genPlus
                            817 ; genPlusIncr
   0240 11 61 00            818 	ld	de,#_Female_Player + 0 + 64
                            819 ; genAssign (pointer)
   0243 3E 80               820 	ld	a,#0x80
   0245 12                  821 	ld	(de),a
                            822 ; genPlus
                            823 ; genPlusIncr
   0246 11 62 00            824 	ld	de,#_Female_Player + 0 + 65
                            825 ; genAssign (pointer)
   0249 3E 00               826 	ld	a,#0x00
   024B 12                  827 	ld	(de),a
                            828 ; genPlus
                            829 ; genPlusIncr
   024C 11 63 00            830 	ld	de,#_Female_Player + 0 + 66
                            831 ; genAssign (pointer)
   024F 3E 80               832 	ld	a,#0x80
   0251 12                  833 	ld	(de),a
                            834 ; genPlus
                            835 ; genPlusIncr
   0252 11 64 00            836 	ld	de,#_Female_Player + 0 + 67
                            837 ; genAssign (pointer)
   0255 3E 00               838 	ld	a,#0x00
   0257 12                  839 	ld	(de),a
                            840 ; genPlus
                            841 ; genPlusIncr
   0258 11 65 00            842 	ld	de,#_Female_Player + 0 + 68
                            843 ; genAssign (pointer)
   025B 3E 80               844 	ld	a,#0x80
   025D 12                  845 	ld	(de),a
                            846 ; genPlus
                            847 ; genPlusIncr
   025E 11 66 00            848 	ld	de,#_Female_Player + 0 + 69
                            849 ; genAssign (pointer)
   0261 3E 00               850 	ld	a,#0x00
   0263 12                  851 	ld	(de),a
                            852 ; genPlus
                            853 ; genPlusIncr
   0264 11 67 00            854 	ld	de,#_Female_Player + 0 + 70
                            855 ; genAssign (pointer)
   0267 3E 80               856 	ld	a,#0x80
   0269 12                  857 	ld	(de),a
                            858 ; genPlus
                            859 ; genPlusIncr
   026A 11 68 00            860 	ld	de,#_Female_Player + 0 + 71
                            861 ; genAssign (pointer)
   026D 3E 00               862 	ld	a,#0x00
   026F 12                  863 	ld	(de),a
                            864 ; genPlus
                            865 ; genPlusIncr
   0270 11 69 00            866 	ld	de,#_Female_Player + 0 + 72
                            867 ; genAssign (pointer)
   0273 3E 40               868 	ld	a,#0x40
   0275 12                  869 	ld	(de),a
                            870 ; genPlus
                            871 ; genPlusIncr
   0276 11 6A 00            872 	ld	de,#_Female_Player + 0 + 73
                            873 ; genAssign (pointer)
   0279 3E 07               874 	ld	a,#0x07
   027B 12                  875 	ld	(de),a
                            876 ; genPlus
                            877 ; genPlusIncr
   027C 11 6B 00            878 	ld	de,#_Female_Player + 0 + 74
                            879 ; genAssign (pointer)
   027F 3E 47               880 	ld	a,#0x47
   0281 12                  881 	ld	(de),a
                            882 ; genPlus
                            883 ; genPlusIncr
   0282 11 6C 00            884 	ld	de,#_Female_Player + 0 + 75
                            885 ; genAssign (pointer)
   0285 3E 0F               886 	ld	a,#0x0F
   0287 12                  887 	ld	(de),a
                            888 ; genPlus
                            889 ; genPlusIncr
   0288 11 6D 00            890 	ld	de,#_Female_Player + 0 + 76
                            891 ; genAssign (pointer)
   028B 3E 3F               892 	ld	a,#0x3F
   028D 12                  893 	ld	(de),a
                            894 ; genPlus
                            895 ; genPlusIncr
   028E 11 6E 00            896 	ld	de,#_Female_Player + 0 + 77
                            897 ; genAssign (pointer)
   0291 3E 0F               898 	ld	a,#0x0F
   0293 12                  899 	ld	(de),a
                            900 ; genPlus
                            901 ; genPlusIncr
   0294 11 6F 00            902 	ld	de,#_Female_Player + 0 + 78
                            903 ; genAssign (pointer)
   0297 3E 0F               904 	ld	a,#0x0F
   0299 12                  905 	ld	(de),a
                            906 ; genPlus
                            907 ; genPlusIncr
   029A 11 70 00            908 	ld	de,#_Female_Player + 0 + 79
                            909 ; genAssign (pointer)
   029D 3E 1F               910 	ld	a,#0x1F
   029F 12                  911 	ld	(de),a
                            912 ; genPlus
                            913 ; genPlusIncr
   02A0 11 71 00            914 	ld	de,#_Female_Player + 0 + 80
                            915 ; genAssign (pointer)
   02A3 3E 01               916 	ld	a,#0x01
   02A5 12                  917 	ld	(de),a
                            918 ; genPlus
                            919 ; genPlusIncr
   02A6 11 72 00            920 	ld	de,#_Female_Player + 0 + 81
                            921 ; genAssign (pointer)
   02A9 3E 00               922 	ld	a,#0x00
   02AB 12                  923 	ld	(de),a
                            924 ; genPlus
                            925 ; genPlusIncr
   02AC 11 73 00            926 	ld	de,#_Female_Player + 0 + 82
                            927 ; genAssign (pointer)
   02AF 3E 01               928 	ld	a,#0x01
   02B1 12                  929 	ld	(de),a
                            930 ; genPlus
                            931 ; genPlusIncr
   02B2 11 74 00            932 	ld	de,#_Female_Player + 0 + 83
                            933 ; genAssign (pointer)
   02B5 3E 00               934 	ld	a,#0x00
   02B7 12                  935 	ld	(de),a
                            936 ; genPlus
                            937 ; genPlusIncr
   02B8 11 75 00            938 	ld	de,#_Female_Player + 0 + 84
                            939 ; genAssign (pointer)
   02BB 3E 01               940 	ld	a,#0x01
   02BD 12                  941 	ld	(de),a
                            942 ; genPlus
                            943 ; genPlusIncr
   02BE 11 76 00            944 	ld	de,#_Female_Player + 0 + 85
                            945 ; genAssign (pointer)
   02C1 3E 00               946 	ld	a,#0x00
   02C3 12                  947 	ld	(de),a
                            948 ; genPlus
                            949 ; genPlusIncr
   02C4 11 77 00            950 	ld	de,#_Female_Player + 0 + 86
                            951 ; genAssign (pointer)
   02C7 3E 01               952 	ld	a,#0x01
   02C9 12                  953 	ld	(de),a
                            954 ; genPlus
                            955 ; genPlusIncr
   02CA 11 78 00            956 	ld	de,#_Female_Player + 0 + 87
                            957 ; genAssign (pointer)
   02CD 3E 00               958 	ld	a,#0x00
   02CF 12                  959 	ld	(de),a
                            960 ; genPlus
                            961 ; genPlusIncr
   02D0 11 79 00            962 	ld	de,#_Female_Player + 0 + 88
                            963 ; genAssign (pointer)
   02D3 3E 02               964 	ld	a,#0x02
   02D5 12                  965 	ld	(de),a
                            966 ; genPlus
                            967 ; genPlusIncr
   02D6 11 7A 00            968 	ld	de,#_Female_Player + 0 + 89
                            969 ; genAssign (pointer)
   02D9 3E E0               970 	ld	a,#0xE0
   02DB 12                  971 	ld	(de),a
                            972 ; genPlus
                            973 ; genPlusIncr
   02DC 11 7B 00            974 	ld	de,#_Female_Player + 0 + 90
                            975 ; genAssign (pointer)
   02DF 3E E2               976 	ld	a,#0xE2
   02E1 12                  977 	ld	(de),a
                            978 ; genPlus
                            979 ; genPlusIncr
   02E2 11 7C 00            980 	ld	de,#_Female_Player + 0 + 91
                            981 ; genAssign (pointer)
   02E5 3E F0               982 	ld	a,#0xF0
   02E7 12                  983 	ld	(de),a
                            984 ; genPlus
                            985 ; genPlusIncr
   02E8 11 7D 00            986 	ld	de,#_Female_Player + 0 + 92
                            987 ; genAssign (pointer)
   02EB 3E FC               988 	ld	a,#0xFC
   02ED 12                  989 	ld	(de),a
                            990 ; genPlus
                            991 ; genPlusIncr
   02EE 11 7E 00            992 	ld	de,#_Female_Player + 0 + 93
                            993 ; genAssign (pointer)
   02F1 3E F0               994 	ld	a,#0xF0
   02F3 12                  995 	ld	(de),a
                            996 ; genPlus
                            997 ; genPlusIncr
   02F4 11 7F 00            998 	ld	de,#_Female_Player + 0 + 94
                            999 ; genAssign (pointer)
   02F7 3E F0              1000 	ld	a,#0xF0
   02F9 12                 1001 	ld	(de),a
                           1002 ; genPlus
                           1003 ; genPlusIncr
   02FA 11 80 00           1004 	ld	de,#_Female_Player + 0 + 95
                           1005 ; genAssign (pointer)
   02FD 3E F8              1006 	ld	a,#0xF8
   02FF 12                 1007 	ld	(de),a
                           1008 ; genPlus
                           1009 ; genPlusIncr
   0300 11 81 00           1010 	ld	de,#_Female_Player + 0 + 96
                           1011 ; genAssign (pointer)
   0303 3E 0D              1012 	ld	a,#0x0D
   0305 12                 1013 	ld	(de),a
                           1014 ; genPlus
                           1015 ; genPlusIncr
   0306 11 82 00           1016 	ld	de,#_Female_Player + 0 + 97
                           1017 ; genAssign (pointer)
   0309 3E 1D              1018 	ld	a,#0x1D
   030B 12                 1019 	ld	(de),a
                           1020 ; genPlus
                           1021 ; genPlusIncr
   030C 11 83 00           1022 	ld	de,#_Female_Player + 0 + 98
                           1023 ; genAssign (pointer)
   030F 3E 3D              1024 	ld	a,#0x3D
   0311 12                 1025 	ld	(de),a
                           1026 ; genPlus
                           1027 ; genPlusIncr
   0312 11 84 00           1028 	ld	de,#_Female_Player + 0 + 99
                           1029 ; genAssign (pointer)
   0315 3E 0D              1030 	ld	a,#0x0D
   0317 12                 1031 	ld	(de),a
                           1032 ; genPlus
                           1033 ; genPlusIncr
   0318 11 85 00           1034 	ld	de,#_Female_Player + 0 + 100
                           1035 ; genAssign (pointer)
   031B 3E 47              1036 	ld	a,#0x47
   031D 12                 1037 	ld	(de),a
                           1038 ; genPlus
                           1039 ; genPlusIncr
   031E 11 86 00           1040 	ld	de,#_Female_Player + 0 + 101
                           1041 ; genAssign (pointer)
   0321 3E 0F              1042 	ld	a,#0x0F
   0323 12                 1043 	ld	(de),a
                           1044 ; genPlus
                           1045 ; genPlusIncr
   0324 11 87 00           1046 	ld	de,#_Female_Player + 0 + 102
                           1047 ; genAssign (pointer)
   0327 3E 43              1048 	ld	a,#0x43
   0329 12                 1049 	ld	(de),a
                           1050 ; genPlus
                           1051 ; genPlusIncr
   032A 11 88 00           1052 	ld	de,#_Female_Player + 0 + 103
                           1053 ; genAssign (pointer)
   032D 3E 07              1054 	ld	a,#0x07
   032F 12                 1055 	ld	(de),a
                           1056 ; genPlus
                           1057 ; genPlusIncr
   0330 11 89 00           1058 	ld	de,#_Female_Player + 0 + 104
                           1059 ; genAssign (pointer)
   0333 3E 80              1060 	ld	a,#0x80
   0335 12                 1061 	ld	(de),a
                           1062 ; genPlus
                           1063 ; genPlusIncr
   0336 11 8A 00           1064 	ld	de,#_Female_Player + 0 + 105
                           1065 ; genAssign (pointer)
   0339 3E 03              1066 	ld	a,#0x03
   033B 12                 1067 	ld	(de),a
                           1068 ; genPlus
                           1069 ; genPlusIncr
   033C 11 8B 00           1070 	ld	de,#_Female_Player + 0 + 106
                           1071 ; genAssign (pointer)
   033F 3E 80              1072 	ld	a,#0x80
   0341 12                 1073 	ld	(de),a
                           1074 ; genPlus
                           1075 ; genPlusIncr
   0342 11 8C 00           1076 	ld	de,#_Female_Player + 0 + 107
                           1077 ; genAssign (pointer)
   0345 3E 00              1078 	ld	a,#0x00
   0347 12                 1079 	ld	(de),a
                           1080 ; genPlus
                           1081 ; genPlusIncr
   0348 11 8D 00           1082 	ld	de,#_Female_Player + 0 + 108
                           1083 ; genAssign (pointer)
   034B 3E 80              1084 	ld	a,#0x80
   034D 12                 1085 	ld	(de),a
                           1086 ; genPlus
                           1087 ; genPlusIncr
   034E 11 8E 00           1088 	ld	de,#_Female_Player + 0 + 109
                           1089 ; genAssign (pointer)
   0351 3E 00              1090 	ld	a,#0x00
   0353 12                 1091 	ld	(de),a
                           1092 ; genPlus
                           1093 ; genPlusIncr
   0354 11 8F 00           1094 	ld	de,#_Female_Player + 0 + 110
                           1095 ; genAssign (pointer)
   0357 3E 80              1096 	ld	a,#0x80
   0359 12                 1097 	ld	(de),a
                           1098 ; genPlus
                           1099 ; genPlusIncr
   035A 11 90 00           1100 	ld	de,#_Female_Player + 0 + 111
                           1101 ; genAssign (pointer)
   035D 3E 00              1102 	ld	a,#0x00
   035F 12                 1103 	ld	(de),a
                           1104 ; genPlus
                           1105 ; genPlusIncr
   0360 11 91 00           1106 	ld	de,#_Female_Player + 0 + 112
                           1107 ; genAssign (pointer)
   0363 3E B0              1108 	ld	a,#0xB0
   0365 12                 1109 	ld	(de),a
                           1110 ; genPlus
                           1111 ; genPlusIncr
   0366 11 92 00           1112 	ld	de,#_Female_Player + 0 + 113
                           1113 ; genAssign (pointer)
   0369 3E B8              1114 	ld	a,#0xB8
   036B 12                 1115 	ld	(de),a
                           1116 ; genPlus
                           1117 ; genPlusIncr
   036C 11 93 00           1118 	ld	de,#_Female_Player + 0 + 114
                           1119 ; genAssign (pointer)
   036F 3E BC              1120 	ld	a,#0xBC
   0371 12                 1121 	ld	(de),a
                           1122 ; genPlus
                           1123 ; genPlusIncr
   0372 11 94 00           1124 	ld	de,#_Female_Player + 0 + 115
                           1125 ; genAssign (pointer)
   0375 3E B0              1126 	ld	a,#0xB0
   0377 12                 1127 	ld	(de),a
                           1128 ; genPlus
                           1129 ; genPlusIncr
   0378 11 95 00           1130 	ld	de,#_Female_Player + 0 + 116
                           1131 ; genAssign (pointer)
   037B 3E E2              1132 	ld	a,#0xE2
   037D 12                 1133 	ld	(de),a
                           1134 ; genPlus
                           1135 ; genPlusIncr
   037E 11 96 00           1136 	ld	de,#_Female_Player + 0 + 117
                           1137 ; genAssign (pointer)
   0381 3E F0              1138 	ld	a,#0xF0
   0383 12                 1139 	ld	(de),a
                           1140 ; genPlus
                           1141 ; genPlusIncr
   0384 11 97 00           1142 	ld	de,#_Female_Player + 0 + 118
                           1143 ; genAssign (pointer)
   0387 3E C2              1144 	ld	a,#0xC2
   0389 12                 1145 	ld	(de),a
                           1146 ; genPlus
                           1147 ; genPlusIncr
   038A 11 98 00           1148 	ld	de,#_Female_Player + 0 + 119
                           1149 ; genAssign (pointer)
   038D 3E E0              1150 	ld	a,#0xE0
   038F 12                 1151 	ld	(de),a
                           1152 ; genPlus
                           1153 ; genPlusIncr
   0390 11 99 00           1154 	ld	de,#_Female_Player + 0 + 120
                           1155 ; genAssign (pointer)
   0393 3E 01              1156 	ld	a,#0x01
   0395 12                 1157 	ld	(de),a
                           1158 ; genPlus
                           1159 ; genPlusIncr
   0396 11 9A 00           1160 	ld	de,#_Female_Player + 0 + 121
                           1161 ; genAssign (pointer)
   0399 3E C0              1162 	ld	a,#0xC0
   039B 12                 1163 	ld	(de),a
                           1164 ; genPlus
                           1165 ; genPlusIncr
   039C 11 9B 00           1166 	ld	de,#_Female_Player + 0 + 122
                           1167 ; genAssign (pointer)
   039F 3E 01              1168 	ld	a,#0x01
   03A1 12                 1169 	ld	(de),a
                           1170 ; genPlus
                           1171 ; genPlusIncr
   03A2 11 9C 00           1172 	ld	de,#_Female_Player + 0 + 123
                           1173 ; genAssign (pointer)
   03A5 3E 00              1174 	ld	a,#0x00
   03A7 12                 1175 	ld	(de),a
                           1176 ; genPlus
                           1177 ; genPlusIncr
   03A8 11 9D 00           1178 	ld	de,#_Female_Player + 0 + 124
                           1179 ; genAssign (pointer)
   03AB 3E 01              1180 	ld	a,#0x01
   03AD 12                 1181 	ld	(de),a
                           1182 ; genPlus
                           1183 ; genPlusIncr
   03AE 11 9E 00           1184 	ld	de,#_Female_Player + 0 + 125
                           1185 ; genAssign (pointer)
   03B1 3E 00              1186 	ld	a,#0x00
   03B3 12                 1187 	ld	(de),a
                           1188 ; genPlus
                           1189 ; genPlusIncr
   03B4 11 9F 00           1190 	ld	de,#_Female_Player + 0 + 126
                           1191 ; genAssign (pointer)
   03B7 3E 01              1192 	ld	a,#0x01
   03B9 12                 1193 	ld	(de),a
                           1194 ; genPlus
                           1195 ; genPlusIncr
   03BA 11 A0 00           1196 	ld	de,#_Female_Player + 0 + 127
                           1197 ; genAssign (pointer)
   03BD 3E 00              1198 	ld	a,#0x00
   03BF 12                 1199 	ld	(de),a
                           1200 ;	main.c 56
                           1201 ; genAssign
                           1202 ; AOP_HL for _spritesize
   03C0 21 A1 00           1203 	ld	hl,#_spritesize + 0
   03C3 36 08              1204 	ld	(hl),#0x08
                           1205 ;	main.c 56
                           1206 ; genAssign (pointer)
   03C5 11 A2 00           1207 	ld	de,#_Cursors + 0
   03C8 3E E0              1208 	ld	a,#0xE0
   03CA 12                 1209 	ld	(de),a
                           1210 ; genPlus
                           1211 ; genPlusIncr
   03CB 11 A3 00           1212 	ld	de,#_Cursors + 0 + 1
                           1213 ; genAssign (pointer)
   03CE 3E E0              1214 	ld	a,#0xE0
   03D0 12                 1215 	ld	(de),a
                           1216 ; genPlus
                           1217 ; genPlusIncr
   03D1 11 A4 00           1218 	ld	de,#_Cursors + 0 + 2
                           1219 ; genAssign (pointer)
   03D4 3E 78              1220 	ld	a,#0x78
   03D6 12                 1221 	ld	(de),a
                           1222 ; genPlus
                           1223 ; genPlusIncr
   03D7 11 A5 00           1224 	ld	de,#_Cursors + 0 + 3
                           1225 ; genAssign (pointer)
   03DA 3E 78              1226 	ld	a,#0x78
   03DC 12                 1227 	ld	(de),a
                           1228 ; genPlus
                           1229 ; genPlusIncr
   03DD 11 A6 00           1230 	ld	de,#_Cursors + 0 + 4
                           1231 ; genAssign (pointer)
   03E0 3E 1E              1232 	ld	a,#0x1E
   03E2 12                 1233 	ld	(de),a
                           1234 ; genPlus
                           1235 ; genPlusIncr
   03E3 11 A7 00           1236 	ld	de,#_Cursors + 0 + 5
                           1237 ; genAssign (pointer)
   03E6 3E 1E              1238 	ld	a,#0x1E
   03E8 12                 1239 	ld	(de),a
                           1240 ; genPlus
                           1241 ; genPlusIncr
   03E9 11 A8 00           1242 	ld	de,#_Cursors + 0 + 6
                           1243 ; genAssign (pointer)
   03EC 3E 0F              1244 	ld	a,#0x0F
   03EE 12                 1245 	ld	(de),a
                           1246 ; genPlus
                           1247 ; genPlusIncr
   03EF 11 A9 00           1248 	ld	de,#_Cursors + 0 + 7
                           1249 ; genAssign (pointer)
   03F2 3E 0F              1250 	ld	a,#0x0F
   03F4 12                 1251 	ld	(de),a
                           1252 ; genPlus
                           1253 ; genPlusIncr
   03F5 11 AA 00           1254 	ld	de,#_Cursors + 0 + 8
                           1255 ; genAssign (pointer)
   03F8 3E 0F              1256 	ld	a,#0x0F
   03FA 12                 1257 	ld	(de),a
                           1258 ; genPlus
                           1259 ; genPlusIncr
   03FB 11 AB 00           1260 	ld	de,#_Cursors + 0 + 9
                           1261 ; genAssign (pointer)
   03FE 3E 0F              1262 	ld	a,#0x0F
   0400 12                 1263 	ld	(de),a
                           1264 ; genPlus
                           1265 ; genPlusIncr
   0401 11 AC 00           1266 	ld	de,#_Cursors + 0 + 10
                           1267 ; genAssign (pointer)
   0404 3E 1E              1268 	ld	a,#0x1E
   0406 12                 1269 	ld	(de),a
                           1270 ; genPlus
                           1271 ; genPlusIncr
   0407 11 AD 00           1272 	ld	de,#_Cursors + 0 + 11
                           1273 ; genAssign (pointer)
   040A 3E 1E              1274 	ld	a,#0x1E
   040C 12                 1275 	ld	(de),a
                           1276 ; genPlus
                           1277 ; genPlusIncr
   040D 11 AE 00           1278 	ld	de,#_Cursors + 0 + 12
                           1279 ; genAssign (pointer)
   0410 3E 78              1280 	ld	a,#0x78
   0412 12                 1281 	ld	(de),a
                           1282 ; genPlus
                           1283 ; genPlusIncr
   0413 11 AF 00           1284 	ld	de,#_Cursors + 0 + 13
                           1285 ; genAssign (pointer)
   0416 3E 78              1286 	ld	a,#0x78
   0418 12                 1287 	ld	(de),a
                           1288 ; genPlus
                           1289 ; genPlusIncr
   0419 11 B0 00           1290 	ld	de,#_Cursors + 0 + 14
                           1291 ; genAssign (pointer)
   041C 3E E0              1292 	ld	a,#0xE0
   041E 12                 1293 	ld	(de),a
                           1294 ; genPlus
                           1295 ; genPlusIncr
   041F 11 B1 00           1296 	ld	de,#_Cursors + 0 + 15
                           1297 ; genAssign (pointer)
   0422 3E E0              1298 	ld	a,#0xE0
   0424 12                 1299 	ld	(de),a
                           1300 ;	main.c 56
                           1301 ; genAssign
                           1302 ; AOP_HL for _currentList
   0425 21 B2 00           1303 	ld	hl,#_currentList + 0
   0428 36 01              1304 	ld	(hl),#0x01
                           1305 ;	main.c 56
                           1306 ; genAssign
                           1307 ; AOP_HL for _roomType
   042A 21 DD 00           1308 	ld	hl,#_roomType + 0
   042D 36 00              1309 	ld	(hl),#0x00
                           1310 ;	main.c 56
                           1311 ; genAssign
                           1312 ; AOP_HL for _currentRoom
   042F 21 DE 00           1313 	ld	hl,#_currentRoom + 0
   0432 36 00              1314 	ld	(hl),#0x00
                           1315 ;--------------------------------------------------------
                           1316 ; Home
                           1317 ;--------------------------------------------------------
                           1318 	.area _HOME
                           1319 	.area _CODE
                           1320 ;--------------------------------------------------------
                           1321 ; code
                           1322 ;--------------------------------------------------------
                           1323 	.area _CODE
                           1324 ;	SplashPage/SplashPage.c 5
                           1325 ; genLabel
                           1326 ; genFunction
                           1327 ;	---------------------------------
                           1328 ; Function fadeout
                           1329 ; ---------------------------------
   0000                    1330 ___fadeout_start:
   0000                    1331 _fadeout:
                           1332 	
                           1333 ;	SplashPage/SplashPage.c 6
                           1334 ; genAssign
                           1335 ; AOP_HL for _wait
   0000 21 00 00           1336 	ld	hl,#_wait + 0
   0003 36 00              1337 	ld	(hl),#0x00
                           1338 ; genLabel
   0005                    1339 00106$:
                           1340 ; genCmpLt
                           1341 ; AOP_HL for _wait
   0005 21 00 00           1342 	ld	hl,#_wait + 0
   0008 7E                 1343 	ld	a,(hl)
   0009 FE 04              1344 	cp	#0x04
   000B D2 55 00           1345 	jp	nc,00110$
                           1346 ;	SplashPage/SplashPage.c 7
                           1347 ; genCmpGt
                           1348 ; AOP_HL for _wait
   000E AF                 1349 	xor	a,a
   000F 3E 03              1350 	ld	a,#0x03
   0011 9E                 1351 	sbc	a,(hl) ; 2
   0012 DA 44 00           1352 	jp	c,00105$
                           1353 ; genJumpTab
                           1354 ; AOP_HL for _wait
   0015 5E                 1355 	ld	e,(hl)
   0016 16 00              1356 	ld	d,#0x00
   0018 21 1F 00           1357 	ld	hl,#00115$
   001B 19                 1358 	add	hl,de
   001C 19                 1359 	add	hl,de
   001D 19                 1360 	add	hl,de
   001E E9                 1361 	jp	(hl)
   001F                    1362 00115$:
   001F C3 2B 00           1363 	jp	00101$
   0022 C3 32 00           1364 	jp	00102$
   0025 C3 39 00           1365 	jp	00103$
   0028 C3 40 00           1366 	jp	00104$
                           1367 ;	SplashPage/SplashPage.c 9
                           1368 ; genLabel
   002B                    1369 00101$:
                           1370 ; genAssign
                           1371 ; AOP_SFR for _BGP_REG
   002B 3E E4              1372 	ld	a,#0xE4
   002D E0 00              1373 	ldh	(_BGP_REG+0),a
                           1374 ;	SplashPage/SplashPage.c 10
                           1375 ; genGoto
   002F C3 44 00           1376 	jp	00105$
                           1377 ;	SplashPage/SplashPage.c 12
                           1378 ; genLabel
   0032                    1379 00102$:
                           1380 ; genAssign
                           1381 ; AOP_SFR for _BGP_REG
   0032 3E F9              1382 	ld	a,#0xF9
   0034 E0 00              1383 	ldh	(_BGP_REG+0),a
                           1384 ;	SplashPage/SplashPage.c 13
                           1385 ; genGoto
   0036 C3 44 00           1386 	jp	00105$
                           1387 ;	SplashPage/SplashPage.c 15
                           1388 ; genLabel
   0039                    1389 00103$:
                           1390 ; genAssign
                           1391 ; AOP_SFR for _BGP_REG
   0039 3E FE              1392 	ld	a,#0xFE
   003B E0 00              1393 	ldh	(_BGP_REG+0),a
                           1394 ;	SplashPage/SplashPage.c 16
                           1395 ; genGoto
   003D C3 44 00           1396 	jp	00105$
                           1397 ;	SplashPage/SplashPage.c 18
                           1398 ; genLabel
   0040                    1399 00104$:
                           1400 ; genAssign
                           1401 ; AOP_SFR for _BGP_REG
   0040 3E FF              1402 	ld	a,#0xFF
   0042 E0 00              1403 	ldh	(_BGP_REG+0),a
                           1404 ;	SplashPage/SplashPage.c 20
                           1405 ; genLabel
   0044                    1406 00105$:
                           1407 ;	SplashPage/SplashPage.c 21
                           1408 ; genIpush
                           1409 ; AOP_STK for 
   0044 F8 02              1410 	lda	hl,2(sp)
   0046 7E                 1411 	ld	a,(hl)
   0047 F5                 1412 	push	af
   0048 33                 1413 	inc	sp
                           1414 ; genCall
   0049 CD DD 2F           1415 	call	_performantdelay
   004C E8 01              1416 	lda	sp,1(sp)
                           1417 ;	SplashPage/SplashPage.c 6
                           1418 ; genPlus
                           1419 ; AOP_HL for _wait
                           1420 ; genPlusIncr
   004E 21 00 00           1421 	ld	hl,#_wait + 0
   0051 34                 1422 	inc	(hl)
                           1423 ; genGoto
   0052 C3 05 00           1424 	jp	00106$
                           1425 ; genLabel
   0055                    1426 00110$:
                           1427 ; genEndFunction
                           1428 	
   0055 C9                 1429 	ret
   0056                    1430 ___fadeout_end:
   0056                    1431 _splashscreen_data:
   0056 FF                 1432 	.db #0xFF
   0057 FF                 1433 	.db #0xFF
   0058 FF                 1434 	.db #0xFF
   0059 FF                 1435 	.db #0xFF
   005A FF                 1436 	.db #0xFF
   005B FF                 1437 	.db #0xFF
   005C FF                 1438 	.db #0xFF
   005D FF                 1439 	.db #0xFF
   005E FF                 1440 	.db #0xFF
   005F FF                 1441 	.db #0xFF
   0060 FF                 1442 	.db #0xFF
   0061 FF                 1443 	.db #0xFF
   0062 FF                 1444 	.db #0xFF
   0063 FF                 1445 	.db #0xFF
   0064 FF                 1446 	.db #0xFF
   0065 FF                 1447 	.db #0xFF
   0066 FF                 1448 	.db #0xFF
   0067 FF                 1449 	.db #0xFF
   0068 FF                 1450 	.db #0xFF
   0069 FF                 1451 	.db #0xFF
   006A FF                 1452 	.db #0xFF
   006B FF                 1453 	.db #0xFF
   006C FF                 1454 	.db #0xFF
   006D FF                 1455 	.db #0xFF
   006E FF                 1456 	.db #0xFF
   006F FF                 1457 	.db #0xFF
   0070 FF                 1458 	.db #0xFF
   0071 FF                 1459 	.db #0xFF
   0072 FF                 1460 	.db #0xFF
   0073 FF                 1461 	.db #0xFF
   0074 80                 1462 	.db #0x80
   0075 C0                 1463 	.db #0xC0
   0076 FF                 1464 	.db #0xFF
   0077 FF                 1465 	.db #0xFF
   0078 FF                 1466 	.db #0xFF
   0079 FF                 1467 	.db #0xFF
   007A FF                 1468 	.db #0xFF
   007B FF                 1469 	.db #0xFF
   007C FF                 1470 	.db #0xFF
   007D FF                 1471 	.db #0xFF
   007E FF                 1472 	.db #0xFF
   007F FF                 1473 	.db #0xFF
   0080 FF                 1474 	.db #0xFF
   0081 FF                 1475 	.db #0xFF
   0082 FF                 1476 	.db #0xFF
   0083 FF                 1477 	.db #0xFF
   0084 78                 1478 	.db #0x78
   0085 3C                 1479 	.db #0x3C
   0086 FF                 1480 	.db #0xFF
   0087 FF                 1481 	.db #0xFF
   0088 FF                 1482 	.db #0xFF
   0089 FF                 1483 	.db #0xFF
   008A FF                 1484 	.db #0xFF
   008B FF                 1485 	.db #0xFF
   008C FF                 1486 	.db #0xFF
   008D FF                 1487 	.db #0xFF
   008E FF                 1488 	.db #0xFF
   008F FF                 1489 	.db #0xFF
   0090 FF                 1490 	.db #0xFF
   0091 FF                 1491 	.db #0xFF
   0092 FF                 1492 	.db #0xFF
   0093 FF                 1493 	.db #0xFF
   0094 07                 1494 	.db #0x07
   0095 03                 1495 	.db #0x03
   0096 FF                 1496 	.db #0xFF
   0097 FF                 1497 	.db #0xFF
   0098 FF                 1498 	.db #0xFF
   0099 FF                 1499 	.db #0xFF
   009A FF                 1500 	.db #0xFF
   009B FF                 1501 	.db #0xFF
   009C FF                 1502 	.db #0xFF
   009D FF                 1503 	.db #0xFF
   009E FF                 1504 	.db #0xFF
   009F FF                 1505 	.db #0xFF
   00A0 FF                 1506 	.db #0xFF
   00A1 FF                 1507 	.db #0xFF
   00A2 FF                 1508 	.db #0xFF
   00A3 FF                 1509 	.db #0xFF
   00A4 F0                 1510 	.db #0xF0
   00A5 F8                 1511 	.db #0xF8
   00A6 FF                 1512 	.db #0xFF
   00A7 FF                 1513 	.db #0xFF
   00A8 FF                 1514 	.db #0xFF
   00A9 FF                 1515 	.db #0xFF
   00AA FF                 1516 	.db #0xFF
   00AB FF                 1517 	.db #0xFF
   00AC FF                 1518 	.db #0xFF
   00AD FF                 1519 	.db #0xFF
   00AE FF                 1520 	.db #0xFF
   00AF FF                 1521 	.db #0xFF
   00B0 FF                 1522 	.db #0xFF
   00B1 FF                 1523 	.db #0xFF
   00B2 FF                 1524 	.db #0xFF
   00B3 FF                 1525 	.db #0xFF
   00B4 3F                 1526 	.db #0x3F
   00B5 3F                 1527 	.db #0x3F
   00B6 80                 1528 	.db #0x80
   00B7 C0                 1529 	.db #0xC0
   00B8 80                 1530 	.db #0x80
   00B9 C0                 1531 	.db #0xC0
   00BA 80                 1532 	.db #0x80
   00BB C0                 1533 	.db #0xC0
   00BC 80                 1534 	.db #0x80
   00BD C0                 1535 	.db #0xC0
   00BE 80                 1536 	.db #0x80
   00BF C0                 1537 	.db #0xC0
   00C0 80                 1538 	.db #0x80
   00C1 C1                 1539 	.db #0xC1
   00C2 81                 1540 	.db #0x81
   00C3 C1                 1541 	.db #0xC1
   00C4 81                 1542 	.db #0x81
   00C5 C1                 1543 	.db #0xC1
   00C6 30                 1544 	.db #0x30
   00C7 18                 1545 	.db #0x18
   00C8 18                 1546 	.db #0x18
   00C9 00                 1547 	.db #0x00
   00CA 00                 1548 	.db #0x00
   00CB 00                 1549 	.db #0x00
   00CC 00                 1550 	.db #0x00
   00CD 00                 1551 	.db #0x00
   00CE 00                 1552 	.db #0x00
   00CF 00                 1553 	.db #0x00
   00D0 01                 1554 	.db #0x01
   00D1 00                 1555 	.db #0x00
   00D2 03                 1556 	.db #0x03
   00D3 81                 1557 	.db #0x81
   00D4 83                 1558 	.db #0x83
   00D5 81                 1559 	.db #0x81
   00D6 03                 1560 	.db #0x03
   00D7 03                 1561 	.db #0x03
   00D8 03                 1562 	.db #0x03
   00D9 03                 1563 	.db #0x03
   00DA 03                 1564 	.db #0x03
   00DB 03                 1565 	.db #0x03
   00DC 03                 1566 	.db #0x03
   00DD 03                 1567 	.db #0x03
   00DE 03                 1568 	.db #0x03
   00DF 03                 1569 	.db #0x03
   00E0 83                 1570 	.db #0x83
   00E1 03                 1571 	.db #0x03
   00E2 83                 1572 	.db #0x83
   00E3 03                 1573 	.db #0x03
   00E4 83                 1574 	.db #0x83
   00E5 03                 1575 	.db #0x03
   00E6 FF                 1576 	.db #0xFF
   00E7 FF                 1577 	.db #0xFF
   00E8 FF                 1578 	.db #0xFF
   00E9 FF                 1579 	.db #0xFF
   00EA FF                 1580 	.db #0xFF
   00EB FF                 1581 	.db #0xFF
   00EC FF                 1582 	.db #0xFF
   00ED FF                 1583 	.db #0xFF
   00EE FF                 1584 	.db #0xFF
   00EF FF                 1585 	.db #0xFF
   00F0 FF                 1586 	.db #0xFF
   00F1 FF                 1587 	.db #0xFF
   00F2 FF                 1588 	.db #0xFF
   00F3 FF                 1589 	.db #0xFF
   00F4 80                 1590 	.db #0x80
   00F5 00                 1591 	.db #0x00
   00F6 FF                 1592 	.db #0xFF
   00F7 FF                 1593 	.db #0xFF
   00F8 FF                 1594 	.db #0xFF
   00F9 FF                 1595 	.db #0xFF
   00FA FF                 1596 	.db #0xFF
   00FB FF                 1597 	.db #0xFF
   00FC FF                 1598 	.db #0xFF
   00FD FF                 1599 	.db #0xFF
   00FE FF                 1600 	.db #0xFF
   00FF FF                 1601 	.db #0xFF
   0100 FF                 1602 	.db #0xFF
   0101 FF                 1603 	.db #0xFF
   0102 FF                 1604 	.db #0xFF
   0103 FF                 1605 	.db #0xFF
   0104 0C                 1606 	.db #0x0C
   0105 06                 1607 	.db #0x06
   0106 FF                 1608 	.db #0xFF
   0107 FF                 1609 	.db #0xFF
   0108 FF                 1610 	.db #0xFF
   0109 FF                 1611 	.db #0xFF
   010A FF                 1612 	.db #0xFF
   010B FF                 1613 	.db #0xFF
   010C FF                 1614 	.db #0xFF
   010D FF                 1615 	.db #0xFF
   010E FF                 1616 	.db #0xFF
   010F FF                 1617 	.db #0xFF
   0110 FF                 1618 	.db #0xFF
   0111 FF                 1619 	.db #0xFF
   0112 FF                 1620 	.db #0xFF
   0113 FF                 1621 	.db #0xFF
   0114 00                 1622 	.db #0x00
   0115 00                 1623 	.db #0x00
   0116 FF                 1624 	.db #0xFF
   0117 FF                 1625 	.db #0xFF
   0118 FF                 1626 	.db #0xFF
   0119 FF                 1627 	.db #0xFF
   011A FF                 1628 	.db #0xFF
   011B FF                 1629 	.db #0xFF
   011C FF                 1630 	.db #0xFF
   011D FF                 1631 	.db #0xFF
   011E FF                 1632 	.db #0xFF
   011F FF                 1633 	.db #0xFF
   0120 FF                 1634 	.db #0xFF
   0121 FF                 1635 	.db #0xFF
   0122 FF                 1636 	.db #0xFF
   0123 FF                 1637 	.db #0xFF
   0124 18                 1638 	.db #0x18
   0125 0C                 1639 	.db #0x0C
   0126 F0                 1640 	.db #0xF0
   0127 F8                 1641 	.db #0xF8
   0128 F0                 1642 	.db #0xF0
   0129 F8                 1643 	.db #0xF8
   012A F0                 1644 	.db #0xF0
   012B F8                 1645 	.db #0xF8
   012C F0                 1646 	.db #0xF0
   012D F8                 1647 	.db #0xF8
   012E F0                 1648 	.db #0xF0
   012F F8                 1649 	.db #0xF8
   0130 F0                 1650 	.db #0xF0
   0131 F8                 1651 	.db #0xF8
   0132 F0                 1652 	.db #0xF0
   0133 F8                 1653 	.db #0xF8
   0134 30                 1654 	.db #0x30
   0135 18                 1655 	.db #0x18
   0136 3F                 1656 	.db #0x3F
   0137 3F                 1657 	.db #0x3F
   0138 3F                 1658 	.db #0x3F
   0139 3F                 1659 	.db #0x3F
   013A 3F                 1660 	.db #0x3F
   013B 3F                 1661 	.db #0x3F
   013C 3F                 1662 	.db #0x3F
   013D 3F                 1663 	.db #0x3F
   013E 3F                 1664 	.db #0x3F
   013F 3F                 1665 	.db #0x3F
   0140 3F                 1666 	.db #0x3F
   0141 3F                 1667 	.db #0x3F
   0142 3F                 1668 	.db #0x3F
   0143 3F                 1669 	.db #0x3F
   0144 00                 1670 	.db #0x00
   0145 00                 1671 	.db #0x00
   0146 FF                 1672 	.db #0xFF
   0147 FF                 1673 	.db #0xFF
   0148 FF                 1674 	.db #0xFF
   0149 FF                 1675 	.db #0xFF
   014A FF                 1676 	.db #0xFF
   014B FF                 1677 	.db #0xFF
   014C FF                 1678 	.db #0xFF
   014D FF                 1679 	.db #0xFF
   014E FF                 1680 	.db #0xFF
   014F FF                 1681 	.db #0xFF
   0150 FF                 1682 	.db #0xFF
   0151 FF                 1683 	.db #0xFF
   0152 FF                 1684 	.db #0xFF
   0153 FF                 1685 	.db #0xFF
   0154 60                 1686 	.db #0x60
   0155 30                 1687 	.db #0x30
   0156 FF                 1688 	.db #0xFF
   0157 FF                 1689 	.db #0xFF
   0158 FF                 1690 	.db #0xFF
   0159 FF                 1691 	.db #0xFF
   015A FF                 1692 	.db #0xFF
   015B FF                 1693 	.db #0xFF
   015C FF                 1694 	.db #0xFF
   015D FF                 1695 	.db #0xFF
   015E FF                 1696 	.db #0xFF
   015F FF                 1697 	.db #0xFF
   0160 FF                 1698 	.db #0xFF
   0161 FF                 1699 	.db #0xFF
   0162 FF                 1700 	.db #0xFF
   0163 FF                 1701 	.db #0xFF
   0164 E0                 1702 	.db #0xE0
   0165 60                 1703 	.db #0x60
   0166 FF                 1704 	.db #0xFF
   0167 FF                 1705 	.db #0xFF
   0168 FF                 1706 	.db #0xFF
   0169 FF                 1707 	.db #0xFF
   016A FF                 1708 	.db #0xFF
   016B FF                 1709 	.db #0xFF
   016C FF                 1710 	.db #0xFF
   016D FF                 1711 	.db #0xFF
   016E FF                 1712 	.db #0xFF
   016F FF                 1713 	.db #0xFF
   0170 FF                 1714 	.db #0xFF
   0171 FF                 1715 	.db #0xFF
   0172 FF                 1716 	.db #0xFF
   0173 FF                 1717 	.db #0xFF
   0174 01                 1718 	.db #0x01
   0175 00                 1719 	.db #0x00
   0176 FF                 1720 	.db #0xFF
   0177 FF                 1721 	.db #0xFF
   0178 FF                 1722 	.db #0xFF
   0179 FF                 1723 	.db #0xFF
   017A FF                 1724 	.db #0xFF
   017B FF                 1725 	.db #0xFF
   017C FF                 1726 	.db #0xFF
   017D FF                 1727 	.db #0xFF
   017E FF                 1728 	.db #0xFF
   017F FF                 1729 	.db #0xFF
   0180 FF                 1730 	.db #0xFF
   0181 FF                 1731 	.db #0xFF
   0182 FF                 1732 	.db #0xFF
   0183 FF                 1733 	.db #0xFF
   0184 C0                 1734 	.db #0xC0
   0185 C0                 1735 	.db #0xC0
   0186 FF                 1736 	.db #0xFF
   0187 FF                 1737 	.db #0xFF
   0188 FF                 1738 	.db #0xFF
   0189 FF                 1739 	.db #0xFF
   018A FF                 1740 	.db #0xFF
   018B FF                 1741 	.db #0xFF
   018C FF                 1742 	.db #0xFF
   018D FF                 1743 	.db #0xFF
   018E FF                 1744 	.db #0xFF
   018F FF                 1745 	.db #0xFF
   0190 FF                 1746 	.db #0xFF
   0191 FF                 1747 	.db #0xFF
   0192 FF                 1748 	.db #0xFF
   0193 FF                 1749 	.db #0xFF
   0194 03                 1750 	.db #0x03
   0195 01                 1751 	.db #0x01
   0196 81                 1752 	.db #0x81
   0197 C1                 1753 	.db #0xC1
   0198 81                 1754 	.db #0x81
   0199 C1                 1755 	.db #0xC1
   019A 81                 1756 	.db #0x81
   019B C1                 1757 	.db #0xC1
   019C 81                 1758 	.db #0x81
   019D C1                 1759 	.db #0xC1
   019E 81                 1760 	.db #0x81
   019F C1                 1761 	.db #0xC1
   01A0 81                 1762 	.db #0x81
   01A1 C1                 1763 	.db #0xC1
   01A2 81                 1764 	.db #0x81
   01A3 C1                 1765 	.db #0xC1
   01A4 81                 1766 	.db #0x81
   01A5 C1                 1767 	.db #0xC1
   01A6 83                 1768 	.db #0x83
   01A7 81                 1769 	.db #0x81
   01A8 83                 1770 	.db #0x83
   01A9 81                 1771 	.db #0x81
   01AA 83                 1772 	.db #0x83
   01AB 81                 1773 	.db #0x81
   01AC 83                 1774 	.db #0x83
   01AD 81                 1775 	.db #0x81
   01AE 83                 1776 	.db #0x83
   01AF 81                 1777 	.db #0x81
   01B0 83                 1778 	.db #0x83
   01B1 81                 1779 	.db #0x81
   01B2 83                 1780 	.db #0x83
   01B3 81                 1781 	.db #0x81
   01B4 83                 1782 	.db #0x83
   01B5 81                 1783 	.db #0x81
   01B6 83                 1784 	.db #0x83
   01B7 03                 1785 	.db #0x03
   01B8 83                 1786 	.db #0x83
   01B9 03                 1787 	.db #0x03
   01BA 83                 1788 	.db #0x83
   01BB 03                 1789 	.db #0x03
   01BC 83                 1790 	.db #0x83
   01BD 03                 1791 	.db #0x03
   01BE 83                 1792 	.db #0x83
   01BF 03                 1793 	.db #0x03
   01C0 83                 1794 	.db #0x83
   01C1 03                 1795 	.db #0x03
   01C2 83                 1796 	.db #0x83
   01C3 03                 1797 	.db #0x03
   01C4 83                 1798 	.db #0x83
   01C5 03                 1799 	.db #0x03
   01C6 00                 1800 	.db #0x00
   01C7 00                 1801 	.db #0x00
   01C8 00                 1802 	.db #0x00
   01C9 00                 1803 	.db #0x00
   01CA 00                 1804 	.db #0x00
   01CB 00                 1805 	.db #0x00
   01CC 00                 1806 	.db #0x00
   01CD 00                 1807 	.db #0x00
   01CE 07                 1808 	.db #0x07
   01CF 00                 1809 	.db #0x00
   01D0 06                 1810 	.db #0x06
   01D1 03                 1811 	.db #0x03
   01D2 06                 1812 	.db #0x06
   01D3 03                 1813 	.db #0x03
   01D4 06                 1814 	.db #0x06
   01D5 03                 1815 	.db #0x03
   01D6 04                 1816 	.db #0x04
   01D7 06                 1817 	.db #0x06
   01D8 04                 1818 	.db #0x04
   01D9 06                 1819 	.db #0x06
   01DA 04                 1820 	.db #0x04
   01DB 06                 1821 	.db #0x06
   01DC 04                 1822 	.db #0x04
   01DD 06                 1823 	.db #0x06
   01DE 04                 1824 	.db #0x04
   01DF 06                 1825 	.db #0x06
   01E0 04                 1826 	.db #0x04
   01E1 06                 1827 	.db #0x06
   01E2 04                 1828 	.db #0x04
   01E3 06                 1829 	.db #0x06
   01E4 04                 1830 	.db #0x04
   01E5 06                 1831 	.db #0x06
   01E6 00                 1832 	.db #0x00
   01E7 00                 1833 	.db #0x00
   01E8 00                 1834 	.db #0x00
   01E9 00                 1835 	.db #0x00
   01EA 00                 1836 	.db #0x00
   01EB 00                 1837 	.db #0x00
   01EC 00                 1838 	.db #0x00
   01ED 00                 1839 	.db #0x00
   01EE 0C                 1840 	.db #0x0C
   01EF 00                 1841 	.db #0x00
   01F0 0C                 1842 	.db #0x0C
   01F1 0C                 1843 	.db #0x0C
   01F2 0C                 1844 	.db #0x0C
   01F3 0C                 1845 	.db #0x0C
   01F4 0C                 1846 	.db #0x0C
   01F5 0C                 1847 	.db #0x0C
   01F6 18                 1848 	.db #0x18
   01F7 0C                 1849 	.db #0x0C
   01F8 18                 1850 	.db #0x18
   01F9 0C                 1851 	.db #0x0C
   01FA 18                 1852 	.db #0x18
   01FB 0C                 1853 	.db #0x0C
   01FC 18                 1854 	.db #0x18
   01FD 0C                 1855 	.db #0x0C
   01FE 18                 1856 	.db #0x18
   01FF 0C                 1857 	.db #0x0C
   0200 18                 1858 	.db #0x18
   0201 0C                 1859 	.db #0x0C
   0202 18                 1860 	.db #0x18
   0203 0C                 1861 	.db #0x0C
   0204 18                 1862 	.db #0x18
   0205 0C                 1863 	.db #0x0C
   0206 00                 1864 	.db #0x00
   0207 00                 1865 	.db #0x00
   0208 00                 1866 	.db #0x00
   0209 00                 1867 	.db #0x00
   020A 00                 1868 	.db #0x00
   020B 00                 1869 	.db #0x00
   020C 00                 1870 	.db #0x00
   020D 00                 1871 	.db #0x00
   020E 1F                 1872 	.db #0x1F
   020F 00                 1873 	.db #0x00
   0210 1F                 1874 	.db #0x1F
   0211 1F                 1875 	.db #0x1F
   0212 1F                 1876 	.db #0x1F
   0213 1F                 1877 	.db #0x1F
   0214 00                 1878 	.db #0x00
   0215 00                 1879 	.db #0x00
   0216 30                 1880 	.db #0x30
   0217 18                 1881 	.db #0x18
   0218 30                 1882 	.db #0x30
   0219 18                 1883 	.db #0x18
   021A 30                 1884 	.db #0x30
   021B 18                 1885 	.db #0x18
   021C 30                 1886 	.db #0x30
   021D 18                 1887 	.db #0x18
   021E D0                 1888 	.db #0xD0
   021F 38                 1889 	.db #0x38
   0220 F0                 1890 	.db #0xF0
   0221 F8                 1891 	.db #0xF8
   0222 F0                 1892 	.db #0xF0
   0223 F8                 1893 	.db #0xF8
   0224 10                 1894 	.db #0x10
   0225 38                 1895 	.db #0x38
   0226 00                 1896 	.db #0x00
   0227 00                 1897 	.db #0x00
   0228 00                 1898 	.db #0x00
   0229 00                 1899 	.db #0x00
   022A 00                 1900 	.db #0x00
   022B 00                 1901 	.db #0x00
   022C 00                 1902 	.db #0x00
   022D 00                 1903 	.db #0x00
   022E 3F                 1904 	.db #0x3F
   022F 00                 1905 	.db #0x00
   0230 3F                 1906 	.db #0x3F
   0231 3F                 1907 	.db #0x3F
   0232 3F                 1908 	.db #0x3F
   0233 3F                 1909 	.db #0x3F
   0234 38                 1910 	.db #0x38
   0235 30                 1911 	.db #0x30
   0236 60                 1912 	.db #0x60
   0237 30                 1913 	.db #0x30
   0238 60                 1914 	.db #0x60
   0239 30                 1915 	.db #0x30
   023A 60                 1916 	.db #0x60
   023B 30                 1917 	.db #0x30
   023C 60                 1918 	.db #0x60
   023D 30                 1919 	.db #0x30
   023E A0                 1920 	.db #0xA0
   023F 70                 1921 	.db #0x70
   0240 E0                 1922 	.db #0xE0
   0241 F0                 1923 	.db #0xF0
   0242 E0                 1924 	.db #0xE0
   0243 F0                 1925 	.db #0xF0
   0244 60                 1926 	.db #0x60
   0245 30                 1927 	.db #0x30
   0246 00                 1928 	.db #0x00
   0247 00                 1929 	.db #0x00
   0248 00                 1930 	.db #0x00
   0249 00                 1931 	.db #0x00
   024A 00                 1932 	.db #0x00
   024B 00                 1933 	.db #0x00
   024C 00                 1934 	.db #0x00
   024D 00                 1935 	.db #0x00
   024E 60                 1936 	.db #0x60
   024F 00                 1937 	.db #0x00
   0250 70                 1938 	.db #0x70
   0251 60                 1939 	.db #0x60
   0252 70                 1940 	.db #0x70
   0253 60                 1941 	.db #0x60
   0254 00                 1942 	.db #0x00
   0255 00                 1943 	.db #0x00
   0256 E0                 1944 	.db #0xE0
   0257 60                 1945 	.db #0x60
   0258 E0                 1946 	.db #0xE0
   0259 60                 1947 	.db #0x60
   025A E0                 1948 	.db #0xE0
   025B 60                 1949 	.db #0x60
   025C E0                 1950 	.db #0xE0
   025D 60                 1951 	.db #0x60
   025E E0                 1952 	.db #0xE0
   025F 60                 1953 	.db #0x60
   0260 E0                 1954 	.db #0xE0
   0261 60                 1955 	.db #0x60
   0262 E0                 1956 	.db #0xE0
   0263 60                 1957 	.db #0x60
   0264 E0                 1958 	.db #0xE0
   0265 60                 1959 	.db #0x60
   0266 01                 1960 	.db #0x01
   0267 00                 1961 	.db #0x00
   0268 01                 1962 	.db #0x01
   0269 00                 1963 	.db #0x00
   026A 01                 1964 	.db #0x01
   026B 00                 1965 	.db #0x00
   026C 01                 1966 	.db #0x01
   026D 00                 1967 	.db #0x00
   026E C1                 1968 	.db #0xC1
   026F 00                 1969 	.db #0x00
   0270 61                 1970 	.db #0x61
   0271 C0                 1971 	.db #0xC0
   0272 E1                 1972 	.db #0xE1
   0273 C0                 1973 	.db #0xC0
   0274 E1                 1974 	.db #0xE1
   0275 C0                 1975 	.db #0xC0
   0276 C0                 1976 	.db #0xC0
   0277 C0                 1977 	.db #0xC0
   0278 C0                 1978 	.db #0xC0
   0279 C0                 1979 	.db #0xC0
   027A C0                 1980 	.db #0xC0
   027B C0                 1981 	.db #0xC0
   027C C0                 1982 	.db #0xC0
   027D C0                 1983 	.db #0xC0
   027E C1                 1984 	.db #0xC1
   027F C0                 1985 	.db #0xC0
   0280 C0                 1986 	.db #0xC0
   0281 C1                 1987 	.db #0xC1
   0282 C0                 1988 	.db #0xC0
   0283 C1                 1989 	.db #0xC1
   0284 C0                 1990 	.db #0xC0
   0285 C0                 1991 	.db #0xC0
   0286 03                 1992 	.db #0x03
   0287 01                 1993 	.db #0x01
   0288 03                 1994 	.db #0x03
   0289 01                 1995 	.db #0x01
   028A 03                 1996 	.db #0x03
   028B 01                 1997 	.db #0x01
   028C 03                 1998 	.db #0x03
   028D 01                 1999 	.db #0x01
   028E FD                 2000 	.db #0xFD
   028F 03                 2001 	.db #0x03
   0290 FF                 2002 	.db #0xFF
   0291 FF                 2003 	.db #0xFF
   0292 FF                 2004 	.db #0xFF
   0293 FF                 2005 	.db #0xFF
   0294 03                 2006 	.db #0x03
   0295 01                 2007 	.db #0x01
   0296 06                 2008 	.db #0x06
   0297 03                 2009 	.db #0x03
   0298 06                 2010 	.db #0x06
   0299 03                 2011 	.db #0x03
   029A 06                 2012 	.db #0x06
   029B 03                 2013 	.db #0x03
   029C 06                 2014 	.db #0x06
   029D 03                 2015 	.db #0x03
   029E 06                 2016 	.db #0x06
   029F 03                 2017 	.db #0x03
   02A0 06                 2018 	.db #0x06
   02A1 03                 2019 	.db #0x03
   02A2 06                 2020 	.db #0x06
   02A3 03                 2021 	.db #0x03
   02A4 02                 2022 	.db #0x02
   02A5 00                 2023 	.db #0x00
   02A6 0C                 2024 	.db #0x0C
   02A7 0C                 2025 	.db #0x0C
   02A8 0C                 2026 	.db #0x0C
   02A9 0C                 2027 	.db #0x0C
   02AA 0C                 2028 	.db #0x0C
   02AB 0C                 2029 	.db #0x0C
   02AC 0C                 2030 	.db #0x0C
   02AD 0C                 2031 	.db #0x0C
   02AE 0C                 2032 	.db #0x0C
   02AF 0C                 2033 	.db #0x0C
   02B0 0C                 2034 	.db #0x0C
   02B1 0C                 2035 	.db #0x0C
   02B2 0C                 2036 	.db #0x0C
   02B3 0C                 2037 	.db #0x0C
   02B4 0C                 2038 	.db #0x0C
   02B5 0C                 2039 	.db #0x0C
   02B6 18                 2040 	.db #0x18
   02B7 0C                 2041 	.db #0x0C
   02B8 18                 2042 	.db #0x18
   02B9 0C                 2043 	.db #0x0C
   02BA 18                 2044 	.db #0x18
   02BB 0C                 2045 	.db #0x0C
   02BC 18                 2046 	.db #0x18
   02BD 0C                 2047 	.db #0x0C
   02BE 1B                 2048 	.db #0x1B
   02BF 0C                 2049 	.db #0x0C
   02C0 1F                 2050 	.db #0x1F
   02C1 0F                 2051 	.db #0x0F
   02C2 1F                 2052 	.db #0x1F
   02C3 0F                 2053 	.db #0x0F
   02C4 1B                 2054 	.db #0x1B
   02C5 0C                 2055 	.db #0x0C
   02C6 00                 2056 	.db #0x00
   02C7 00                 2057 	.db #0x00
   02C8 00                 2058 	.db #0x00
   02C9 00                 2059 	.db #0x00
   02CA 00                 2060 	.db #0x00
   02CB 00                 2061 	.db #0x00
   02CC 00                 2062 	.db #0x00
   02CD 00                 2063 	.db #0x00
   02CE F8                 2064 	.db #0xF8
   02CF 00                 2065 	.db #0x00
   02D0 FC                 2066 	.db #0xFC
   02D1 F8                 2067 	.db #0xF8
   02D2 FC                 2068 	.db #0xFC
   02D3 F8                 2069 	.db #0xF8
   02D4 F8                 2070 	.db #0xF8
   02D5 00                 2071 	.db #0x00
   02D6 30                 2072 	.db #0x30
   02D7 18                 2073 	.db #0x18
   02D8 30                 2074 	.db #0x30
   02D9 18                 2075 	.db #0x18
   02DA 30                 2076 	.db #0x30
   02DB 18                 2077 	.db #0x18
   02DC 30                 2078 	.db #0x30
   02DD 18                 2079 	.db #0x18
   02DE 30                 2080 	.db #0x30
   02DF 18                 2081 	.db #0x18
   02E0 30                 2082 	.db #0x30
   02E1 18                 2083 	.db #0x18
   02E2 30                 2084 	.db #0x30
   02E3 18                 2085 	.db #0x18
   02E4 30                 2086 	.db #0x30
   02E5 18                 2087 	.db #0x18
   02E6 38                 2088 	.db #0x38
   02E7 30                 2089 	.db #0x30
   02E8 38                 2090 	.db #0x38
   02E9 30                 2091 	.db #0x30
   02EA 38                 2092 	.db #0x38
   02EB 30                 2093 	.db #0x30
   02EC 38                 2094 	.db #0x38
   02ED 30                 2095 	.db #0x30
   02EE 38                 2096 	.db #0x38
   02EF 30                 2097 	.db #0x30
   02F0 38                 2098 	.db #0x38
   02F1 30                 2099 	.db #0x30
   02F2 18                 2100 	.db #0x18
   02F3 30                 2101 	.db #0x30
   02F4 10                 2102 	.db #0x10
   02F5 00                 2103 	.db #0x00
   02F6 60                 2104 	.db #0x60
   02F7 30                 2105 	.db #0x30
   02F8 60                 2106 	.db #0x60
   02F9 30                 2107 	.db #0x30
   02FA 60                 2108 	.db #0x60
   02FB 30                 2109 	.db #0x30
   02FC 60                 2110 	.db #0x60
   02FD 30                 2111 	.db #0x30
   02FE 60                 2112 	.db #0x60
   02FF 30                 2113 	.db #0x30
   0300 60                 2114 	.db #0x60
   0301 30                 2115 	.db #0x30
   0302 60                 2116 	.db #0x60
   0303 30                 2117 	.db #0x30
   0304 60                 2118 	.db #0x60
   0305 30                 2119 	.db #0x30
   0306 00                 2120 	.db #0x00
   0307 00                 2121 	.db #0x00
   0308 00                 2122 	.db #0x00
   0309 00                 2123 	.db #0x00
   030A 00                 2124 	.db #0x00
   030B 00                 2125 	.db #0x00
   030C 00                 2126 	.db #0x00
   030D 00                 2127 	.db #0x00
   030E 7F                 2128 	.db #0x7F
   030F 00                 2129 	.db #0x00
   0310 3F                 2130 	.db #0x3F
   0311 7F                 2131 	.db #0x7F
   0312 3F                 2132 	.db #0x3F
   0313 7F                 2133 	.db #0x7F
   0314 3F                 2134 	.db #0x3F
   0315 00                 2135 	.db #0x00
   0316 E0                 2136 	.db #0xE0
   0317 60                 2137 	.db #0x60
   0318 E0                 2138 	.db #0xE0
   0319 60                 2139 	.db #0x60
   031A E0                 2140 	.db #0xE0
   031B 60                 2141 	.db #0x60
   031C E0                 2142 	.db #0xE0
   031D 60                 2143 	.db #0x60
   031E 60                 2144 	.db #0x60
   031F E0                 2145 	.db #0xE0
   0320 E0                 2146 	.db #0xE0
   0321 E0                 2147 	.db #0xE0
   0322 E0                 2148 	.db #0xE0
   0323 E0                 2149 	.db #0xE0
   0324 E0                 2150 	.db #0xE0
   0325 60                 2151 	.db #0x60
   0326 E1                 2152 	.db #0xE1
   0327 C0                 2153 	.db #0xC0
   0328 E1                 2154 	.db #0xE1
   0329 C0                 2155 	.db #0xC0
   032A E1                 2156 	.db #0xE1
   032B C0                 2157 	.db #0xC0
   032C E1                 2158 	.db #0xE1
   032D C0                 2159 	.db #0xC0
   032E FE                 2160 	.db #0xFE
   032F C1                 2161 	.db #0xC1
   0330 FF                 2162 	.db #0xFF
   0331 FF                 2163 	.db #0xFF
   0332 FF                 2164 	.db #0xFF
   0333 FF                 2165 	.db #0xFF
   0334 FF                 2166 	.db #0xFF
   0335 FF                 2167 	.db #0xFF
   0336 C0                 2168 	.db #0xC0
   0337 C0                 2169 	.db #0xC0
   0338 C0                 2170 	.db #0xC0
   0339 C0                 2171 	.db #0xC0
   033A C0                 2172 	.db #0xC0
   033B C0                 2173 	.db #0xC0
   033C C0                 2174 	.db #0xC0
   033D C0                 2175 	.db #0xC0
   033E FF                 2176 	.db #0xFF
   033F C0                 2177 	.db #0xC0
   0340 FF                 2178 	.db #0xFF
   0341 FF                 2179 	.db #0xFF
   0342 FF                 2180 	.db #0xFF
   0343 FF                 2181 	.db #0xFF
   0344 FF                 2182 	.db #0xFF
   0345 C0                 2183 	.db #0xC0
   0346 03                 2184 	.db #0x03
   0347 01                 2185 	.db #0x01
   0348 03                 2186 	.db #0x03
   0349 01                 2187 	.db #0x01
   034A 03                 2188 	.db #0x03
   034B 01                 2189 	.db #0x01
   034C 03                 2190 	.db #0x03
   034D 01                 2191 	.db #0x01
   034E 83                 2192 	.db #0x83
   034F 01                 2193 	.db #0x01
   0350 C3                 2194 	.db #0xC3
   0351 81                 2195 	.db #0x81
   0352 C3                 2196 	.db #0xC3
   0353 81                 2197 	.db #0x81
   0354 83                 2198 	.db #0x83
   0355 01                 2199 	.db #0x01
   0356 81                 2200 	.db #0x81
   0357 C1                 2201 	.db #0xC1
   0358 81                 2202 	.db #0x81
   0359 C1                 2203 	.db #0xC1
   035A 81                 2204 	.db #0x81
   035B C1                 2205 	.db #0xC1
   035C 81                 2206 	.db #0x81
   035D C1                 2207 	.db #0xC1
   035E 83                 2208 	.db #0x83
   035F C1                 2209 	.db #0xC1
   0360 FF                 2210 	.db #0xFF
   0361 FF                 2211 	.db #0xFF
   0362 FF                 2212 	.db #0xFF
   0363 FF                 2213 	.db #0xFF
   0364 FF                 2214 	.db #0xFF
   0365 FF                 2215 	.db #0xFF
   0366 83                 2216 	.db #0x83
   0367 81                 2217 	.db #0x81
   0368 83                 2218 	.db #0x83
   0369 81                 2219 	.db #0x81
   036A 83                 2220 	.db #0x83
   036B 81                 2221 	.db #0x81
   036C 83                 2222 	.db #0x83
   036D 81                 2223 	.db #0x81
   036E C1                 2224 	.db #0xC1
   036F 83                 2225 	.db #0x83
   0370 FF                 2226 	.db #0xFF
   0371 FF                 2227 	.db #0xFF
   0372 FF                 2228 	.db #0xFF
   0373 FF                 2229 	.db #0xFF
   0374 FF                 2230 	.db #0xFF
   0375 FF                 2231 	.db #0xFF
   0376 83                 2232 	.db #0x83
   0377 03                 2233 	.db #0x03
   0378 83                 2234 	.db #0x83
   0379 03                 2235 	.db #0x03
   037A 83                 2236 	.db #0x83
   037B 03                 2237 	.db #0x03
   037C 83                 2238 	.db #0x83
   037D 03                 2239 	.db #0x03
   037E 07                 2240 	.db #0x07
   037F 83                 2241 	.db #0x83
   0380 FF                 2242 	.db #0xFF
   0381 FF                 2243 	.db #0xFF
   0382 FF                 2244 	.db #0xFF
   0383 FF                 2245 	.db #0xFF
   0384 FF                 2246 	.db #0xFF
   0385 FF                 2247 	.db #0xFF
   0386 00                 2248 	.db #0x00
   0387 00                 2249 	.db #0x00
   0388 00                 2250 	.db #0x00
   0389 00                 2251 	.db #0x00
   038A 00                 2252 	.db #0x00
   038B 00                 2253 	.db #0x00
   038C 00                 2254 	.db #0x00
   038D 00                 2255 	.db #0x00
   038E 80                 2256 	.db #0x80
   038F 00                 2257 	.db #0x00
   0390 FF                 2258 	.db #0xFF
   0391 FF                 2259 	.db #0xFF
   0392 FF                 2260 	.db #0xFF
   0393 FF                 2261 	.db #0xFF
   0394 FF                 2262 	.db #0xFF
   0395 FF                 2263 	.db #0xFF
   0396 04                 2264 	.db #0x04
   0397 06                 2265 	.db #0x06
   0398 04                 2266 	.db #0x04
   0399 06                 2267 	.db #0x06
   039A 04                 2268 	.db #0x04
   039B 06                 2269 	.db #0x06
   039C 04                 2270 	.db #0x04
   039D 06                 2271 	.db #0x06
   039E 0C                 2272 	.db #0x0C
   039F 06                 2273 	.db #0x06
   03A0 FF                 2274 	.db #0xFF
   03A1 FF                 2275 	.db #0xFF
   03A2 FF                 2276 	.db #0xFF
   03A3 FF                 2277 	.db #0xFF
   03A4 FF                 2278 	.db #0xFF
   03A5 FF                 2279 	.db #0xFF
   03A6 0C                 2280 	.db #0x0C
   03A7 0C                 2281 	.db #0x0C
   03A8 0C                 2282 	.db #0x0C
   03A9 0C                 2283 	.db #0x0C
   03AA 0C                 2284 	.db #0x0C
   03AB 0C                 2285 	.db #0x0C
   03AC 0C                 2286 	.db #0x0C
   03AD 0C                 2287 	.db #0x0C
   03AE 1E                 2288 	.db #0x1E
   03AF 0C                 2289 	.db #0x0C
   03B0 FF                 2290 	.db #0xFF
   03B1 FF                 2291 	.db #0xFF
   03B2 FF                 2292 	.db #0xFF
   03B3 FF                 2293 	.db #0xFF
   03B4 FF                 2294 	.db #0xFF
   03B5 FF                 2295 	.db #0xFF
   03B6 18                 2296 	.db #0x18
   03B7 0C                 2297 	.db #0x0C
   03B8 18                 2298 	.db #0x18
   03B9 0C                 2299 	.db #0x0C
   03BA 18                 2300 	.db #0x18
   03BB 0C                 2301 	.db #0x0C
   03BC 18                 2302 	.db #0x18
   03BD 0C                 2303 	.db #0x0C
   03BE 08                 2304 	.db #0x08
   03BF 1C                 2305 	.db #0x1C
   03C0 FF                 2306 	.db #0xFF
   03C1 FF                 2307 	.db #0xFF
   03C2 FF                 2308 	.db #0xFF
   03C3 FF                 2309 	.db #0xFF
   03C4 FF                 2310 	.db #0xFF
   03C5 FF                 2311 	.db #0xFF
   03C6 00                 2312 	.db #0x00
   03C7 00                 2313 	.db #0x00
   03C8 00                 2314 	.db #0x00
   03C9 00                 2315 	.db #0x00
   03CA 00                 2316 	.db #0x00
   03CB 00                 2317 	.db #0x00
   03CC 00                 2318 	.db #0x00
   03CD 00                 2319 	.db #0x00
   03CE 00                 2320 	.db #0x00
   03CF 00                 2321 	.db #0x00
   03D0 FF                 2322 	.db #0xFF
   03D1 FF                 2323 	.db #0xFF
   03D2 FF                 2324 	.db #0xFF
   03D3 FF                 2325 	.db #0xFF
   03D4 FF                 2326 	.db #0xFF
   03D5 FF                 2327 	.db #0xFF
   03D6 30                 2328 	.db #0x30
   03D7 18                 2329 	.db #0x18
   03D8 30                 2330 	.db #0x30
   03D9 18                 2331 	.db #0x18
   03DA 30                 2332 	.db #0x30
   03DB 18                 2333 	.db #0x18
   03DC 30                 2334 	.db #0x30
   03DD 18                 2335 	.db #0x18
   03DE 14                 2336 	.db #0x14
   03DF 38                 2337 	.db #0x38
   03E0 FF                 2338 	.db #0xFF
   03E1 FF                 2339 	.db #0xFF
   03E2 FF                 2340 	.db #0xFF
   03E3 FF                 2341 	.db #0xFF
   03E4 FF                 2342 	.db #0xFF
   03E5 FF                 2343 	.db #0xFF
   03E6 60                 2344 	.db #0x60
   03E7 30                 2345 	.db #0x30
   03E8 60                 2346 	.db #0x60
   03E9 30                 2347 	.db #0x30
   03EA 60                 2348 	.db #0x60
   03EB 30                 2349 	.db #0x30
   03EC 60                 2350 	.db #0x60
   03ED 30                 2351 	.db #0x30
   03EE 38                 2352 	.db #0x38
   03EF 70                 2353 	.db #0x70
   03F0 FF                 2354 	.db #0xFF
   03F1 FF                 2355 	.db #0xFF
   03F2 FF                 2356 	.db #0xFF
   03F3 FF                 2357 	.db #0xFF
   03F4 FF                 2358 	.db #0xFF
   03F5 FF                 2359 	.db #0xFF
   03F6 E0                 2360 	.db #0xE0
   03F7 60                 2361 	.db #0x60
   03F8 E0                 2362 	.db #0xE0
   03F9 60                 2363 	.db #0x60
   03FA E0                 2364 	.db #0xE0
   03FB 60                 2365 	.db #0x60
   03FC E0                 2366 	.db #0xE0
   03FD 60                 2367 	.db #0x60
   03FE F1                 2368 	.db #0xF1
   03FF 60                 2369 	.db #0x60
   0400 FF                 2370 	.db #0xFF
   0401 FF                 2371 	.db #0xFF
   0402 FF                 2372 	.db #0xFF
   0403 FF                 2373 	.db #0xFF
   0404 FF                 2374 	.db #0xFF
   0405 FF                 2375 	.db #0xFF
   0406 C0                 2376 	.db #0xC0
   0407 C0                 2377 	.db #0xC0
   0408 C0                 2378 	.db #0xC0
   0409 C0                 2379 	.db #0xC0
   040A C0                 2380 	.db #0xC0
   040B C0                 2381 	.db #0xC0
   040C C0                 2382 	.db #0xC0
   040D C0                 2383 	.db #0xC0
   040E E0                 2384 	.db #0xE0
   040F C0                 2385 	.db #0xC0
   0410 FF                 2386 	.db #0xFF
   0411 FF                 2387 	.db #0xFF
   0412 FF                 2388 	.db #0xFF
   0413 FF                 2389 	.db #0xFF
   0414 FF                 2390 	.db #0xFF
   0415 FF                 2391 	.db #0xFF
   0416 03                 2392 	.db #0x03
   0417 01                 2393 	.db #0x01
   0418 03                 2394 	.db #0x03
   0419 01                 2395 	.db #0x01
   041A 03                 2396 	.db #0x03
   041B 01                 2397 	.db #0x01
   041C 03                 2398 	.db #0x03
   041D 01                 2399 	.db #0x01
   041E 03                 2400 	.db #0x03
   041F 01                 2401 	.db #0x01
   0420 FF                 2402 	.db #0xFF
   0421 FF                 2403 	.db #0xFF
   0422 FF                 2404 	.db #0xFF
   0423 FF                 2405 	.db #0xFF
   0424 FF                 2406 	.db #0xFF
   0425 FF                 2407 	.db #0xFF
   0426 FF                 2408 	.db #0xFF
   0427 FF                 2409 	.db #0xFF
   0428 FF                 2410 	.db #0xFF
   0429 FF                 2411 	.db #0xFF
   042A FF                 2412 	.db #0xFF
   042B FF                 2413 	.db #0xFF
   042C FF                 2414 	.db #0xFF
   042D FF                 2415 	.db #0xFF
   042E FE                 2416 	.db #0xFE
   042F FF                 2417 	.db #0xFF
   0430 FE                 2418 	.db #0xFE
   0431 FE                 2419 	.db #0xFE
   0432 FE                 2420 	.db #0xFE
   0433 FE                 2421 	.db #0xFE
   0434 FE                 2422 	.db #0xFE
   0435 FE                 2423 	.db #0xFE
   0436 FF                 2424 	.db #0xFF
   0437 FF                 2425 	.db #0xFF
   0438 FF                 2426 	.db #0xFF
   0439 FF                 2427 	.db #0xFF
   043A FF                 2428 	.db #0xFF
   043B FF                 2429 	.db #0xFF
   043C FF                 2430 	.db #0xFF
   043D FF                 2431 	.db #0xFF
   043E 03                 2432 	.db #0x03
   043F FF                 2433 	.db #0xFF
   0440 07                 2434 	.db #0x07
   0441 03                 2435 	.db #0x03
   0442 07                 2436 	.db #0x07
   0443 03                 2437 	.db #0x03
   0444 3F                 2438 	.db #0x3F
   0445 03                 2439 	.db #0x03
   0446 FF                 2440 	.db #0xFF
   0447 FF                 2441 	.db #0xFF
   0448 FF                 2442 	.db #0xFF
   0449 FF                 2443 	.db #0xFF
   044A FF                 2444 	.db #0xFF
   044B FF                 2445 	.db #0xFF
   044C FF                 2446 	.db #0xFF
   044D FF                 2447 	.db #0xFF
   044E FC                 2448 	.db #0xFC
   044F FF                 2449 	.db #0xFF
   0450 FC                 2450 	.db #0xFC
   0451 FC                 2451 	.db #0xFC
   0452 FC                 2452 	.db #0xFC
   0453 FC                 2453 	.db #0xFC
   0454 FC                 2454 	.db #0xFC
   0455 FC                 2455 	.db #0xFC
   0456 FF                 2456 	.db #0xFF
   0457 FF                 2457 	.db #0xFF
   0458 FF                 2458 	.db #0xFF
   0459 FF                 2459 	.db #0xFF
   045A FF                 2460 	.db #0xFF
   045B FF                 2461 	.db #0xFF
   045C FF                 2462 	.db #0xFF
   045D FF                 2463 	.db #0xFF
   045E 7C                 2464 	.db #0x7C
   045F FF                 2465 	.db #0xFF
   0460 78                 2466 	.db #0x78
   0461 7C                 2467 	.db #0x7C
   0462 78                 2468 	.db #0x78
   0463 7C                 2469 	.db #0x7C
   0464 78                 2470 	.db #0x78
   0465 7C                 2471 	.db #0x7C
   0466 FF                 2472 	.db #0xFF
   0467 FF                 2473 	.db #0xFF
   0468 FF                 2474 	.db #0xFF
   0469 FF                 2475 	.db #0xFF
   046A FF                 2476 	.db #0xFF
   046B FF                 2477 	.db #0xFF
   046C FF                 2478 	.db #0xFF
   046D FF                 2479 	.db #0xFF
   046E 7F                 2480 	.db #0x7F
   046F FF                 2481 	.db #0xFF
   0470 FF                 2482 	.db #0xFF
   0471 7F                 2483 	.db #0x7F
   0472 FF                 2484 	.db #0xFF
   0473 7F                 2485 	.db #0x7F
   0474 FF                 2486 	.db #0xFF
   0475 7F                 2487 	.db #0x7F
   0476 FF                 2488 	.db #0xFF
   0477 FF                 2489 	.db #0xFF
   0478 FF                 2490 	.db #0xFF
   0479 FF                 2491 	.db #0xFF
   047A FF                 2492 	.db #0xFF
   047B FF                 2493 	.db #0xFF
   047C FF                 2494 	.db #0xFF
   047D FF                 2495 	.db #0xFF
   047E F0                 2496 	.db #0xF0
   047F FF                 2497 	.db #0xFF
   0480 F8                 2498 	.db #0xF8
   0481 F0                 2499 	.db #0xF0
   0482 F8                 2500 	.db #0xF8
   0483 F0                 2501 	.db #0xF0
   0484 F8                 2502 	.db #0xF8
   0485 F0                 2503 	.db #0xF0
   0486 FF                 2504 	.db #0xFF
   0487 FF                 2505 	.db #0xFF
   0488 FF                 2506 	.db #0xFF
   0489 FF                 2507 	.db #0xFF
   048A FF                 2508 	.db #0xFF
   048B FF                 2509 	.db #0xFF
   048C FF                 2510 	.db #0xFF
   048D FF                 2511 	.db #0xFF
   048E 11                 2512 	.db #0x11
   048F FF                 2513 	.db #0xFF
   0490 09                 2514 	.db #0x09
   0491 11                 2515 	.db #0x11
   0492 09                 2516 	.db #0x09
   0493 11                 2517 	.db #0x11
   0494 E9                 2518 	.db #0xE9
   0495 11                 2519 	.db #0x11
   0496 FF                 2520 	.db #0xFF
   0497 FF                 2521 	.db #0xFF
   0498 FF                 2522 	.db #0xFF
   0499 FF                 2523 	.db #0xFF
   049A FF                 2524 	.db #0xFF
   049B FF                 2525 	.db #0xFF
   049C FF                 2526 	.db #0xFF
   049D FF                 2527 	.db #0xFF
   049E C7                 2528 	.db #0xC7
   049F FF                 2529 	.db #0xFF
   04A0 E3                 2530 	.db #0xE3
   04A1 C7                 2531 	.db #0xC7
   04A2 E3                 2532 	.db #0xE3
   04A3 C7                 2533 	.db #0xC7
   04A4 E3                 2534 	.db #0xE3
   04A5 C7                 2535 	.db #0xC7
   04A6 FF                 2536 	.db #0xFF
   04A7 FF                 2537 	.db #0xFF
   04A8 FE                 2538 	.db #0xFE
   04A9 FE                 2539 	.db #0xFE
   04AA FE                 2540 	.db #0xFE
   04AB FE                 2541 	.db #0xFE
   04AC FE                 2542 	.db #0xFE
   04AD FE                 2543 	.db #0xFE
   04AE FE                 2544 	.db #0xFE
   04AF FE                 2545 	.db #0xFE
   04B0 FE                 2546 	.db #0xFE
   04B1 FE                 2547 	.db #0xFE
   04B2 FE                 2548 	.db #0xFE
   04B3 FE                 2549 	.db #0xFE
   04B4 FE                 2550 	.db #0xFE
   04B5 FE                 2551 	.db #0xFE
   04B6 FE                 2552 	.db #0xFE
   04B7 FE                 2553 	.db #0xFE
   04B8 02                 2554 	.db #0x02
   04B9 02                 2555 	.db #0x02
   04BA 02                 2556 	.db #0x02
   04BB 02                 2557 	.db #0x02
   04BC 02                 2558 	.db #0x02
   04BD 02                 2559 	.db #0x02
   04BE 22                 2560 	.db #0x22
   04BF 22                 2561 	.db #0x22
   04C0 22                 2562 	.db #0x22
   04C1 22                 2563 	.db #0x22
   04C2 22                 2564 	.db #0x22
   04C3 22                 2565 	.db #0x22
   04C4 22                 2566 	.db #0x22
   04C5 22                 2567 	.db #0x22
   04C6 7F                 2568 	.db #0x7F
   04C7 3F                 2569 	.db #0x3F
   04C8 1F                 2570 	.db #0x1F
   04C9 0F                 2571 	.db #0x0F
   04CA 1F                 2572 	.db #0x1F
   04CB 0F                 2573 	.db #0x0F
   04CC 1F                 2574 	.db #0x1F
   04CD 0F                 2575 	.db #0x0F
   04CE 7F                 2576 	.db #0x7F
   04CF 3F                 2577 	.db #0x3F
   04D0 7F                 2578 	.db #0x7F
   04D1 3F                 2579 	.db #0x3F
   04D2 7F                 2580 	.db #0x7F
   04D3 3F                 2581 	.db #0x3F
   04D4 7F                 2582 	.db #0x7F
   04D5 3F                 2583 	.db #0x3F
   04D6 FC                 2584 	.db #0xFC
   04D7 FC                 2585 	.db #0xFC
   04D8 FC                 2586 	.db #0xFC
   04D9 FC                 2587 	.db #0xFC
   04DA FC                 2588 	.db #0xFC
   04DB FC                 2589 	.db #0xFC
   04DC FC                 2590 	.db #0xFC
   04DD FC                 2591 	.db #0xFC
   04DE FC                 2592 	.db #0xFC
   04DF FC                 2593 	.db #0xFC
   04E0 FC                 2594 	.db #0xFC
   04E1 FC                 2595 	.db #0xFC
   04E2 FC                 2596 	.db #0xFC
   04E3 FC                 2597 	.db #0xFC
   04E4 FC                 2598 	.db #0xFC
   04E5 FC                 2599 	.db #0xFC
   04E6 78                 2600 	.db #0x78
   04E7 7C                 2601 	.db #0x7C
   04E8 08                 2602 	.db #0x08
   04E9 04                 2603 	.db #0x04
   04EA 08                 2604 	.db #0x08
   04EB 04                 2605 	.db #0x04
   04EC 08                 2606 	.db #0x08
   04ED 04                 2607 	.db #0x04
   04EE 78                 2608 	.db #0x78
   04EF 7C                 2609 	.db #0x7C
   04F0 48                 2610 	.db #0x48
   04F1 44                 2611 	.db #0x44
   04F2 48                 2612 	.db #0x48
   04F3 44                 2613 	.db #0x44
   04F4 48                 2614 	.db #0x48
   04F5 44                 2615 	.db #0x44
   04F6 FF                 2616 	.db #0xFF
   04F7 7F                 2617 	.db #0x7F
   04F8 0C                 2618 	.db #0x0C
   04F9 00                 2619 	.db #0x00
   04FA 0C                 2620 	.db #0x0C
   04FB 00                 2621 	.db #0x00
   04FC 0C                 2622 	.db #0x0C
   04FD 00                 2623 	.db #0x00
   04FE CC                 2624 	.db #0xCC
   04FF 00                 2625 	.db #0x00
   0500 CC                 2626 	.db #0xCC
   0501 00                 2627 	.db #0x00
   0502 CC                 2628 	.db #0xCC
   0503 00                 2629 	.db #0x00
   0504 CC                 2630 	.db #0xCC
   0505 00                 2631 	.db #0x00
   0506 FF                 2632 	.db #0xFF
   0507 FF                 2633 	.db #0xFF
   0508 0F                 2634 	.db #0x0F
   0509 0F                 2635 	.db #0x0F
   050A 0F                 2636 	.db #0x0F
   050B 0F                 2637 	.db #0x0F
   050C 0F                 2638 	.db #0x0F
   050D 0F                 2639 	.db #0x0F
   050E 4F                 2640 	.db #0x4F
   050F 8F                 2641 	.db #0x8F
   0510 0F                 2642 	.db #0x0F
   0511 0F                 2643 	.db #0x0F
   0512 0F                 2644 	.db #0x0F
   0513 0F                 2645 	.db #0x0F
   0514 0F                 2646 	.db #0x0F
   0515 0F                 2647 	.db #0x0F
   0516 F9                 2648 	.db #0xF9
   0517 F0                 2649 	.db #0xF0
   0518 F8                 2650 	.db #0xF8
   0519 F0                 2651 	.db #0xF0
   051A F8                 2652 	.db #0xF8
   051B F0                 2653 	.db #0xF0
   051C F8                 2654 	.db #0xF8
   051D F0                 2655 	.db #0xF0
   051E F9                 2656 	.db #0xF9
   051F F0                 2657 	.db #0xF0
   0520 F9                 2658 	.db #0xF9
   0521 F0                 2659 	.db #0xF0
   0522 F9                 2660 	.db #0xF9
   0523 F0                 2661 	.db #0xF0
   0524 F9                 2662 	.db #0xF9
   0525 F0                 2663 	.db #0xF0
   0526 F9                 2664 	.db #0xF9
   0527 F1                 2665 	.db #0xF1
   0528 09                 2666 	.db #0x09
   0529 11                 2667 	.db #0x11
   052A 09                 2668 	.db #0x09
   052B 11                 2669 	.db #0x11
   052C 09                 2670 	.db #0x09
   052D 11                 2671 	.db #0x11
   052E F9                 2672 	.db #0xF9
   052F F1                 2673 	.db #0xF1
   0530 89                 2674 	.db #0x89
   0531 11                 2675 	.db #0x11
   0532 89                 2676 	.db #0x89
   0533 11                 2677 	.db #0x11
   0534 89                 2678 	.db #0x89
   0535 11                 2679 	.db #0x11
   0536 FF                 2680 	.db #0xFF
   0537 FF                 2681 	.db #0xFF
   0538 03                 2682 	.db #0x03
   0539 00                 2683 	.db #0x00
   053A 01                 2684 	.db #0x01
   053B 00                 2685 	.db #0x00
   053C 01                 2686 	.db #0x01
   053D 00                 2687 	.db #0x00
   053E 11                 2688 	.db #0x11
   053F 10                 2689 	.db #0x10
   0540 01                 2690 	.db #0x01
   0541 00                 2691 	.db #0x00
   0542 01                 2692 	.db #0x01
   0543 00                 2693 	.db #0x00
   0544 03                 2694 	.db #0x03
   0545 00                 2695 	.db #0x00
   0546 FF                 2696 	.db #0xFF
   0547 FF                 2697 	.db #0xFF
   0548 04                 2698 	.db #0x04
   0549 08                 2699 	.db #0x08
   054A 00                 2700 	.db #0x00
   054B 00                 2701 	.db #0x00
   054C 00                 2702 	.db #0x00
   054D 00                 2703 	.db #0x00
   054E 22                 2704 	.db #0x22
   054F 00                 2705 	.db #0x00
   0550 10                 2706 	.db #0x10
   0551 22                 2707 	.db #0x22
   0552 10                 2708 	.db #0x10
   0553 22                 2709 	.db #0x22
   0554 10                 2710 	.db #0x10
   0555 22                 2711 	.db #0x22
   0556 FF                 2712 	.db #0xFF
   0557 FF                 2713 	.db #0xFF
   0558 20                 2714 	.db #0x20
   0559 20                 2715 	.db #0x20
   055A 20                 2716 	.db #0x20
   055B 20                 2717 	.db #0x20
   055C 20                 2718 	.db #0x20
   055D 20                 2719 	.db #0x20
   055E 22                 2720 	.db #0x22
   055F 22                 2721 	.db #0x22
   0560 20                 2722 	.db #0x20
   0561 20                 2723 	.db #0x20
   0562 20                 2724 	.db #0x20
   0563 20                 2725 	.db #0x20
   0564 20                 2726 	.db #0x20
   0565 20                 2727 	.db #0x20
   0566 FF                 2728 	.db #0xFF
   0567 FF                 2729 	.db #0xFF
   0568 40                 2730 	.db #0x40
   0569 20                 2731 	.db #0x20
   056A 40                 2732 	.db #0x40
   056B 20                 2733 	.db #0x20
   056C 40                 2734 	.db #0x40
   056D 20                 2735 	.db #0x20
   056E 44                 2736 	.db #0x44
   056F 22                 2737 	.db #0x22
   0570 44                 2738 	.db #0x44
   0571 22                 2739 	.db #0x22
   0572 44                 2740 	.db #0x44
   0573 22                 2741 	.db #0x22
   0574 44                 2742 	.db #0x44
   0575 22                 2743 	.db #0x22
   0576 E3                 2744 	.db #0xE3
   0577 C7                 2745 	.db #0xC7
   0578 60                 2746 	.db #0x60
   0579 00                 2747 	.db #0x00
   057A 60                 2748 	.db #0x60
   057B 00                 2749 	.db #0x00
   057C 60                 2750 	.db #0x60
   057D 00                 2751 	.db #0x00
   057E 63                 2752 	.db #0x63
   057F 07                 2753 	.db #0x07
   0580 62                 2754 	.db #0x62
   0581 04                 2755 	.db #0x04
   0582 62                 2756 	.db #0x62
   0583 04                 2757 	.db #0x04
   0584 62                 2758 	.db #0x62
   0585 04                 2759 	.db #0x04
   0586 FF                 2760 	.db #0xFF
   0587 FF                 2761 	.db #0xFF
   0588 20                 2762 	.db #0x20
   0589 40                 2763 	.db #0x40
   058A 00                 2764 	.db #0x00
   058B 40                 2765 	.db #0x40
   058C 00                 2766 	.db #0x00
   058D 40                 2767 	.db #0x40
   058E C7                 2768 	.db #0xC7
   058F C7                 2769 	.db #0xC7
   0590 00                 2770 	.db #0x00
   0591 40                 2771 	.db #0x40
   0592 00                 2772 	.db #0x00
   0593 40                 2773 	.db #0x40
   0594 20                 2774 	.db #0x20
   0595 40                 2775 	.db #0x40
   0596 FF                 2776 	.db #0xFF
   0597 FF                 2777 	.db #0xFF
   0598 7F                 2778 	.db #0x7F
   0599 7F                 2779 	.db #0x7F
   059A 7F                 2780 	.db #0x7F
   059B 7F                 2781 	.db #0x7F
   059C FF                 2782 	.db #0xFF
   059D 7F                 2783 	.db #0x7F
   059E FF                 2784 	.db #0xFF
   059F FF                 2785 	.db #0xFF
   05A0 FF                 2786 	.db #0xFF
   05A1 7F                 2787 	.db #0x7F
   05A2 7F                 2788 	.db #0x7F
   05A3 7F                 2789 	.db #0x7F
   05A4 7F                 2790 	.db #0x7F
   05A5 7F                 2791 	.db #0x7F
   05A6 FE                 2792 	.db #0xFE
   05A7 FE                 2793 	.db #0xFE
   05A8 FE                 2794 	.db #0xFE
   05A9 FE                 2795 	.db #0xFE
   05AA FE                 2796 	.db #0xFE
   05AB FE                 2797 	.db #0xFE
   05AC FE                 2798 	.db #0xFE
   05AD FE                 2799 	.db #0xFE
   05AE FF                 2800 	.db #0xFF
   05AF FF                 2801 	.db #0xFF
   05B0 FF                 2802 	.db #0xFF
   05B1 FF                 2803 	.db #0xFF
   05B2 FF                 2804 	.db #0xFF
   05B3 FF                 2805 	.db #0xFF
   05B4 FF                 2806 	.db #0xFF
   05B5 FF                 2807 	.db #0xFF
   05B6 22                 2808 	.db #0x22
   05B7 22                 2809 	.db #0x22
   05B8 02                 2810 	.db #0x02
   05B9 02                 2811 	.db #0x02
   05BA 02                 2812 	.db #0x02
   05BB 02                 2813 	.db #0x02
   05BC 02                 2814 	.db #0x02
   05BD 02                 2815 	.db #0x02
   05BE FF                 2816 	.db #0xFF
   05BF FF                 2817 	.db #0xFF
   05C0 FF                 2818 	.db #0xFF
   05C1 FF                 2819 	.db #0xFF
   05C2 FF                 2820 	.db #0xFF
   05C3 FF                 2821 	.db #0xFF
   05C4 FF                 2822 	.db #0xFF
   05C5 FF                 2823 	.db #0xFF
   05C6 7F                 2824 	.db #0x7F
   05C7 3F                 2825 	.db #0x3F
   05C8 7F                 2826 	.db #0x7F
   05C9 3F                 2827 	.db #0x3F
   05CA 7F                 2828 	.db #0x7F
   05CB 3F                 2829 	.db #0x3F
   05CC 7F                 2830 	.db #0x7F
   05CD 3F                 2831 	.db #0x3F
   05CE FF                 2832 	.db #0xFF
   05CF FF                 2833 	.db #0xFF
   05D0 FF                 2834 	.db #0xFF
   05D1 FF                 2835 	.db #0xFF
   05D2 FF                 2836 	.db #0xFF
   05D3 FF                 2837 	.db #0xFF
   05D4 FF                 2838 	.db #0xFF
   05D5 FF                 2839 	.db #0xFF
   05D6 FC                 2840 	.db #0xFC
   05D7 FC                 2841 	.db #0xFC
   05D8 FC                 2842 	.db #0xFC
   05D9 FC                 2843 	.db #0xFC
   05DA FC                 2844 	.db #0xFC
   05DB FC                 2845 	.db #0xFC
   05DC FC                 2846 	.db #0xFC
   05DD FC                 2847 	.db #0xFC
   05DE FF                 2848 	.db #0xFF
   05DF FF                 2849 	.db #0xFF
   05E0 FF                 2850 	.db #0xFF
   05E1 FF                 2851 	.db #0xFF
   05E2 FF                 2852 	.db #0xFF
   05E3 FF                 2853 	.db #0xFF
   05E4 FF                 2854 	.db #0xFF
   05E5 FF                 2855 	.db #0xFF
   05E6 48                 2856 	.db #0x48
   05E7 44                 2857 	.db #0x44
   05E8 08                 2858 	.db #0x08
   05E9 04                 2859 	.db #0x04
   05EA 08                 2860 	.db #0x08
   05EB 04                 2861 	.db #0x04
   05EC 08                 2862 	.db #0x08
   05ED 04                 2863 	.db #0x04
   05EE FF                 2864 	.db #0xFF
   05EF FF                 2865 	.db #0xFF
   05F0 FF                 2866 	.db #0xFF
   05F1 FF                 2867 	.db #0xFF
   05F2 FF                 2868 	.db #0xFF
   05F3 FF                 2869 	.db #0xFF
   05F4 FF                 2870 	.db #0xFF
   05F5 FF                 2871 	.db #0xFF
   05F6 CC                 2872 	.db #0xCC
   05F7 00                 2873 	.db #0x00
   05F8 CC                 2874 	.db #0xCC
   05F9 00                 2875 	.db #0x00
   05FA CC                 2876 	.db #0xCC
   05FB 00                 2877 	.db #0x00
   05FC CC                 2878 	.db #0xCC
   05FD 00                 2879 	.db #0x00
   05FE FF                 2880 	.db #0xFF
   05FF FF                 2881 	.db #0xFF
   0600 FF                 2882 	.db #0xFF
   0601 FF                 2883 	.db #0xFF
   0602 FF                 2884 	.db #0xFF
   0603 FF                 2885 	.db #0xFF
   0604 FF                 2886 	.db #0xFF
   0605 FF                 2887 	.db #0xFF
   0606 7F                 2888 	.db #0x7F
   0607 FF                 2889 	.db #0xFF
   0608 0F                 2890 	.db #0x0F
   0609 0F                 2891 	.db #0x0F
   060A 0F                 2892 	.db #0x0F
   060B 0F                 2893 	.db #0x0F
   060C 0F                 2894 	.db #0x0F
   060D 0F                 2895 	.db #0x0F
   060E FF                 2896 	.db #0xFF
   060F FF                 2897 	.db #0xFF
   0610 FF                 2898 	.db #0xFF
   0611 FF                 2899 	.db #0xFF
   0612 FF                 2900 	.db #0xFF
   0613 FF                 2901 	.db #0xFF
   0614 FF                 2902 	.db #0xFF
   0615 FF                 2903 	.db #0xFF
   0616 F9                 2904 	.db #0xF9
   0617 F0                 2905 	.db #0xF0
   0618 F8                 2906 	.db #0xF8
   0619 F0                 2907 	.db #0xF0
   061A F8                 2908 	.db #0xF8
   061B F0                 2909 	.db #0xF0
   061C F8                 2910 	.db #0xF8
   061D F0                 2911 	.db #0xF0
   061E FF                 2912 	.db #0xFF
   061F FF                 2913 	.db #0xFF
   0620 FF                 2914 	.db #0xFF
   0621 FF                 2915 	.db #0xFF
   0622 FF                 2916 	.db #0xFF
   0623 FF                 2917 	.db #0xFF
   0624 FF                 2918 	.db #0xFF
   0625 FF                 2919 	.db #0xFF
   0626 89                 2920 	.db #0x89
   0627 11                 2921 	.db #0x11
   0628 09                 2922 	.db #0x09
   0629 11                 2923 	.db #0x11
   062A 09                 2924 	.db #0x09
   062B 11                 2925 	.db #0x11
   062C 09                 2926 	.db #0x09
   062D 11                 2927 	.db #0x11
   062E FF                 2928 	.db #0xFF
   062F FF                 2929 	.db #0xFF
   0630 FF                 2930 	.db #0xFF
   0631 FF                 2931 	.db #0xFF
   0632 FF                 2932 	.db #0xFF
   0633 FF                 2933 	.db #0xFF
   0634 FF                 2934 	.db #0xFF
   0635 FF                 2935 	.db #0xFF
   0636 1F                 2936 	.db #0x1F
   0637 1E                 2937 	.db #0x1E
   0638 03                 2938 	.db #0x03
   0639 00                 2939 	.db #0x00
   063A 01                 2940 	.db #0x01
   063B 00                 2941 	.db #0x00
   063C 03                 2942 	.db #0x03
   063D 00                 2943 	.db #0x00
   063E FF                 2944 	.db #0xFF
   063F FF                 2945 	.db #0xFF
   0640 FF                 2946 	.db #0xFF
   0641 FF                 2947 	.db #0xFF
   0642 FF                 2948 	.db #0xFF
   0643 FF                 2949 	.db #0xFF
   0644 FF                 2950 	.db #0xFF
   0645 FF                 2951 	.db #0xFF
   0646 10                 2952 	.db #0x10
   0647 22                 2953 	.db #0x22
   0648 10                 2954 	.db #0x10
   0649 22                 2955 	.db #0x22
   064A 10                 2956 	.db #0x10
   064B 22                 2957 	.db #0x22
   064C 11                 2958 	.db #0x11
   064D 22                 2959 	.db #0x22
   064E FF                 2960 	.db #0xFF
   064F FF                 2961 	.db #0xFF
   0650 FF                 2962 	.db #0xFF
   0651 FF                 2963 	.db #0xFF
   0652 FF                 2964 	.db #0xFF
   0653 FF                 2965 	.db #0xFF
   0654 FF                 2966 	.db #0xFF
   0655 FF                 2967 	.db #0xFF
   0656 23                 2968 	.db #0x23
   0657 23                 2969 	.db #0x23
   0658 20                 2970 	.db #0x20
   0659 20                 2971 	.db #0x20
   065A 20                 2972 	.db #0x20
   065B 20                 2973 	.db #0x20
   065C 20                 2974 	.db #0x20
   065D 20                 2975 	.db #0x20
   065E FF                 2976 	.db #0xFF
   065F FF                 2977 	.db #0xFF
   0660 FF                 2978 	.db #0xFF
   0661 FF                 2979 	.db #0xFF
   0662 FF                 2980 	.db #0xFF
   0663 FF                 2981 	.db #0xFF
   0664 FF                 2982 	.db #0xFF
   0665 FF                 2983 	.db #0xFF
   0666 C4                 2984 	.db #0xC4
   0667 E2                 2985 	.db #0xE2
   0668 44                 2986 	.db #0x44
   0669 22                 2987 	.db #0x22
   066A 44                 2988 	.db #0x44
   066B 22                 2989 	.db #0x22
   066C 44                 2990 	.db #0x44
   066D 22                 2991 	.db #0x22
   066E FF                 2992 	.db #0xFF
   066F FF                 2993 	.db #0xFF
   0670 FF                 2994 	.db #0xFF
   0671 FF                 2995 	.db #0xFF
   0672 FF                 2996 	.db #0xFF
   0673 FF                 2997 	.db #0xFF
   0674 FF                 2998 	.db #0xFF
   0675 FF                 2999 	.db #0xFF
   0676 62                 3000 	.db #0x62
   0677 04                 3001 	.db #0x04
   0678 60                 3002 	.db #0x60
   0679 00                 3003 	.db #0x00
   067A 60                 3004 	.db #0x60
   067B 00                 3005 	.db #0x00
   067C 60                 3006 	.db #0x60
   067D 00                 3007 	.db #0x00
   067E FF                 3008 	.db #0xFF
   067F FF                 3009 	.db #0xFF
   0680 FF                 3010 	.db #0xFF
   0681 FF                 3011 	.db #0xFF
   0682 FF                 3012 	.db #0xFF
   0683 FF                 3013 	.db #0xFF
   0684 FF                 3014 	.db #0xFF
   0685 FF                 3015 	.db #0xFF
   0686 3C                 3016 	.db #0x3C
   0687 7C                 3017 	.db #0x7C
   0688 20                 3018 	.db #0x20
   0689 40                 3019 	.db #0x40
   068A 00                 3020 	.db #0x00
   068B 40                 3021 	.db #0x40
   068C 20                 3022 	.db #0x20
   068D 40                 3023 	.db #0x40
   068E FF                 3024 	.db #0xFF
   068F FF                 3025 	.db #0xFF
   0690 FF                 3026 	.db #0xFF
   0691 FF                 3027 	.db #0xFF
   0692 FF                 3028 	.db #0xFF
   0693 FF                 3029 	.db #0xFF
   0694 FF                 3030 	.db #0xFF
   0695 FF                 3031 	.db #0xFF
   0696 7F                 3032 	.db #0x7F
   0697 7F                 3033 	.db #0x7F
   0698 7F                 3034 	.db #0x7F
   0699 7F                 3035 	.db #0x7F
   069A 7F                 3036 	.db #0x7F
   069B 7F                 3037 	.db #0x7F
   069C 7F                 3038 	.db #0x7F
   069D 7F                 3039 	.db #0x7F
   069E FF                 3040 	.db #0xFF
   069F FF                 3041 	.db #0xFF
   06A0 FF                 3042 	.db #0xFF
   06A1 FF                 3043 	.db #0xFF
   06A2 FF                 3044 	.db #0xFF
   06A3 FF                 3045 	.db #0xFF
   06A4 FF                 3046 	.db #0xFF
   06A5 FF                 3047 	.db #0xFF
   06A6 FF                 3048 	.db #0xFF
   06A7 FF                 3049 	.db #0xFF
   06A8 FF                 3050 	.db #0xFF
   06A9 FF                 3051 	.db #0xFF
   06AA FF                 3052 	.db #0xFF
   06AB FF                 3053 	.db #0xFF
   06AC FF                 3054 	.db #0xFF
   06AD FF                 3055 	.db #0xFF
   06AE FB                 3056 	.db #0xFB
   06AF FB                 3057 	.db #0xFB
   06B0 F5                 3058 	.db #0xF5
   06B1 F1                 3059 	.db #0xF1
   06B2 F1                 3060 	.db #0xF1
   06B3 F1                 3061 	.db #0xF1
   06B4 F5                 3062 	.db #0xF5
   06B5 F1                 3063 	.db #0xF1
   06B6 FF                 3064 	.db #0xFF
   06B7 FF                 3065 	.db #0xFF
   06B8 FF                 3066 	.db #0xFF
   06B9 FF                 3067 	.db #0xFF
   06BA FF                 3068 	.db #0xFF
   06BB FF                 3069 	.db #0xFF
   06BC FF                 3070 	.db #0xFF
   06BD FF                 3071 	.db #0xFF
   06BE 8E                 3072 	.db #0x8E
   06BF 8E                 3073 	.db #0x8E
   06C0 BD                 3074 	.db #0xBD
   06C1 9C                 3075 	.db #0x9C
   06C2 A4                 3076 	.db #0xA4
   06C3 84                 3077 	.db #0x84
   06C4 AD                 3078 	.db #0xAD
   06C5 8C                 3079 	.db #0x8C
   06C6 FF                 3080 	.db #0xFF
   06C7 FF                 3081 	.db #0xFF
   06C8 FF                 3082 	.db #0xFF
   06C9 FF                 3083 	.db #0xFF
   06CA FF                 3084 	.db #0xFF
   06CB FF                 3085 	.db #0xFF
   06CC FF                 3086 	.db #0xFF
   06CD FF                 3087 	.db #0xFF
   06CE C9                 3088 	.db #0xC9
   06CF C9                 3089 	.db #0xC9
   06D0 55                 3090 	.db #0x55
   06D1 45                 3091 	.db #0x45
   06D2 5D                 3092 	.db #0x5D
   06D3 4D                 3093 	.db #0x4D
   06D4 5D                 3094 	.db #0x5D
   06D5 4D                 3095 	.db #0x4D
   06D6 FF                 3096 	.db #0xFF
   06D7 FF                 3097 	.db #0xFF
   06D8 FF                 3098 	.db #0xFF
   06D9 FF                 3099 	.db #0xFF
   06DA FF                 3100 	.db #0xFF
   06DB FF                 3101 	.db #0xFF
   06DC FF                 3102 	.db #0xFF
   06DD FF                 3103 	.db #0xFF
   06DE 18                 3104 	.db #0x18
   06DF 18                 3105 	.db #0x18
   06E0 7A                 3106 	.db #0x7A
   06E1 38                 3107 	.db #0x38
   06E2 19                 3108 	.db #0x19
   06E3 19                 3109 	.db #0x19
   06E4 7A                 3110 	.db #0x7A
   06E5 38                 3111 	.db #0x38
   06E6 FF                 3112 	.db #0xFF
   06E7 FF                 3113 	.db #0xFF
   06E8 FF                 3114 	.db #0xFF
   06E9 FF                 3115 	.db #0xFF
   06EA FF                 3116 	.db #0xFF
   06EB FF                 3117 	.db #0xFF
   06EC FF                 3118 	.db #0xFF
   06ED FF                 3119 	.db #0xFF
   06EE FF                 3120 	.db #0xFF
   06EF FF                 3121 	.db #0xFF
   06F0 5F                 3122 	.db #0x5F
   06F1 5F                 3123 	.db #0x5F
   06F2 B7                 3124 	.db #0xB7
   06F3 93                 3125 	.db #0x93
   06F4 BF                 3126 	.db #0xBF
   06F5 9F                 3127 	.db #0x9F
   06F6 FF                 3128 	.db #0xFF
   06F7 FF                 3129 	.db #0xFF
   06F8 FF                 3130 	.db #0xFF
   06F9 FF                 3131 	.db #0xFF
   06FA FF                 3132 	.db #0xFF
   06FB FF                 3133 	.db #0xFF
   06FC FF                 3134 	.db #0xFF
   06FD FF                 3135 	.db #0xFF
   06FE 8D                 3136 	.db #0x8D
   06FF 8C                 3137 	.db #0x8C
   0700 B7                 3138 	.db #0xB7
   0701 97                 3139 	.db #0x97
   0702 B5                 3140 	.db #0xB5
   0703 94                 3141 	.db #0x94
   0704 B5                 3142 	.db #0xB5
   0705 94                 3143 	.db #0x94
   0706 FF                 3144 	.db #0xFF
   0707 FF                 3145 	.db #0xFF
   0708 FF                 3146 	.db #0xFF
   0709 FF                 3147 	.db #0xFF
   070A FF                 3148 	.db #0xFF
   070B FF                 3149 	.db #0xFF
   070C FF                 3150 	.db #0xFF
   070D FF                 3151 	.db #0xFF
   070E B3                 3152 	.db #0xB3
   070F B3                 3153 	.db #0xB3
   0710 55                 3154 	.db #0x55
   0711 11                 3155 	.db #0x11
   0712 15                 3156 	.db #0x15
   0713 11                 3157 	.db #0x11
   0714 55                 3158 	.db #0x55
   0715 11                 3159 	.db #0x11
   0716 FF                 3160 	.db #0xFF
   0717 FF                 3161 	.db #0xFF
   0718 FF                 3162 	.db #0xFF
   0719 FF                 3163 	.db #0xFF
   071A FF                 3164 	.db #0xFF
   071B FF                 3165 	.db #0xFF
   071C FF                 3166 	.db #0xFF
   071D FF                 3167 	.db #0xFF
   071E BA                 3168 	.db #0xBA
   071F B8                 3169 	.db #0xB8
   0720 5A                 3170 	.db #0x5A
   0721 18                 3171 	.db #0x18
   0722 18                 3172 	.db #0x18
   0723 18                 3173 	.db #0x18
   0724 5A                 3174 	.db #0x5A
   0725 18                 3175 	.db #0x18
   0726 FF                 3176 	.db #0xFF
   0727 FF                 3177 	.db #0xFF
   0728 FF                 3178 	.db #0xFF
   0729 FF                 3179 	.db #0xFF
   072A FF                 3180 	.db #0xFF
   072B FF                 3181 	.db #0xFF
   072C FF                 3182 	.db #0xFF
   072D FF                 3183 	.db #0xFF
   072E DA                 3184 	.db #0xDA
   072F D8                 3185 	.db #0xD8
   0730 AA                 3186 	.db #0xAA
   0731 88                 3187 	.db #0x88
   0732 89                 3188 	.db #0x89
   0733 89                 3189 	.db #0x89
   0734 AA                 3190 	.db #0xAA
   0735 88                 3191 	.db #0x88
   0736 FF                 3192 	.db #0xFF
   0737 FF                 3193 	.db #0xFF
   0738 FF                 3194 	.db #0xFF
   0739 FF                 3195 	.db #0xFF
   073A FF                 3196 	.db #0xFF
   073B FF                 3197 	.db #0xFF
   073C FF                 3198 	.db #0xFF
   073D FF                 3199 	.db #0xFF
   073E 89                 3200 	.db #0x89
   073F 89                 3201 	.db #0x89
   0740 DA                 3202 	.db #0xDA
   0741 C8                 3203 	.db #0xC8
   0742 DB                 3204 	.db #0xDB
   0743 C9                 3205 	.db #0xC9
   0744 DB                 3206 	.db #0xDB
   0745 C9                 3207 	.db #0xC9
   0746 FF                 3208 	.db #0xFF
   0747 FF                 3209 	.db #0xFF
   0748 FF                 3210 	.db #0xFF
   0749 FF                 3211 	.db #0xFF
   074A FF                 3212 	.db #0xFF
   074B FF                 3213 	.db #0xFF
   074C FF                 3214 	.db #0xFF
   074D FF                 3215 	.db #0xFF
   074E 3D                 3216 	.db #0x3D
   074F 1D                 3217 	.db #0x1D
   0750 BA                 3218 	.db #0xBA
   0751 98                 3219 	.db #0x98
   0752 BC                 3220 	.db #0xBC
   0753 9C                 3221 	.db #0x9C
   0754 BB                 3222 	.db #0xBB
   0755 98                 3223 	.db #0x98
   0756 FF                 3224 	.db #0xFF
   0757 FF                 3225 	.db #0xFF
   0758 FF                 3226 	.db #0xFF
   0759 FF                 3227 	.db #0xFF
   075A FF                 3228 	.db #0xFF
   075B FF                 3229 	.db #0xFF
   075C FF                 3230 	.db #0xFF
   075D FF                 3231 	.db #0xFF
   075E F1                 3232 	.db #0xF1
   075F F1                 3233 	.db #0xF1
   0760 F6                 3234 	.db #0xF6
   0761 F2                 3235 	.db #0xF2
   0762 B1                 3236 	.db #0xB1
   0763 B1                 3237 	.db #0xB1
   0764 77                 3238 	.db #0x77
   0765 73                 3239 	.db #0x73
   0766 FF                 3240 	.db #0xFF
   0767 FF                 3241 	.db #0xFF
   0768 FF                 3242 	.db #0xFF
   0769 FF                 3243 	.db #0xFF
   076A FF                 3244 	.db #0xFF
   076B FF                 3245 	.db #0xFF
   076C FF                 3246 	.db #0xFF
   076D FF                 3247 	.db #0xFF
   076E 8D                 3248 	.db #0x8D
   076F 8D                 3249 	.db #0x8D
   0770 BA                 3250 	.db #0xBA
   0771 98                 3251 	.db #0x98
   0772 88                 3252 	.db #0x88
   0773 88                 3253 	.db #0x88
   0774 BA                 3254 	.db #0xBA
   0775 98                 3255 	.db #0x98
   0776 FF                 3256 	.db #0xFF
   0777 FF                 3257 	.db #0xFF
   0778 FF                 3258 	.db #0xFF
   0779 FF                 3259 	.db #0xFF
   077A FF                 3260 	.db #0xFF
   077B FF                 3261 	.db #0xFF
   077C FF                 3262 	.db #0xFF
   077D FF                 3263 	.db #0xFF
   077E 98                 3264 	.db #0x98
   077F 98                 3265 	.db #0x98
   0780 AB                 3266 	.db #0xAB
   0781 89                 3267 	.db #0x89
   0782 9C                 3268 	.db #0x9C
   0783 9C                 3269 	.db #0x9C
   0784 AE                 3270 	.db #0xAE
   0785 8E                 3271 	.db #0x8E
   0786 FF                 3272 	.db #0xFF
   0787 FF                 3273 	.db #0xFF
   0788 FF                 3274 	.db #0xFF
   0789 FF                 3275 	.db #0xFF
   078A FF                 3276 	.db #0xFF
   078B FF                 3277 	.db #0xFF
   078C FF                 3278 	.db #0xFF
   078D FF                 3279 	.db #0xFF
   078E D9                 3280 	.db #0xD9
   078F D9                 3281 	.db #0xD9
   0790 A9                 3282 	.db #0xA9
   0791 89                 3283 	.db #0x89
   0792 AA                 3284 	.db #0xAA
   0793 88                 3285 	.db #0x88
   0794 AA                 3286 	.db #0xAA
   0795 88                 3287 	.db #0x88
   0796 FF                 3288 	.db #0xFF
   0797 FF                 3289 	.db #0xFF
   0798 FF                 3290 	.db #0xFF
   0799 FF                 3291 	.db #0xFF
   079A FF                 3292 	.db #0xFF
   079B FF                 3293 	.db #0xFF
   079C FF                 3294 	.db #0xFF
   079D FF                 3295 	.db #0xFF
   079E 63                 3296 	.db #0x63
   079F 63                 3297 	.db #0x63
   07A0 6E                 3298 	.db #0x6E
   07A1 66                 3299 	.db #0x66
   07A2 66                 3300 	.db #0x66
   07A3 66                 3301 	.db #0x66
   07A4 6E                 3302 	.db #0x6E
   07A5 66                 3303 	.db #0x66
   07A6 FF                 3304 	.db #0xFF
   07A7 FF                 3305 	.db #0xFF
   07A8 FF                 3306 	.db #0xFF
   07A9 FF                 3307 	.db #0xFF
   07AA FF                 3308 	.db #0xFF
   07AB FF                 3309 	.db #0xFF
   07AC FF                 3310 	.db #0xFF
   07AD FF                 3311 	.db #0xFF
   07AE 6D                 3312 	.db #0x6D
   07AF 64                 3313 	.db #0x64
   07B0 AD                 3314 	.db #0xAD
   07B1 24                 3315 	.db #0x24
   07B2 2D                 3316 	.db #0x2D
   07B3 24                 3317 	.db #0x24
   07B4 AD                 3318 	.db #0xAD
   07B5 24                 3319 	.db #0x24
   07B6 FF                 3320 	.db #0xFF
   07B7 FF                 3321 	.db #0xFF
   07B8 FF                 3322 	.db #0xFF
   07B9 FF                 3323 	.db #0xFF
   07BA FF                 3324 	.db #0xFF
   07BB FF                 3325 	.db #0xFF
   07BC FF                 3326 	.db #0xFF
   07BD FF                 3327 	.db #0xFF
   07BE 8F                 3328 	.db #0x8F
   07BF 8F                 3329 	.db #0x8F
   07C0 BF                 3330 	.db #0xBF
   07C1 9F                 3331 	.db #0x9F
   07C2 CF                 3332 	.db #0xCF
   07C3 CF                 3333 	.db #0xCF
   07C4 EF                 3334 	.db #0xEF
   07C5 EF                 3335 	.db #0xEF
   07C6 F5                 3336 	.db #0xF5
   07C7 F1                 3337 	.db #0xF1
   07C8 FF                 3338 	.db #0xFF
   07C9 FF                 3339 	.db #0xFF
   07CA FF                 3340 	.db #0xFF
   07CB FF                 3341 	.db #0xFF
   07CC FF                 3342 	.db #0xFF
   07CD FF                 3343 	.db #0xFF
   07CE FF                 3344 	.db #0xFF
   07CF FF                 3345 	.db #0xFF
   07D0 FF                 3346 	.db #0xFF
   07D1 FF                 3347 	.db #0xFF
   07D2 FF                 3348 	.db #0xFF
   07D3 FF                 3349 	.db #0xFF
   07D4 FF                 3350 	.db #0xFF
   07D5 FF                 3351 	.db #0xFF
   07D6 8D                 3352 	.db #0x8D
   07D7 8C                 3353 	.db #0x8C
   07D8 FF                 3354 	.db #0xFF
   07D9 FF                 3355 	.db #0xFF
   07DA FF                 3356 	.db #0xFF
   07DB FF                 3357 	.db #0xFF
   07DC FF                 3358 	.db #0xFF
   07DD FF                 3359 	.db #0xFF
   07DE FF                 3360 	.db #0xFF
   07DF FF                 3361 	.db #0xFF
   07E0 FF                 3362 	.db #0xFF
   07E1 FF                 3363 	.db #0xFF
   07E2 FF                 3364 	.db #0xFF
   07E3 FF                 3365 	.db #0xFF
   07E4 FF                 3366 	.db #0xFF
   07E5 FF                 3367 	.db #0xFF
   07E6 5D                 3368 	.db #0x5D
   07E7 4D                 3369 	.db #0x4D
   07E8 FF                 3370 	.db #0xFF
   07E9 FF                 3371 	.db #0xFF
   07EA FF                 3372 	.db #0xFF
   07EB FF                 3373 	.db #0xFF
   07EC FF                 3374 	.db #0xFF
   07ED FF                 3375 	.db #0xFF
   07EE FF                 3376 	.db #0xFF
   07EF FF                 3377 	.db #0xFF
   07F0 FF                 3378 	.db #0xFF
   07F1 FF                 3379 	.db #0xFF
   07F2 FF                 3380 	.db #0xFF
   07F3 FF                 3381 	.db #0xFF
   07F4 FF                 3382 	.db #0xFF
   07F5 FF                 3383 	.db #0xFF
   07F6 18                 3384 	.db #0x18
   07F7 18                 3385 	.db #0x18
   07F8 FF                 3386 	.db #0xFF
   07F9 FF                 3387 	.db #0xFF
   07FA FF                 3388 	.db #0xFF
   07FB FF                 3389 	.db #0xFF
   07FC FF                 3390 	.db #0xFF
   07FD FF                 3391 	.db #0xFF
   07FE FF                 3392 	.db #0xFF
   07FF FF                 3393 	.db #0xFF
   0800 FF                 3394 	.db #0xFF
   0801 FF                 3395 	.db #0xFF
   0802 FF                 3396 	.db #0xFF
   0803 FF                 3397 	.db #0xFF
   0804 FF                 3398 	.db #0xFF
   0805 FF                 3399 	.db #0xFF
   0806 B7                 3400 	.db #0xB7
   0807 93                 3401 	.db #0x93
   0808 FF                 3402 	.db #0xFF
   0809 FF                 3403 	.db #0xFF
   080A FF                 3404 	.db #0xFF
   080B FF                 3405 	.db #0xFF
   080C FF                 3406 	.db #0xFF
   080D FF                 3407 	.db #0xFF
   080E FF                 3408 	.db #0xFF
   080F FF                 3409 	.db #0xFF
   0810 FF                 3410 	.db #0xFF
   0811 FF                 3411 	.db #0xFF
   0812 FF                 3412 	.db #0xFF
   0813 FF                 3413 	.db #0xFF
   0814 FF                 3414 	.db #0xFF
   0815 FF                 3415 	.db #0xFF
   0816 55                 3416 	.db #0x55
   0817 11                 3417 	.db #0x11
   0818 FF                 3418 	.db #0xFF
   0819 FF                 3419 	.db #0xFF
   081A FF                 3420 	.db #0xFF
   081B FF                 3421 	.db #0xFF
   081C FF                 3422 	.db #0xFF
   081D FF                 3423 	.db #0xFF
   081E FF                 3424 	.db #0xFF
   081F FF                 3425 	.db #0xFF
   0820 FF                 3426 	.db #0xFF
   0821 FF                 3427 	.db #0xFF
   0822 FF                 3428 	.db #0xFF
   0823 FF                 3429 	.db #0xFF
   0824 FF                 3430 	.db #0xFF
   0825 FF                 3431 	.db #0xFF
   0826 58                 3432 	.db #0x58
   0827 1A                 3433 	.db #0x1A
   0828 FF                 3434 	.db #0xFF
   0829 FF                 3435 	.db #0xFF
   082A FF                 3436 	.db #0xFF
   082B FF                 3437 	.db #0xFF
   082C FF                 3438 	.db #0xFF
   082D FF                 3439 	.db #0xFF
   082E FF                 3440 	.db #0xFF
   082F FF                 3441 	.db #0xFF
   0830 FF                 3442 	.db #0xFF
   0831 FF                 3443 	.db #0xFF
   0832 FF                 3444 	.db #0xFF
   0833 FF                 3445 	.db #0xFF
   0834 FF                 3446 	.db #0xFF
   0835 FF                 3447 	.db #0xFF
   0836 AA                 3448 	.db #0xAA
   0837 88                 3449 	.db #0x88
   0838 FF                 3450 	.db #0xFF
   0839 FF                 3451 	.db #0xFF
   083A FF                 3452 	.db #0xFF
   083B FF                 3453 	.db #0xFF
   083C FF                 3454 	.db #0xFF
   083D FF                 3455 	.db #0xFF
   083E FF                 3456 	.db #0xFF
   083F FF                 3457 	.db #0xFF
   0840 FF                 3458 	.db #0xFF
   0841 FF                 3459 	.db #0xFF
   0842 FF                 3460 	.db #0xFF
   0843 FF                 3461 	.db #0xFF
   0844 FF                 3462 	.db #0xFF
   0845 FF                 3463 	.db #0xFF
   0846 8B                 3464 	.db #0x8B
   0847 89                 3465 	.db #0x89
   0848 FF                 3466 	.db #0xFF
   0849 FF                 3467 	.db #0xFF
   084A FF                 3468 	.db #0xFF
   084B FF                 3469 	.db #0xFF
   084C FF                 3470 	.db #0xFF
   084D FF                 3471 	.db #0xFF
   084E FF                 3472 	.db #0xFF
   084F FF                 3473 	.db #0xFF
   0850 FF                 3474 	.db #0xFF
   0851 FF                 3475 	.db #0xFF
   0852 FF                 3476 	.db #0xFF
   0853 FF                 3477 	.db #0xFF
   0854 FF                 3478 	.db #0xFF
   0855 FF                 3479 	.db #0xFF
   0856 BC                 3480 	.db #0xBC
   0857 9C                 3481 	.db #0x9C
   0858 FF                 3482 	.db #0xFF
   0859 FF                 3483 	.db #0xFF
   085A FF                 3484 	.db #0xFF
   085B FF                 3485 	.db #0xFF
   085C FF                 3486 	.db #0xFF
   085D FF                 3487 	.db #0xFF
   085E FF                 3488 	.db #0xFF
   085F FF                 3489 	.db #0xFF
   0860 FF                 3490 	.db #0xFF
   0861 FF                 3491 	.db #0xFF
   0862 FF                 3492 	.db #0xFF
   0863 FF                 3493 	.db #0xFF
   0864 FF                 3494 	.db #0xFF
   0865 FF                 3495 	.db #0xFF
   0866 F7                 3496 	.db #0xF7
   0867 F3                 3497 	.db #0xF3
   0868 FF                 3498 	.db #0xFF
   0869 FF                 3499 	.db #0xFF
   086A FF                 3500 	.db #0xFF
   086B FF                 3501 	.db #0xFF
   086C FF                 3502 	.db #0xFF
   086D FF                 3503 	.db #0xFF
   086E FF                 3504 	.db #0xFF
   086F FF                 3505 	.db #0xFF
   0870 FF                 3506 	.db #0xFF
   0871 FF                 3507 	.db #0xFF
   0872 FF                 3508 	.db #0xFF
   0873 FF                 3509 	.db #0xFF
   0874 FF                 3510 	.db #0xFF
   0875 FF                 3511 	.db #0xFF
   0876 8A                 3512 	.db #0x8A
   0877 88                 3513 	.db #0x88
   0878 FF                 3514 	.db #0xFF
   0879 FF                 3515 	.db #0xFF
   087A FF                 3516 	.db #0xFF
   087B FF                 3517 	.db #0xFF
   087C FF                 3518 	.db #0xFF
   087D FF                 3519 	.db #0xFF
   087E FF                 3520 	.db #0xFF
   087F FF                 3521 	.db #0xFF
   0880 FF                 3522 	.db #0xFF
   0881 FF                 3523 	.db #0xFF
   0882 FF                 3524 	.db #0xFF
   0883 FF                 3525 	.db #0xFF
   0884 FF                 3526 	.db #0xFF
   0885 FF                 3527 	.db #0xFF
   0886 A9                 3528 	.db #0xA9
   0887 88                 3529 	.db #0x88
   0888 FF                 3530 	.db #0xFF
   0889 FF                 3531 	.db #0xFF
   088A FF                 3532 	.db #0xFF
   088B FF                 3533 	.db #0xFF
   088C FF                 3534 	.db #0xFF
   088D FF                 3535 	.db #0xFF
   088E FF                 3536 	.db #0xFF
   088F FF                 3537 	.db #0xFF
   0890 FF                 3538 	.db #0xFF
   0891 FF                 3539 	.db #0xFF
   0892 FF                 3540 	.db #0xFF
   0893 FF                 3541 	.db #0xFF
   0894 FF                 3542 	.db #0xFF
   0895 FF                 3543 	.db #0xFF
   0896 DB                 3544 	.db #0xDB
   0897 D9                 3545 	.db #0xD9
   0898 FF                 3546 	.db #0xFF
   0899 FF                 3547 	.db #0xFF
   089A FF                 3548 	.db #0xFF
   089B FF                 3549 	.db #0xFF
   089C FF                 3550 	.db #0xFF
   089D FF                 3551 	.db #0xFF
   089E FF                 3552 	.db #0xFF
   089F FF                 3553 	.db #0xFF
   08A0 FF                 3554 	.db #0xFF
   08A1 FF                 3555 	.db #0xFF
   08A2 FF                 3556 	.db #0xFF
   08A3 FF                 3557 	.db #0xFF
   08A4 FF                 3558 	.db #0xFF
   08A5 FF                 3559 	.db #0xFF
   08A6 6E                 3560 	.db #0x6E
   08A7 66                 3561 	.db #0x66
   08A8 FF                 3562 	.db #0xFF
   08A9 FF                 3563 	.db #0xFF
   08AA FF                 3564 	.db #0xFF
   08AB FF                 3565 	.db #0xFF
   08AC FF                 3566 	.db #0xFF
   08AD FF                 3567 	.db #0xFF
   08AE FF                 3568 	.db #0xFF
   08AF FF                 3569 	.db #0xFF
   08B0 FF                 3570 	.db #0xFF
   08B1 FF                 3571 	.db #0xFF
   08B2 FF                 3572 	.db #0xFF
   08B3 FF                 3573 	.db #0xFF
   08B4 FF                 3574 	.db #0xFF
   08B5 FF                 3575 	.db #0xFF
   08B6 A4                 3576 	.db #0xA4
   08B7 24                 3577 	.db #0x24
   08B8 FF                 3578 	.db #0xFF
   08B9 FF                 3579 	.db #0xFF
   08BA FF                 3580 	.db #0xFF
   08BB FF                 3581 	.db #0xFF
   08BC FF                 3582 	.db #0xFF
   08BD FF                 3583 	.db #0xFF
   08BE FF                 3584 	.db #0xFF
   08BF FF                 3585 	.db #0xFF
   08C0 FF                 3586 	.db #0xFF
   08C1 FF                 3587 	.db #0xFF
   08C2 FF                 3588 	.db #0xFF
   08C3 FF                 3589 	.db #0xFF
   08C4 FF                 3590 	.db #0xFF
   08C5 FF                 3591 	.db #0xFF
   08C6 9F                 3592 	.db #0x9F
   08C7 8F                 3593 	.db #0x8F
   08C8 FF                 3594 	.db #0xFF
   08C9 FF                 3595 	.db #0xFF
   08CA FF                 3596 	.db #0xFF
   08CB FF                 3597 	.db #0xFF
   08CC FF                 3598 	.db #0xFF
   08CD FF                 3599 	.db #0xFF
   08CE FF                 3600 	.db #0xFF
   08CF FF                 3601 	.db #0xFF
   08D0 FF                 3602 	.db #0xFF
   08D1 FF                 3603 	.db #0xFF
   08D2 FF                 3604 	.db #0xFF
   08D3 FF                 3605 	.db #0xFF
   08D4 FF                 3606 	.db #0xFF
   08D5 FF                 3607 	.db #0xFF
   08D6                    3608 _splashscreen_map:
   08D6 00                 3609 	.db #0x00
   08D7 00                 3610 	.db #0x00
   08D8 00                 3611 	.db #0x00
   08D9 00                 3612 	.db #0x00
   08DA 00                 3613 	.db #0x00
   08DB 00                 3614 	.db #0x00
   08DC 00                 3615 	.db #0x00
   08DD 00                 3616 	.db #0x00
   08DE 00                 3617 	.db #0x00
   08DF 00                 3618 	.db #0x00
   08E0 00                 3619 	.db #0x00
   08E1 00                 3620 	.db #0x00
   08E2 00                 3621 	.db #0x00
   08E3 00                 3622 	.db #0x00
   08E4 00                 3623 	.db #0x00
   08E5 00                 3624 	.db #0x00
   08E6 00                 3625 	.db #0x00
   08E7 00                 3626 	.db #0x00
   08E8 00                 3627 	.db #0x00
   08E9 00                 3628 	.db #0x00
   08EA 00                 3629 	.db #0x00
   08EB 00                 3630 	.db #0x00
   08EC 00                 3631 	.db #0x00
   08ED 00                 3632 	.db #0x00
   08EE 00                 3633 	.db #0x00
   08EF 00                 3634 	.db #0x00
   08F0 00                 3635 	.db #0x00
   08F1 00                 3636 	.db #0x00
   08F2 00                 3637 	.db #0x00
   08F3 00                 3638 	.db #0x00
   08F4 00                 3639 	.db #0x00
   08F5 00                 3640 	.db #0x00
   08F6 00                 3641 	.db #0x00
   08F7 00                 3642 	.db #0x00
   08F8 00                 3643 	.db #0x00
   08F9 00                 3644 	.db #0x00
   08FA 00                 3645 	.db #0x00
   08FB 00                 3646 	.db #0x00
   08FC 00                 3647 	.db #0x00
   08FD 00                 3648 	.db #0x00
   08FE 00                 3649 	.db #0x00
   08FF 00                 3650 	.db #0x00
   0900 01                 3651 	.db #0x01
   0901 02                 3652 	.db #0x02
   0902 03                 3653 	.db #0x03
   0903 00                 3654 	.db #0x00
   0904 00                 3655 	.db #0x00
   0905 00                 3656 	.db #0x00
   0906 00                 3657 	.db #0x00
   0907 00                 3658 	.db #0x00
   0908 04                 3659 	.db #0x04
   0909 05                 3660 	.db #0x05
   090A 00                 3661 	.db #0x00
   090B 00                 3662 	.db #0x00
   090C 00                 3663 	.db #0x00
   090D 00                 3664 	.db #0x00
   090E 00                 3665 	.db #0x00
   090F 00                 3666 	.db #0x00
   0910 00                 3667 	.db #0x00
   0911 00                 3668 	.db #0x00
   0912 00                 3669 	.db #0x00
   0913 00                 3670 	.db #0x00
   0914 06                 3671 	.db #0x06
   0915 07                 3672 	.db #0x07
   0916 08                 3673 	.db #0x08
   0917 09                 3674 	.db #0x09
   0918 0A                 3675 	.db #0x0A
   0919 0B                 3676 	.db #0x0B
   091A 0C                 3677 	.db #0x0C
   091B 0B                 3678 	.db #0x0B
   091C 0D                 3679 	.db #0x0D
   091D 0E                 3680 	.db #0x0E
   091E 0F                 3681 	.db #0x0F
   091F 0B                 3682 	.db #0x0B
   0920 10                 3683 	.db #0x10
   0921 11                 3684 	.db #0x11
   0922 12                 3685 	.db #0x12
   0923 13                 3686 	.db #0x13
   0924 00                 3687 	.db #0x00
   0925 00                 3688 	.db #0x00
   0926 00                 3689 	.db #0x00
   0927 00                 3690 	.db #0x00
   0928 14                 3691 	.db #0x14
   0929 15                 3692 	.db #0x15
   092A 16                 3693 	.db #0x16
   092B 17                 3694 	.db #0x17
   092C 18                 3695 	.db #0x18
   092D 19                 3696 	.db #0x19
   092E 1A                 3697 	.db #0x1A
   092F 1B                 3698 	.db #0x1B
   0930 1C                 3699 	.db #0x1C
   0931 1D                 3700 	.db #0x1D
   0932 1E                 3701 	.db #0x1E
   0933 1F                 3702 	.db #0x1F
   0934 20                 3703 	.db #0x20
   0935 21                 3704 	.db #0x21
   0936 22                 3705 	.db #0x22
   0937 23                 3706 	.db #0x23
   0938 00                 3707 	.db #0x00
   0939 00                 3708 	.db #0x00
   093A 00                 3709 	.db #0x00
   093B 00                 3710 	.db #0x00
   093C 14                 3711 	.db #0x14
   093D 15                 3712 	.db #0x15
   093E 16                 3713 	.db #0x16
   093F 24                 3714 	.db #0x24
   0940 18                 3715 	.db #0x18
   0941 25                 3716 	.db #0x25
   0942 26                 3717 	.db #0x26
   0943 27                 3718 	.db #0x27
   0944 28                 3719 	.db #0x28
   0945 29                 3720 	.db #0x29
   0946 2A                 3721 	.db #0x2A
   0947 2B                 3722 	.db #0x2B
   0948 2C                 3723 	.db #0x2C
   0949 2D                 3724 	.db #0x2D
   094A 2E                 3725 	.db #0x2E
   094B 2F                 3726 	.db #0x2F
   094C 00                 3727 	.db #0x00
   094D 00                 3728 	.db #0x00
   094E 00                 3729 	.db #0x00
   094F 00                 3730 	.db #0x00
   0950 30                 3731 	.db #0x30
   0951 31                 3732 	.db #0x31
   0952 32                 3733 	.db #0x32
   0953 33                 3734 	.db #0x33
   0954 34                 3735 	.db #0x34
   0955 35                 3736 	.db #0x35
   0956 36                 3737 	.db #0x36
   0957 37                 3738 	.db #0x37
   0958 38                 3739 	.db #0x38
   0959 37                 3740 	.db #0x37
   095A 39                 3741 	.db #0x39
   095B 37                 3742 	.db #0x37
   095C 3A                 3743 	.db #0x3A
   095D 00                 3744 	.db #0x00
   095E 3B                 3745 	.db #0x3B
   095F 3C                 3746 	.db #0x3C
   0960 00                 3747 	.db #0x00
   0961 00                 3748 	.db #0x00
   0962 00                 3749 	.db #0x00
   0963 00                 3750 	.db #0x00
   0964 00                 3751 	.db #0x00
   0965 3D                 3752 	.db #0x3D
   0966 3E                 3753 	.db #0x3E
   0967 3F                 3754 	.db #0x3F
   0968 40                 3755 	.db #0x40
   0969 41                 3756 	.db #0x41
   096A 00                 3757 	.db #0x00
   096B 42                 3758 	.db #0x42
   096C 43                 3759 	.db #0x43
   096D 00                 3760 	.db #0x00
   096E 00                 3761 	.db #0x00
   096F 00                 3762 	.db #0x00
   0970 00                 3763 	.db #0x00
   0971 44                 3764 	.db #0x44
   0972 00                 3765 	.db #0x00
   0973 00                 3766 	.db #0x00
   0974 00                 3767 	.db #0x00
   0975 00                 3768 	.db #0x00
   0976 00                 3769 	.db #0x00
   0977 00                 3770 	.db #0x00
   0978 45                 3771 	.db #0x45
   0979 46                 3772 	.db #0x46
   097A 47                 3773 	.db #0x47
   097B 48                 3774 	.db #0x48
   097C 49                 3775 	.db #0x49
   097D 4A                 3776 	.db #0x4A
   097E 4B                 3777 	.db #0x4B
   097F 4C                 3778 	.db #0x4C
   0980 4D                 3779 	.db #0x4D
   0981 4E                 3780 	.db #0x4E
   0982 4F                 3781 	.db #0x4F
   0983 50                 3782 	.db #0x50
   0984 51                 3783 	.db #0x51
   0985 52                 3784 	.db #0x52
   0986 53                 3785 	.db #0x53
   0987 54                 3786 	.db #0x54
   0988 00                 3787 	.db #0x00
   0989 00                 3788 	.db #0x00
   098A 00                 3789 	.db #0x00
   098B 00                 3790 	.db #0x00
   098C 55                 3791 	.db #0x55
   098D 56                 3792 	.db #0x56
   098E 57                 3793 	.db #0x57
   098F 58                 3794 	.db #0x58
   0990 59                 3795 	.db #0x59
   0991 5A                 3796 	.db #0x5A
   0992 5B                 3797 	.db #0x5B
   0993 5C                 3798 	.db #0x5C
   0994 5D                 3799 	.db #0x5D
   0995 5E                 3800 	.db #0x5E
   0996 5F                 3801 	.db #0x5F
   0997 60                 3802 	.db #0x60
   0998 61                 3803 	.db #0x61
   0999 62                 3804 	.db #0x62
   099A 63                 3805 	.db #0x63
   099B 64                 3806 	.db #0x64
   099C 00                 3807 	.db #0x00
   099D 00                 3808 	.db #0x00
   099E 00                 3809 	.db #0x00
   099F 65                 3810 	.db #0x65
   09A0 66                 3811 	.db #0x66
   09A1 67                 3812 	.db #0x67
   09A2 68                 3813 	.db #0x68
   09A3 69                 3814 	.db #0x69
   09A4 6A                 3815 	.db #0x6A
   09A5 6B                 3816 	.db #0x6B
   09A6 6C                 3817 	.db #0x6C
   09A7 6D                 3818 	.db #0x6D
   09A8 6E                 3819 	.db #0x6E
   09A9 6F                 3820 	.db #0x6F
   09AA 70                 3821 	.db #0x70
   09AB 71                 3822 	.db #0x71
   09AC 72                 3823 	.db #0x72
   09AD 73                 3824 	.db #0x73
   09AE 74                 3825 	.db #0x74
   09AF 75                 3826 	.db #0x75
   09B0 76                 3827 	.db #0x76
   09B1 00                 3828 	.db #0x00
   09B2 00                 3829 	.db #0x00
   09B3 77                 3830 	.db #0x77
   09B4 78                 3831 	.db #0x78
   09B5 79                 3832 	.db #0x79
   09B6 7A                 3833 	.db #0x7A
   09B7 7B                 3834 	.db #0x7B
   09B8 78                 3835 	.db #0x78
   09B9 7C                 3836 	.db #0x7C
   09BA 7D                 3837 	.db #0x7D
   09BB 7E                 3838 	.db #0x7E
   09BC 7F                 3839 	.db #0x7F
   09BD 80                 3840 	.db #0x80
   09BE 81                 3841 	.db #0x81
   09BF 82                 3842 	.db #0x82
   09C0 83                 3843 	.db #0x83
   09C1 84                 3844 	.db #0x84
   09C2 85                 3845 	.db #0x85
   09C3 86                 3846 	.db #0x86
   09C4 87                 3847 	.db #0x87
   09C5 00                 3848 	.db #0x00
   09C6 00                 3849 	.db #0x00
   09C7 00                 3850 	.db #0x00
   09C8 00                 3851 	.db #0x00
   09C9 00                 3852 	.db #0x00
   09CA 00                 3853 	.db #0x00
   09CB 00                 3854 	.db #0x00
   09CC 00                 3855 	.db #0x00
   09CD 00                 3856 	.db #0x00
   09CE 00                 3857 	.db #0x00
   09CF 00                 3858 	.db #0x00
   09D0 00                 3859 	.db #0x00
   09D1 00                 3860 	.db #0x00
   09D2 00                 3861 	.db #0x00
   09D3 00                 3862 	.db #0x00
   09D4 00                 3863 	.db #0x00
   09D5 00                 3864 	.db #0x00
   09D6 00                 3865 	.db #0x00
   09D7 00                 3866 	.db #0x00
   09D8 00                 3867 	.db #0x00
   09D9 00                 3868 	.db #0x00
   09DA 00                 3869 	.db #0x00
   09DB 00                 3870 	.db #0x00
   09DC 00                 3871 	.db #0x00
   09DD 00                 3872 	.db #0x00
   09DE 00                 3873 	.db #0x00
   09DF 00                 3874 	.db #0x00
   09E0 00                 3875 	.db #0x00
   09E1 00                 3876 	.db #0x00
   09E2 00                 3877 	.db #0x00
   09E3 00                 3878 	.db #0x00
   09E4 00                 3879 	.db #0x00
   09E5 00                 3880 	.db #0x00
   09E6 00                 3881 	.db #0x00
   09E7 00                 3882 	.db #0x00
   09E8 00                 3883 	.db #0x00
   09E9 00                 3884 	.db #0x00
   09EA 00                 3885 	.db #0x00
   09EB 00                 3886 	.db #0x00
   09EC 00                 3887 	.db #0x00
   09ED 00                 3888 	.db #0x00
   09EE 00                 3889 	.db #0x00
   09EF 00                 3890 	.db #0x00
   09F0 00                 3891 	.db #0x00
   09F1 00                 3892 	.db #0x00
   09F2 00                 3893 	.db #0x00
   09F3 00                 3894 	.db #0x00
   09F4 00                 3895 	.db #0x00
   09F5 00                 3896 	.db #0x00
   09F6 00                 3897 	.db #0x00
   09F7 00                 3898 	.db #0x00
   09F8 00                 3899 	.db #0x00
   09F9 00                 3900 	.db #0x00
   09FA 00                 3901 	.db #0x00
   09FB 00                 3902 	.db #0x00
   09FC 00                 3903 	.db #0x00
   09FD 00                 3904 	.db #0x00
   09FE 00                 3905 	.db #0x00
   09FF 00                 3906 	.db #0x00
   0A00 00                 3907 	.db #0x00
   0A01 00                 3908 	.db #0x00
   0A02 00                 3909 	.db #0x00
   0A03 00                 3910 	.db #0x00
   0A04 00                 3911 	.db #0x00
   0A05 00                 3912 	.db #0x00
   0A06 00                 3913 	.db #0x00
   0A07 00                 3914 	.db #0x00
   0A08 00                 3915 	.db #0x00
   0A09 00                 3916 	.db #0x00
   0A0A 00                 3917 	.db #0x00
   0A0B 00                 3918 	.db #0x00
   0A0C 00                 3919 	.db #0x00
   0A0D 00                 3920 	.db #0x00
   0A0E 00                 3921 	.db #0x00
   0A0F 00                 3922 	.db #0x00
   0A10 00                 3923 	.db #0x00
   0A11 00                 3924 	.db #0x00
   0A12 00                 3925 	.db #0x00
   0A13 00                 3926 	.db #0x00
   0A14 00                 3927 	.db #0x00
   0A15 00                 3928 	.db #0x00
   0A16 00                 3929 	.db #0x00
   0A17 00                 3930 	.db #0x00
   0A18 00                 3931 	.db #0x00
   0A19 00                 3932 	.db #0x00
   0A1A 00                 3933 	.db #0x00
   0A1B 00                 3934 	.db #0x00
   0A1C 00                 3935 	.db #0x00
   0A1D 00                 3936 	.db #0x00
   0A1E 00                 3937 	.db #0x00
   0A1F 00                 3938 	.db #0x00
   0A20 00                 3939 	.db #0x00
   0A21 00                 3940 	.db #0x00
   0A22 00                 3941 	.db #0x00
   0A23 00                 3942 	.db #0x00
   0A24 00                 3943 	.db #0x00
   0A25 00                 3944 	.db #0x00
   0A26 00                 3945 	.db #0x00
   0A27 00                 3946 	.db #0x00
   0A28 00                 3947 	.db #0x00
   0A29 00                 3948 	.db #0x00
   0A2A 00                 3949 	.db #0x00
   0A2B 00                 3950 	.db #0x00
   0A2C 00                 3951 	.db #0x00
   0A2D 00                 3952 	.db #0x00
   0A2E 00                 3953 	.db #0x00
   0A2F 00                 3954 	.db #0x00
   0A30 00                 3955 	.db #0x00
   0A31 00                 3956 	.db #0x00
   0A32 00                 3957 	.db #0x00
   0A33 00                 3958 	.db #0x00
   0A34 00                 3959 	.db #0x00
   0A35 00                 3960 	.db #0x00
   0A36 00                 3961 	.db #0x00
   0A37 00                 3962 	.db #0x00
   0A38 00                 3963 	.db #0x00
   0A39 00                 3964 	.db #0x00
   0A3A 00                 3965 	.db #0x00
   0A3B 00                 3966 	.db #0x00
   0A3C 00                 3967 	.db #0x00
   0A3D 00                 3968 	.db #0x00
                           3969 ;	SplashPage/SplashPage.c 25
                           3970 ; genLabel
                           3971 ; genFunction
                           3972 ;	---------------------------------
                           3973 ; Function fadein
                           3974 ; ---------------------------------
   0A3E                    3975 ___fadein_start:
   0A3E                    3976 _fadein:
                           3977 	
                           3978 ;	SplashPage/SplashPage.c 26
                           3979 ; genAssign
                           3980 ; AOP_HL for _wait
   0A3E 21 00 00           3981 	ld	hl,#_wait + 0
   0A41 36 00              3982 	ld	(hl),#0x00
                           3983 ; genLabel
   0A43                    3984 00105$:
                           3985 ; genCmpLt
                           3986 ; AOP_HL for _wait
   0A43 21 00 00           3987 	ld	hl,#_wait + 0
   0A46 7E                 3988 	ld	a,(hl)
   0A47 FE 03              3989 	cp	#0x03
   0A49 D2 89 0A           3990 	jp	nc,00109$
                           3991 ;	SplashPage/SplashPage.c 27
                           3992 ; genCmpEq
                           3993 ; AOP_HL for _wait
   0A4C 7E                 3994 	ld	a,(hl)
   0A4D B7                 3995 	or	a,a
                           3996 ; Rule 5
   0A4E CA 66 0A           3997 	jp	z,00101$
   0A51                    3998 00116$:
                           3999 ; genCmpEq
                           4000 ; AOP_HL for _wait
   0A51 21 00 00           4001 	ld	hl,#_wait + 0
   0A54 7E                 4002 	ld	a,(hl) ; 2
   0A55 FE 01              4003 	cp	a,#0x01
                           4004 ; Rule 5
   0A57 CA 6D 0A           4005 	jp	z,00102$
   0A5A                    4006 00117$:
                           4007 ; genCmpEq
                           4008 ; AOP_HL for _wait
   0A5A 21 00 00           4009 	ld	hl,#_wait + 0
   0A5D 7E                 4010 	ld	a,(hl) ; 2
   0A5E FE 02              4011 	cp	a,#0x02
                           4012 ; Rule 5
   0A60 CA 74 0A           4013 	jp	z,00103$
   0A63                    4014 00118$:
                           4015 ; genGoto
   0A63 C3 78 0A           4016 	jp	00104$
                           4017 ;	SplashPage/SplashPage.c 29
                           4018 ; genLabel
   0A66                    4019 00101$:
                           4020 ; genAssign
                           4021 ; AOP_SFR for _BGP_REG
   0A66 3E FE              4022 	ld	a,#0xFE
   0A68 E0 00              4023 	ldh	(_BGP_REG+0),a
                           4024 ;	SplashPage/SplashPage.c 30
                           4025 ; genGoto
   0A6A C3 78 0A           4026 	jp	00104$
                           4027 ;	SplashPage/SplashPage.c 32
                           4028 ; genLabel
   0A6D                    4029 00102$:
                           4030 ; genAssign
                           4031 ; AOP_SFR for _BGP_REG
   0A6D 3E F9              4032 	ld	a,#0xF9
   0A6F E0 00              4033 	ldh	(_BGP_REG+0),a
                           4034 ;	SplashPage/SplashPage.c 33
                           4035 ; genGoto
   0A71 C3 78 0A           4036 	jp	00104$
                           4037 ;	SplashPage/SplashPage.c 35
                           4038 ; genLabel
   0A74                    4039 00103$:
                           4040 ; genAssign
                           4041 ; AOP_SFR for _BGP_REG
   0A74 3E E4              4042 	ld	a,#0xE4
   0A76 E0 00              4043 	ldh	(_BGP_REG+0),a
                           4044 ;	SplashPage/SplashPage.c 37
                           4045 ; genLabel
   0A78                    4046 00104$:
                           4047 ;	SplashPage/SplashPage.c 38
                           4048 ; genIpush
                           4049 ; AOP_STK for 
   0A78 F8 02              4050 	lda	hl,2(sp)
   0A7A 7E                 4051 	ld	a,(hl)
   0A7B F5                 4052 	push	af
   0A7C 33                 4053 	inc	sp
                           4054 ; genCall
   0A7D CD DD 2F           4055 	call	_performantdelay
   0A80 E8 01              4056 	lda	sp,1(sp)
                           4057 ;	SplashPage/SplashPage.c 26
                           4058 ; genPlus
                           4059 ; AOP_HL for _wait
                           4060 ; genPlusIncr
   0A82 21 00 00           4061 	ld	hl,#_wait + 0
   0A85 34                 4062 	inc	(hl)
                           4063 ; genGoto
   0A86 C3 43 0A           4064 	jp	00105$
                           4065 ; genLabel
   0A89                    4066 00109$:
                           4067 ; genEndFunction
                           4068 	
   0A89 C9                 4069 	ret
   0A8A                    4070 ___fadein_end:
                           4071 ;	SplashPage/SplashPage.c 42
                           4072 ; genLabel
                           4073 ; genFunction
                           4074 ;	---------------------------------
                           4075 ; Function splashPage
                           4076 ; ---------------------------------
   0A8A                    4077 ___splashPage_start:
   0A8A                    4078 _splashPage:
                           4079 	
                           4080 ;	SplashPage/SplashPage.c 44
                           4081 ; genIpush
   0A8A 21 56 00           4082 	ld	hl,#_splashscreen_data + 0
   0A8D E5                 4083 	push	hl
                           4084 ; genIpush
   0A8E 3E 88              4085 	ld	a,#0x88
   0A90 F5                 4086 	push	af
   0A91 33                 4087 	inc	sp
                           4088 ; genIpush
   0A92 3E 00              4089 	ld	a,#0x00
   0A94 F5                 4090 	push	af
   0A95 33                 4091 	inc	sp
                           4092 ; genCall
   0A96 CD 00 00           4093 	call	_set_bkg_data
   0A99 E8 04              4094 	lda	sp,4(sp)
                           4095 ;	SplashPage/SplashPage.c 45
                           4096 ; genIpush
   0A9B 21 D6 08           4097 	ld	hl,#_splashscreen_map + 0
   0A9E E5                 4098 	push	hl
                           4099 ; genIpush
   0A9F 3E 12              4100 	ld	a,#0x12
   0AA1 F5                 4101 	push	af
   0AA2 33                 4102 	inc	sp
                           4103 ; genIpush
   0AA3 3E 14              4104 	ld	a,#0x14
   0AA5 F5                 4105 	push	af
   0AA6 33                 4106 	inc	sp
                           4107 ; genIpush
   0AA7 3E 00              4108 	ld	a,#0x00
   0AA9 F5                 4109 	push	af
   0AAA 33                 4110 	inc	sp
                           4111 ; genIpush
   0AAB 3E 00              4112 	ld	a,#0x00
   0AAD F5                 4113 	push	af
   0AAE 33                 4114 	inc	sp
                           4115 ; genCall
   0AAF CD 00 00           4116 	call	_set_bkg_tiles
   0AB2 E8 06              4117 	lda	sp,6(sp)
                           4118 ;	SplashPage/SplashPage.c 47
                           4119 ; genOr
                           4120 ; AOP_SFR for _LCDC_REG
                           4121 ; Type res[4] = l[4]&r[1]
                           4122 ; Size res[1] = l[1]&r[1]
   0AB4 F0 00              4123 	ldh	a,(_LCDC_REG+0) ; x
   0AB6 F6 01              4124 	or	a,#0x01
   0AB8 E0 00              4125 	ldh	(_LCDC_REG+0),a
                           4126 ;	SplashPage/SplashPage.c 48
                           4127 ; genOr
                           4128 ; AOP_SFR for _LCDC_REG
                           4129 ; Type res[4] = l[4]&r[1]
                           4130 ; Size res[1] = l[1]&r[1]
   0ABA F0 00              4131 	ldh	a,(_LCDC_REG+0) ; x
   0ABC F6 80              4132 	or	a,#0x80
   0ABE E0 00              4133 	ldh	(_LCDC_REG+0),a
                           4134 ;	SplashPage/SplashPage.c 51
                           4135 ; genIpush
   0AC0 3E 80              4136 	ld	a,#0x80
   0AC2 F5                 4137 	push	af
   0AC3 33                 4138 	inc	sp
                           4139 ; genCall
   0AC4 CD 00 00           4140 	call	_waitpad
   0AC7 E8 01              4141 	lda	sp,1(sp)
                           4142 ;	SplashPage/SplashPage.c 53
                           4143 ; genIpush
   0AC9 3E 0A              4144 	ld	a,#0x0A
   0ACB F5                 4145 	push	af
   0ACC 33                 4146 	inc	sp
                           4147 ; genCall
   0ACD CD 00 00           4148 	call	_fadeout
   0AD0 E8 01              4149 	lda	sp,1(sp)
                           4150 ; genLabel
   0AD2                    4151 00101$:
                           4152 ; genEndFunction
                           4153 	
   0AD2 C9                 4154 	ret
   0AD3                    4155 ___splashPage_end:
                           4156 ;	Navigation/../Assests/Sound/Effects/Effects.c 3
                           4157 ; genLabel
                           4158 ; genFunction
                           4159 ;	---------------------------------
                           4160 ; Function playDoorSound
                           4161 ; ---------------------------------
   0AD3                    4162 ___playDoorSound_start:
   0AD3                    4163 _playDoorSound:
                           4164 	
                           4165 ;	Navigation/../Assests/Sound/Effects/Effects.c 4
                           4166 ; genAssign
                           4167 ; AOP_SFR for _NR41_REG
   0AD3 3E 3D              4168 	ld	a,#0x3D
   0AD5 E0 00              4169 	ldh	(_NR41_REG+0),a
                           4170 ;	Navigation/../Assests/Sound/Effects/Effects.c 5
                           4171 ; genAssign
                           4172 ; AOP_SFR for _NR42_REG
   0AD7 3E A2              4173 	ld	a,#0xA2
   0AD9 E0 00              4174 	ldh	(_NR42_REG+0),a
                           4175 ;	Navigation/../Assests/Sound/Effects/Effects.c 6
                           4176 ; genAssign
                           4177 ; AOP_SFR for _NR43_REG
   0ADB 3E 09              4178 	ld	a,#0x09
   0ADD E0 00              4179 	ldh	(_NR43_REG+0),a
                           4180 ;	Navigation/../Assests/Sound/Effects/Effects.c 7
                           4181 ; genAssign
                           4182 ; AOP_SFR for _NR44_REG
   0ADF 3E C0              4183 	ld	a,#0xC0
   0AE1 E0 00              4184 	ldh	(_NR44_REG+0),a
                           4185 ; genLabel
   0AE3                    4186 00101$:
                           4187 ; genEndFunction
                           4188 	
   0AE3 C9                 4189 	ret
   0AE4                    4190 ___playDoorSound_end:
                           4191 ;	Navigation/../Assests/Sound/Effects/Effects.c 10
                           4192 ; genLabel
                           4193 ; genFunction
                           4194 ;	---------------------------------
                           4195 ; Function playCollisionSound
                           4196 ; ---------------------------------
   0AE4                    4197 ___playCollisionSound_start:
   0AE4                    4198 _playCollisionSound:
                           4199 	
                           4200 ;	Navigation/../Assests/Sound/Effects/Effects.c 11
                           4201 ; genAssign
                           4202 ; AOP_SFR for _NR10_REG
   0AE4 3E 16              4203 	ld	a,#0x16
   0AE6 E0 00              4204 	ldh	(_NR10_REG+0),a
                           4205 ;	Navigation/../Assests/Sound/Effects/Effects.c 12
                           4206 ; genAssign
                           4207 ; AOP_SFR for _NR11_REG
   0AE8 3E 40              4208 	ld	a,#0x40
   0AEA E0 00              4209 	ldh	(_NR11_REG+0),a
                           4210 ;	Navigation/../Assests/Sound/Effects/Effects.c 13
                           4211 ; genAssign
                           4212 ; AOP_SFR for _NR12_REG
   0AEC 3E 73              4213 	ld	a,#0x73
   0AEE E0 00              4214 	ldh	(_NR12_REG+0),a
                           4215 ;	Navigation/../Assests/Sound/Effects/Effects.c 14
                           4216 ; genAssign
                           4217 ; AOP_SFR for _NR13_REG
   0AF0 3E 00              4218 	ld	a,#0x00
   0AF2 E0 00              4219 	ldh	(_NR13_REG+0),a
                           4220 ;	Navigation/../Assests/Sound/Effects/Effects.c 15
                           4221 ; genAssign
                           4222 ; AOP_SFR for _NR14_REG
   0AF4 3E C3              4223 	ld	a,#0xC3
   0AF6 E0 00              4224 	ldh	(_NR14_REG+0),a
                           4225 ; genLabel
   0AF8                    4226 00101$:
                           4227 ; genEndFunction
                           4228 	
   0AF8 C9                 4229 	ret
   0AF9                    4230 ___playCollisionSound_end:
                           4231 ;	Navigation/../CharacterInfo/GameCharacter.c 35
                           4232 ; genLabel
                           4233 ; genFunction
                           4234 ;	---------------------------------
                           4235 ; Function getCPUMonsterTeam
                           4236 ; ---------------------------------
   0AF9                    4237 ___getCPUMonsterTeam_start:
   0AF9                    4238 _getCPUMonsterTeam:
   0AF9 C5                 4239 	push	bc
   0AFA E8 FD              4240 	lda	sp,-3(sp)
                           4241 ;	Navigation/../CharacterInfo/GameCharacter.c 36
                           4242 ; genPlus
                           4243 ; genPlusIncr
   0AFC 11 DF 13           4244 	ld	de,#_CPU_info + 0 + 48
                           4245 ; genPointerGet
                           4246 ; AOP_STK for _getCPUMonsterTeam_sloc0_1_0
   0AFF 1A                 4247 	ld	a,(de)
   0B00 F8 02              4248 	lda	hl,2(sp)
   0B02 77                 4249 	ld	(hl),a
                           4250 ; genAssign
                           4251 ; (operands are equal 3)
                           4252 ; genCast
                           4253 ; AOP_STK for _getCPUMonsterTeam_sloc0_1_0
   0B03 4E                 4254 	ld	c,(hl)
   0B04 06 00              4255 	ld	b,#0x00
                           4256 ; genCmpLt
                           4257 ; AOP_STK for 
   0B06 AF                 4258 	xor	a,a
   0B07 F8 07              4259 	lda	hl,7(sp)
   0B09 7E                 4260 	ld	a,(hl)
   0B0A 99                 4261 	sbc	a,c ; 2
   0B0B 23                 4262 	inc	hl
   0B0C 7E                 4263 	ld	a,(hl)
   0B0D 98                 4264 	sbc	a,b ; 2
   0B0E DA 17 0B           4265 	jp	c,00102$
                           4266 ;	Navigation/../CharacterInfo/GameCharacter.c 37
                           4267 ; genRet
   0B11 11 00 00           4268 	ld	de,#0x0000
   0B14 C3 58 0B           4269 	jp	00106$
                           4270 ; genLabel
   0B17                    4271 00102$:
                           4272 ;	Navigation/../CharacterInfo/GameCharacter.c 40
                           4273 ; genIpush
   0B17 21 0C 00           4274 	ld	hl,#0x000C
   0B1A E5                 4275 	push	hl
                           4276 ; genIpush
                           4277 ; AOP_STK for 
   0B1B F8 09              4278 	lda	hl,9(sp)
   0B1D 2A                 4279 	ld	a,(hl+)
   0B1E 66                 4280 	ld	h,(hl)
   0B1F 6F                 4281 	ld	l,a
   0B20 E5                 4282 	push	hl
                           4283 ; genCall
   0B21 CD 00 00           4284 	call	__muluint
   0B24 42                 4285 	ld	b,d
   0B25 4B                 4286 	ld	c,e
   0B26 E8 04              4287 	lda	sp,4(sp)
                           4288 ; genPlus
                           4289 ; AOP_STK for _getCPUMonsterTeam_sloc1_1_0
                           4290 ;	genPlusIncr failed
   0B28 21 AF 13           4291 	ld	hl,#_CPU_info + 0
   0B2B 09                 4292 	add	hl,bc
   0B2C 7D                 4293 	ld	a,l
   0B2D 54                 4294 	ld	d,h
   0B2E F8 00              4295 	lda	hl,0(sp)
   0B30 22                 4296 	ld	(hl+),a
   0B31 72                 4297 	ld	(hl),d
                           4298 ; genPlus
                           4299 ; AOP_STK for _getCPUMonsterTeam_sloc1_1_0
                           4300 ; genPlusIncr
                           4301 ;	genPlusIncr failed
   0B32 2B                 4302 	dec	hl
   0B33 5E                 4303 	ld	e,(hl)
   0B34 23                 4304 	inc	hl
   0B35 56                 4305 	ld	d,(hl)
   0B36 21 0B 00           4306 	ld	hl,#0x000B
   0B39 19                 4307 	add	hl,de
   0B3A 5D                 4308 	ld	e,l
   0B3B 54                 4309 	ld	d,h
                           4310 ; genPointerGet
   0B3C 1A                 4311 	ld	a,(de)
   0B3D 4F                 4312 	ld	c,a
                           4313 ; genIfx
                           4314 ; Removed redundent or a,a
   0B3E AF                 4315 	xor	a,a
   0B3F B1                 4316 	or	a,c
   0B40 CA 55 0B           4317 	jp	z,00104$
                           4318 ;	Navigation/../CharacterInfo/GameCharacter.c 42
                           4319 ; genAssign
                           4320 ; AOP_STK for _getCPUMonsterTeam_sloc1_1_0
   0B43 F8 00              4321 	lda	hl,0(sp)
   0B45 4E                 4322 	ld	c,(hl)
   0B46 23                 4323 	inc	hl
   0B47 46                 4324 	ld	b,(hl)
                           4325 ;	Navigation/../CharacterInfo/GameCharacter.c 43
                           4326 ; genPlus
                           4327 ; genPlusIncr
                           4328 ;	genPlusIncr failed
   0B48 79                 4329 	ld	a,c
   0B49 C6 0C              4330 	add	a,#0x0C
   0B4B 4F                 4331 	ld	c,a
   0B4C 78                 4332 	ld	a,b
   0B4D CE 00              4333 	adc	a,#0x00
   0B4F 47                 4334 	ld	b,a
                           4335 ; genCast
                           4336 ; genRet
   0B50 59                 4337 	ld	e,c
   0B51 50                 4338 	ld	d,b
   0B52 C3 58 0B           4339 	jp	00106$
                           4340 ; genLabel
   0B55                    4341 00104$:
                           4342 ;	Navigation/../CharacterInfo/GameCharacter.c 47
                           4343 ; genRet
   0B55 11 00 00           4344 	ld	de,#0x0000
                           4345 ; genLabel
   0B58                    4346 00106$:
                           4347 ; genEndFunction
   0B58 E8 03              4348 	lda	sp,3(sp)
   0B5A C1                 4349 	pop	bc
   0B5B C9                 4350 	ret
   0B5C                    4351 ___getCPUMonsterTeam_end:
   0B5C                    4352 _wall:
   0B5C 00                 4353 	.db #0x00
   0B5D                    4354 _room_top_data:
   0B5D FF                 4355 	.db #0xFF
   0B5E FF                 4356 	.db #0xFF
   0B5F FF                 4357 	.db #0xFF
   0B60 FF                 4358 	.db #0xFF
   0B61 FF                 4359 	.db #0xFF
   0B62 FF                 4360 	.db #0xFF
   0B63 FF                 4361 	.db #0xFF
   0B64 FF                 4362 	.db #0xFF
   0B65 FF                 4363 	.db #0xFF
   0B66 FF                 4364 	.db #0xFF
   0B67 FF                 4365 	.db #0xFF
   0B68 FF                 4366 	.db #0xFF
   0B69 FF                 4367 	.db #0xFF
   0B6A FF                 4368 	.db #0xFF
   0B6B FF                 4369 	.db #0xFF
   0B6C FF                 4370 	.db #0xFF
   0B6D FF                 4371 	.db #0xFF
   0B6E FF                 4372 	.db #0xFF
   0B6F FF                 4373 	.db #0xFF
   0B70 FF                 4374 	.db #0xFF
   0B71 FF                 4375 	.db #0xFF
   0B72 FF                 4376 	.db #0xFF
   0B73 FF                 4377 	.db #0xFF
   0B74 FF                 4378 	.db #0xFF
   0B75 FF                 4379 	.db #0xFF
   0B76 FF                 4380 	.db #0xFF
   0B77 FF                 4381 	.db #0xFF
   0B78 FF                 4382 	.db #0xFF
   0B79 FF                 4383 	.db #0xFF
   0B7A FF                 4384 	.db #0xFF
   0B7B FF                 4385 	.db #0xFF
   0B7C FE                 4386 	.db #0xFE
   0B7D FF                 4387 	.db #0xFF
   0B7E FF                 4388 	.db #0xFF
   0B7F FF                 4389 	.db #0xFF
   0B80 FF                 4390 	.db #0xFF
   0B81 FF                 4391 	.db #0xFF
   0B82 FF                 4392 	.db #0xFF
   0B83 FF                 4393 	.db #0xFF
   0B84 FF                 4394 	.db #0xFF
   0B85 FF                 4395 	.db #0xFF
   0B86 FF                 4396 	.db #0xFF
   0B87 FF                 4397 	.db #0xFF
   0B88 FF                 4398 	.db #0xFF
   0B89 FF                 4399 	.db #0xFF
   0B8A 00                 4400 	.db #0x00
   0B8B FF                 4401 	.db #0xFF
   0B8C FF                 4402 	.db #0xFF
   0B8D FF                 4403 	.db #0xFF
   0B8E FD                 4404 	.db #0xFD
   0B8F FF                 4405 	.db #0xFF
   0B90 FD                 4406 	.db #0xFD
   0B91 FF                 4407 	.db #0xFF
   0B92 FD                 4408 	.db #0xFD
   0B93 FF                 4409 	.db #0xFF
   0B94 FD                 4410 	.db #0xFD
   0B95 FF                 4411 	.db #0xFF
   0B96 FD                 4412 	.db #0xFD
   0B97 FF                 4413 	.db #0xFF
   0B98 FD                 4414 	.db #0xFD
   0B99 FF                 4415 	.db #0xFF
   0B9A 01                 4416 	.db #0x01
   0B9B FF                 4417 	.db #0xFF
   0B9C FF                 4418 	.db #0xFF
   0B9D AA                 4419 	.db #0xAA
   0B9E FF                 4420 	.db #0xFF
   0B9F 55                 4421 	.db #0x55
   0BA0 FF                 4422 	.db #0xFF
   0BA1 AA                 4423 	.db #0xAA
   0BA2 55                 4424 	.db #0x55
   0BA3 55                 4425 	.db #0x55
   0BA4 AA                 4426 	.db #0xAA
   0BA5 AA                 4427 	.db #0xAA
   0BA6 00                 4428 	.db #0x00
   0BA7 55                 4429 	.db #0x55
   0BA8 00                 4430 	.db #0x00
   0BA9 00                 4431 	.db #0x00
   0BAA 00                 4432 	.db #0x00
   0BAB 00                 4433 	.db #0x00
   0BAC 00                 4434 	.db #0x00
   0BAD FF                 4435 	.db #0xFF
   0BAE BF                 4436 	.db #0xBF
   0BAF FF                 4437 	.db #0xFF
   0BB0 BF                 4438 	.db #0xBF
   0BB1 FF                 4439 	.db #0xFF
   0BB2 BF                 4440 	.db #0xBF
   0BB3 FF                 4441 	.db #0xFF
   0BB4 BF                 4442 	.db #0xBF
   0BB5 FF                 4443 	.db #0xFF
   0BB6 BF                 4444 	.db #0xBF
   0BB7 FF                 4445 	.db #0xFF
   0BB8 BF                 4446 	.db #0xBF
   0BB9 FF                 4447 	.db #0xFF
   0BBA 80                 4448 	.db #0x80
   0BBB FF                 4449 	.db #0xFF
   0BBC FF                 4450 	.db #0xFF
   0BBD FF                 4451 	.db #0xFF
   0BBE FF                 4452 	.db #0xFF
   0BBF FF                 4453 	.db #0xFF
   0BC0 FF                 4454 	.db #0xFF
   0BC1 FF                 4455 	.db #0xFF
   0BC2 FF                 4456 	.db #0xFF
   0BC3 FF                 4457 	.db #0xFF
   0BC4 FF                 4458 	.db #0xFF
   0BC5 FF                 4459 	.db #0xFF
   0BC6 FF                 4460 	.db #0xFF
   0BC7 FF                 4461 	.db #0xFF
   0BC8 FF                 4462 	.db #0xFF
   0BC9 FF                 4463 	.db #0xFF
   0BCA FF                 4464 	.db #0xFF
   0BCB FF                 4465 	.db #0xFF
   0BCC 7F                 4466 	.db #0x7F
   0BCD FF                 4467 	.db #0xFF
   0BCE FD                 4468 	.db #0xFD
   0BCF FF                 4469 	.db #0xFF
   0BD0 FD                 4470 	.db #0xFD
   0BD1 FF                 4471 	.db #0xFF
   0BD2 FD                 4472 	.db #0xFD
   0BD3 FF                 4473 	.db #0xFF
   0BD4 FD                 4474 	.db #0xFD
   0BD5 FF                 4475 	.db #0xFF
   0BD6 FD                 4476 	.db #0xFD
   0BD7 FF                 4477 	.db #0xFF
   0BD8 FD                 4478 	.db #0xFD
   0BD9 FF                 4479 	.db #0xFF
   0BDA FD                 4480 	.db #0xFD
   0BDB FF                 4481 	.db #0xFF
   0BDC FD                 4482 	.db #0xFD
   0BDD 00                 4483 	.db #0x00
   0BDE 00                 4484 	.db #0x00
   0BDF 00                 4485 	.db #0x00
   0BE0 00                 4486 	.db #0x00
   0BE1 00                 4487 	.db #0x00
   0BE2 00                 4488 	.db #0x00
   0BE3 00                 4489 	.db #0x00
   0BE4 00                 4490 	.db #0x00
   0BE5 00                 4491 	.db #0x00
   0BE6 00                 4492 	.db #0x00
   0BE7 00                 4493 	.db #0x00
   0BE8 00                 4494 	.db #0x00
   0BE9 00                 4495 	.db #0x00
   0BEA 00                 4496 	.db #0x00
   0BEB 00                 4497 	.db #0x00
   0BEC 00                 4498 	.db #0x00
   0BED FF                 4499 	.db #0xFF
   0BEE BF                 4500 	.db #0xBF
   0BEF FF                 4501 	.db #0xFF
   0BF0 BF                 4502 	.db #0xBF
   0BF1 FF                 4503 	.db #0xFF
   0BF2 BF                 4504 	.db #0xBF
   0BF3 FF                 4505 	.db #0xFF
   0BF4 BF                 4506 	.db #0xBF
   0BF5 FF                 4507 	.db #0xFF
   0BF6 BF                 4508 	.db #0xBF
   0BF7 FF                 4509 	.db #0xFF
   0BF8 BF                 4510 	.db #0xBF
   0BF9 FF                 4511 	.db #0xFF
   0BFA BF                 4512 	.db #0xBF
   0BFB FF                 4513 	.db #0xFF
   0BFC BF                 4514 	.db #0xBF
   0BFD FF                 4515 	.db #0xFF
   0BFE FF                 4516 	.db #0xFF
   0BFF FF                 4517 	.db #0xFF
   0C00 00                 4518 	.db #0x00
   0C01 FF                 4519 	.db #0xFF
   0C02 00                 4520 	.db #0x00
   0C03 FF                 4521 	.db #0xFF
   0C04 00                 4522 	.db #0x00
   0C05 FF                 4523 	.db #0xFF
   0C06 00                 4524 	.db #0x00
   0C07 FF                 4525 	.db #0xFF
   0C08 00                 4526 	.db #0x00
   0C09 FF                 4527 	.db #0xFF
   0C0A 00                 4528 	.db #0x00
   0C0B FF                 4529 	.db #0xFF
   0C0C 00                 4530 	.db #0x00
   0C0D FF                 4531 	.db #0xFF
   0C0E 00                 4532 	.db #0x00
   0C0F FF                 4533 	.db #0xFF
   0C10 00                 4534 	.db #0x00
   0C11 FF                 4535 	.db #0xFF
   0C12 00                 4536 	.db #0x00
   0C13 FF                 4537 	.db #0xFF
   0C14 00                 4538 	.db #0x00
   0C15 FF                 4539 	.db #0xFF
   0C16 00                 4540 	.db #0x00
   0C17 FF                 4541 	.db #0xFF
   0C18 00                 4542 	.db #0x00
   0C19 FF                 4543 	.db #0xFF
   0C1A 00                 4544 	.db #0x00
   0C1B FF                 4545 	.db #0xFF
   0C1C 00                 4546 	.db #0x00
   0C1D FF                 4547 	.db #0xFF
   0C1E FE                 4548 	.db #0xFE
   0C1F FF                 4549 	.db #0xFF
   0C20 FF                 4550 	.db #0xFF
   0C21 FF                 4551 	.db #0xFF
   0C22 FF                 4552 	.db #0xFF
   0C23 FF                 4553 	.db #0xFF
   0C24 FF                 4554 	.db #0xFF
   0C25 FF                 4555 	.db #0xFF
   0C26 FF                 4556 	.db #0xFF
   0C27 FF                 4557 	.db #0xFF
   0C28 FF                 4558 	.db #0xFF
   0C29 FF                 4559 	.db #0xFF
   0C2A FF                 4560 	.db #0xFF
   0C2B FF                 4561 	.db #0xFF
   0C2C FF                 4562 	.db #0xFF
   0C2D FF                 4563 	.db #0xFF
   0C2E FF                 4564 	.db #0xFF
   0C2F FF                 4565 	.db #0xFF
   0C30 00                 4566 	.db #0x00
   0C31 FF                 4567 	.db #0xFF
   0C32 FF                 4568 	.db #0xFF
   0C33 FF                 4569 	.db #0xFF
   0C34 FF                 4570 	.db #0xFF
   0C35 FF                 4571 	.db #0xFF
   0C36 FF                 4572 	.db #0xFF
   0C37 FF                 4573 	.db #0xFF
   0C38 FF                 4574 	.db #0xFF
   0C39 FF                 4575 	.db #0xFF
   0C3A FF                 4576 	.db #0xFF
   0C3B FF                 4577 	.db #0xFF
   0C3C FF                 4578 	.db #0xFF
   0C3D FF                 4579 	.db #0xFF
   0C3E 7F                 4580 	.db #0x7F
   0C3F FF                 4581 	.db #0xFF
   0C40 FF                 4582 	.db #0xFF
   0C41 FF                 4583 	.db #0xFF
   0C42 FF                 4584 	.db #0xFF
   0C43 FF                 4585 	.db #0xFF
   0C44 FF                 4586 	.db #0xFF
   0C45 FF                 4587 	.db #0xFF
   0C46 FF                 4588 	.db #0xFF
   0C47 FF                 4589 	.db #0xFF
   0C48 FF                 4590 	.db #0xFF
   0C49 FF                 4591 	.db #0xFF
   0C4A FF                 4592 	.db #0xFF
   0C4B FF                 4593 	.db #0xFF
   0C4C FF                 4594 	.db #0xFF
   0C4D                    4595 _room_top_map:
   0C4D 00                 4596 	.db #0x00
   0C4E 00                 4597 	.db #0x00
   0C4F 00                 4598 	.db #0x00
   0C50 00                 4599 	.db #0x00
   0C51 00                 4600 	.db #0x00
   0C52 00                 4601 	.db #0x00
   0C53 00                 4602 	.db #0x00
   0C54 00                 4603 	.db #0x00
   0C55 00                 4604 	.db #0x00
   0C56 00                 4605 	.db #0x00
   0C57 00                 4606 	.db #0x00
   0C58 00                 4607 	.db #0x00
   0C59 00                 4608 	.db #0x00
   0C5A 00                 4609 	.db #0x00
   0C5B 00                 4610 	.db #0x00
   0C5C 00                 4611 	.db #0x00
   0C5D 00                 4612 	.db #0x00
   0C5E 00                 4613 	.db #0x00
   0C5F 00                 4614 	.db #0x00
   0C60 00                 4615 	.db #0x00
   0C61 00                 4616 	.db #0x00
   0C62 00                 4617 	.db #0x00
   0C63 00                 4618 	.db #0x00
   0C64 00                 4619 	.db #0x00
   0C65 00                 4620 	.db #0x00
   0C66 00                 4621 	.db #0x00
   0C67 00                 4622 	.db #0x00
   0C68 00                 4623 	.db #0x00
   0C69 00                 4624 	.db #0x00
   0C6A 00                 4625 	.db #0x00
   0C6B 00                 4626 	.db #0x00
   0C6C 00                 4627 	.db #0x00
   0C6D 00                 4628 	.db #0x00
   0C6E 00                 4629 	.db #0x00
   0C6F 00                 4630 	.db #0x00
   0C70 00                 4631 	.db #0x00
   0C71 00                 4632 	.db #0x00
   0C72 00                 4633 	.db #0x00
   0C73 00                 4634 	.db #0x00
   0C74 00                 4635 	.db #0x00
   0C75 00                 4636 	.db #0x00
   0C76 01                 4637 	.db #0x01
   0C77 02                 4638 	.db #0x02
   0C78 02                 4639 	.db #0x02
   0C79 02                 4640 	.db #0x02
   0C7A 02                 4641 	.db #0x02
   0C7B 02                 4642 	.db #0x02
   0C7C 02                 4643 	.db #0x02
   0C7D 03                 4644 	.db #0x03
   0C7E 04                 4645 	.db #0x04
   0C7F 04                 4646 	.db #0x04
   0C80 05                 4647 	.db #0x05
   0C81 02                 4648 	.db #0x02
   0C82 02                 4649 	.db #0x02
   0C83 02                 4650 	.db #0x02
   0C84 02                 4651 	.db #0x02
   0C85 02                 4652 	.db #0x02
   0C86 02                 4653 	.db #0x02
   0C87 06                 4654 	.db #0x06
   0C88 00                 4655 	.db #0x00
   0C89 00                 4656 	.db #0x00
   0C8A 07                 4657 	.db #0x07
   0C8B 08                 4658 	.db #0x08
   0C8C 08                 4659 	.db #0x08
   0C8D 08                 4660 	.db #0x08
   0C8E 08                 4661 	.db #0x08
   0C8F 08                 4662 	.db #0x08
   0C90 08                 4663 	.db #0x08
   0C91 08                 4664 	.db #0x08
   0C92 08                 4665 	.db #0x08
   0C93 08                 4666 	.db #0x08
   0C94 08                 4667 	.db #0x08
   0C95 08                 4668 	.db #0x08
   0C96 08                 4669 	.db #0x08
   0C97 08                 4670 	.db #0x08
   0C98 08                 4671 	.db #0x08
   0C99 08                 4672 	.db #0x08
   0C9A 08                 4673 	.db #0x08
   0C9B 09                 4674 	.db #0x09
   0C9C 00                 4675 	.db #0x00
   0C9D 00                 4676 	.db #0x00
   0C9E 07                 4677 	.db #0x07
   0C9F 08                 4678 	.db #0x08
   0CA0 08                 4679 	.db #0x08
   0CA1 08                 4680 	.db #0x08
   0CA2 08                 4681 	.db #0x08
   0CA3 08                 4682 	.db #0x08
   0CA4 08                 4683 	.db #0x08
   0CA5 08                 4684 	.db #0x08
   0CA6 08                 4685 	.db #0x08
   0CA7 08                 4686 	.db #0x08
   0CA8 08                 4687 	.db #0x08
   0CA9 08                 4688 	.db #0x08
   0CAA 08                 4689 	.db #0x08
   0CAB 08                 4690 	.db #0x08
   0CAC 08                 4691 	.db #0x08
   0CAD 08                 4692 	.db #0x08
   0CAE 08                 4693 	.db #0x08
   0CAF 09                 4694 	.db #0x09
   0CB0 00                 4695 	.db #0x00
   0CB1 00                 4696 	.db #0x00
   0CB2 07                 4697 	.db #0x07
   0CB3 08                 4698 	.db #0x08
   0CB4 08                 4699 	.db #0x08
   0CB5 08                 4700 	.db #0x08
   0CB6 08                 4701 	.db #0x08
   0CB7 08                 4702 	.db #0x08
   0CB8 08                 4703 	.db #0x08
   0CB9 08                 4704 	.db #0x08
   0CBA 08                 4705 	.db #0x08
   0CBB 08                 4706 	.db #0x08
   0CBC 08                 4707 	.db #0x08
   0CBD 08                 4708 	.db #0x08
   0CBE 08                 4709 	.db #0x08
   0CBF 08                 4710 	.db #0x08
   0CC0 08                 4711 	.db #0x08
   0CC1 08                 4712 	.db #0x08
   0CC2 08                 4713 	.db #0x08
   0CC3 09                 4714 	.db #0x09
   0CC4 00                 4715 	.db #0x00
   0CC5 00                 4716 	.db #0x00
   0CC6 07                 4717 	.db #0x07
   0CC7 08                 4718 	.db #0x08
   0CC8 08                 4719 	.db #0x08
   0CC9 08                 4720 	.db #0x08
   0CCA 08                 4721 	.db #0x08
   0CCB 08                 4722 	.db #0x08
   0CCC 08                 4723 	.db #0x08
   0CCD 08                 4724 	.db #0x08
   0CCE 08                 4725 	.db #0x08
   0CCF 08                 4726 	.db #0x08
   0CD0 08                 4727 	.db #0x08
   0CD1 08                 4728 	.db #0x08
   0CD2 08                 4729 	.db #0x08
   0CD3 08                 4730 	.db #0x08
   0CD4 08                 4731 	.db #0x08
   0CD5 08                 4732 	.db #0x08
   0CD6 08                 4733 	.db #0x08
   0CD7 09                 4734 	.db #0x09
   0CD8 00                 4735 	.db #0x00
   0CD9 00                 4736 	.db #0x00
   0CDA 07                 4737 	.db #0x07
   0CDB 08                 4738 	.db #0x08
   0CDC 08                 4739 	.db #0x08
   0CDD 08                 4740 	.db #0x08
   0CDE 08                 4741 	.db #0x08
   0CDF 08                 4742 	.db #0x08
   0CE0 08                 4743 	.db #0x08
   0CE1 08                 4744 	.db #0x08
   0CE2 08                 4745 	.db #0x08
   0CE3 08                 4746 	.db #0x08
   0CE4 08                 4747 	.db #0x08
   0CE5 08                 4748 	.db #0x08
   0CE6 08                 4749 	.db #0x08
   0CE7 08                 4750 	.db #0x08
   0CE8 08                 4751 	.db #0x08
   0CE9 08                 4752 	.db #0x08
   0CEA 08                 4753 	.db #0x08
   0CEB 09                 4754 	.db #0x09
   0CEC 00                 4755 	.db #0x00
   0CED 00                 4756 	.db #0x00
   0CEE 07                 4757 	.db #0x07
   0CEF 08                 4758 	.db #0x08
   0CF0 08                 4759 	.db #0x08
   0CF1 08                 4760 	.db #0x08
   0CF2 08                 4761 	.db #0x08
   0CF3 08                 4762 	.db #0x08
   0CF4 08                 4763 	.db #0x08
   0CF5 08                 4764 	.db #0x08
   0CF6 08                 4765 	.db #0x08
   0CF7 08                 4766 	.db #0x08
   0CF8 08                 4767 	.db #0x08
   0CF9 08                 4768 	.db #0x08
   0CFA 08                 4769 	.db #0x08
   0CFB 08                 4770 	.db #0x08
   0CFC 08                 4771 	.db #0x08
   0CFD 08                 4772 	.db #0x08
   0CFE 08                 4773 	.db #0x08
   0CFF 09                 4774 	.db #0x09
   0D00 00                 4775 	.db #0x00
   0D01 00                 4776 	.db #0x00
   0D02 07                 4777 	.db #0x07
   0D03 08                 4778 	.db #0x08
   0D04 08                 4779 	.db #0x08
   0D05 08                 4780 	.db #0x08
   0D06 08                 4781 	.db #0x08
   0D07 08                 4782 	.db #0x08
   0D08 08                 4783 	.db #0x08
   0D09 08                 4784 	.db #0x08
   0D0A 08                 4785 	.db #0x08
   0D0B 08                 4786 	.db #0x08
   0D0C 08                 4787 	.db #0x08
   0D0D 08                 4788 	.db #0x08
   0D0E 08                 4789 	.db #0x08
   0D0F 08                 4790 	.db #0x08
   0D10 08                 4791 	.db #0x08
   0D11 08                 4792 	.db #0x08
   0D12 08                 4793 	.db #0x08
   0D13 09                 4794 	.db #0x09
   0D14 00                 4795 	.db #0x00
   0D15 00                 4796 	.db #0x00
   0D16 07                 4797 	.db #0x07
   0D17 08                 4798 	.db #0x08
   0D18 08                 4799 	.db #0x08
   0D19 08                 4800 	.db #0x08
   0D1A 08                 4801 	.db #0x08
   0D1B 08                 4802 	.db #0x08
   0D1C 08                 4803 	.db #0x08
   0D1D 08                 4804 	.db #0x08
   0D1E 08                 4805 	.db #0x08
   0D1F 08                 4806 	.db #0x08
   0D20 08                 4807 	.db #0x08
   0D21 08                 4808 	.db #0x08
   0D22 08                 4809 	.db #0x08
   0D23 08                 4810 	.db #0x08
   0D24 08                 4811 	.db #0x08
   0D25 08                 4812 	.db #0x08
   0D26 08                 4813 	.db #0x08
   0D27 09                 4814 	.db #0x09
   0D28 00                 4815 	.db #0x00
   0D29 00                 4816 	.db #0x00
   0D2A 07                 4817 	.db #0x07
   0D2B 08                 4818 	.db #0x08
   0D2C 08                 4819 	.db #0x08
   0D2D 08                 4820 	.db #0x08
   0D2E 08                 4821 	.db #0x08
   0D2F 08                 4822 	.db #0x08
   0D30 08                 4823 	.db #0x08
   0D31 08                 4824 	.db #0x08
   0D32 08                 4825 	.db #0x08
   0D33 08                 4826 	.db #0x08
   0D34 08                 4827 	.db #0x08
   0D35 08                 4828 	.db #0x08
   0D36 08                 4829 	.db #0x08
   0D37 08                 4830 	.db #0x08
   0D38 08                 4831 	.db #0x08
   0D39 08                 4832 	.db #0x08
   0D3A 08                 4833 	.db #0x08
   0D3B 09                 4834 	.db #0x09
   0D3C 00                 4835 	.db #0x00
   0D3D 00                 4836 	.db #0x00
   0D3E 07                 4837 	.db #0x07
   0D3F 08                 4838 	.db #0x08
   0D40 08                 4839 	.db #0x08
   0D41 08                 4840 	.db #0x08
   0D42 08                 4841 	.db #0x08
   0D43 08                 4842 	.db #0x08
   0D44 08                 4843 	.db #0x08
   0D45 08                 4844 	.db #0x08
   0D46 08                 4845 	.db #0x08
   0D47 08                 4846 	.db #0x08
   0D48 08                 4847 	.db #0x08
   0D49 08                 4848 	.db #0x08
   0D4A 08                 4849 	.db #0x08
   0D4B 08                 4850 	.db #0x08
   0D4C 08                 4851 	.db #0x08
   0D4D 08                 4852 	.db #0x08
   0D4E 08                 4853 	.db #0x08
   0D4F 09                 4854 	.db #0x09
   0D50 00                 4855 	.db #0x00
   0D51 00                 4856 	.db #0x00
   0D52 07                 4857 	.db #0x07
   0D53 08                 4858 	.db #0x08
   0D54 08                 4859 	.db #0x08
   0D55 08                 4860 	.db #0x08
   0D56 08                 4861 	.db #0x08
   0D57 08                 4862 	.db #0x08
   0D58 08                 4863 	.db #0x08
   0D59 08                 4864 	.db #0x08
   0D5A 08                 4865 	.db #0x08
   0D5B 08                 4866 	.db #0x08
   0D5C 08                 4867 	.db #0x08
   0D5D 08                 4868 	.db #0x08
   0D5E 08                 4869 	.db #0x08
   0D5F 08                 4870 	.db #0x08
   0D60 08                 4871 	.db #0x08
   0D61 08                 4872 	.db #0x08
   0D62 08                 4873 	.db #0x08
   0D63 09                 4874 	.db #0x09
   0D64 00                 4875 	.db #0x00
   0D65 00                 4876 	.db #0x00
   0D66 07                 4877 	.db #0x07
   0D67 0A                 4878 	.db #0x0A
   0D68 0A                 4879 	.db #0x0A
   0D69 0A                 4880 	.db #0x0A
   0D6A 0A                 4881 	.db #0x0A
   0D6B 0A                 4882 	.db #0x0A
   0D6C 0A                 4883 	.db #0x0A
   0D6D 0A                 4884 	.db #0x0A
   0D6E 0A                 4885 	.db #0x0A
   0D6F 0A                 4886 	.db #0x0A
   0D70 0A                 4887 	.db #0x0A
   0D71 0A                 4888 	.db #0x0A
   0D72 0A                 4889 	.db #0x0A
   0D73 0A                 4890 	.db #0x0A
   0D74 0A                 4891 	.db #0x0A
   0D75 0A                 4892 	.db #0x0A
   0D76 0A                 4893 	.db #0x0A
   0D77 09                 4894 	.db #0x09
   0D78 00                 4895 	.db #0x00
   0D79 00                 4896 	.db #0x00
   0D7A 07                 4897 	.db #0x07
   0D7B 0B                 4898 	.db #0x0B
   0D7C 0B                 4899 	.db #0x0B
   0D7D 0B                 4900 	.db #0x0B
   0D7E 0B                 4901 	.db #0x0B
   0D7F 0B                 4902 	.db #0x0B
   0D80 0B                 4903 	.db #0x0B
   0D81 0B                 4904 	.db #0x0B
   0D82 0B                 4905 	.db #0x0B
   0D83 0B                 4906 	.db #0x0B
   0D84 0B                 4907 	.db #0x0B
   0D85 0B                 4908 	.db #0x0B
   0D86 0B                 4909 	.db #0x0B
   0D87 0B                 4910 	.db #0x0B
   0D88 0B                 4911 	.db #0x0B
   0D89 0B                 4912 	.db #0x0B
   0D8A 0B                 4913 	.db #0x0B
   0D8B 09                 4914 	.db #0x09
   0D8C 00                 4915 	.db #0x00
   0D8D 00                 4916 	.db #0x00
   0D8E 0C                 4917 	.db #0x0C
   0D8F 0D                 4918 	.db #0x0D
   0D90 0D                 4919 	.db #0x0D
   0D91 0D                 4920 	.db #0x0D
   0D92 0D                 4921 	.db #0x0D
   0D93 0D                 4922 	.db #0x0D
   0D94 0D                 4923 	.db #0x0D
   0D95 0D                 4924 	.db #0x0D
   0D96 0D                 4925 	.db #0x0D
   0D97 0D                 4926 	.db #0x0D
   0D98 0D                 4927 	.db #0x0D
   0D99 0D                 4928 	.db #0x0D
   0D9A 0D                 4929 	.db #0x0D
   0D9B 0D                 4930 	.db #0x0D
   0D9C 0D                 4931 	.db #0x0D
   0D9D 0D                 4932 	.db #0x0D
   0D9E 0D                 4933 	.db #0x0D
   0D9F 0E                 4934 	.db #0x0E
   0DA0 00                 4935 	.db #0x00
   0DA1 00                 4936 	.db #0x00
   0DA2 00                 4937 	.db #0x00
   0DA3 00                 4938 	.db #0x00
   0DA4 00                 4939 	.db #0x00
   0DA5 00                 4940 	.db #0x00
   0DA6 00                 4941 	.db #0x00
   0DA7 00                 4942 	.db #0x00
   0DA8 00                 4943 	.db #0x00
   0DA9 00                 4944 	.db #0x00
   0DAA 00                 4945 	.db #0x00
   0DAB 00                 4946 	.db #0x00
   0DAC 00                 4947 	.db #0x00
   0DAD 00                 4948 	.db #0x00
   0DAE 00                 4949 	.db #0x00
   0DAF 00                 4950 	.db #0x00
   0DB0 00                 4951 	.db #0x00
   0DB1 00                 4952 	.db #0x00
   0DB2 00                 4953 	.db #0x00
   0DB3 00                 4954 	.db #0x00
   0DB4 00                 4955 	.db #0x00
   0DB5                    4956 _room_middle_data:
   0DB5 FF                 4957 	.db #0xFF
   0DB6 FF                 4958 	.db #0xFF
   0DB7 FF                 4959 	.db #0xFF
   0DB8 FF                 4960 	.db #0xFF
   0DB9 FF                 4961 	.db #0xFF
   0DBA FF                 4962 	.db #0xFF
   0DBB FF                 4963 	.db #0xFF
   0DBC FF                 4964 	.db #0xFF
   0DBD FF                 4965 	.db #0xFF
   0DBE FF                 4966 	.db #0xFF
   0DBF FF                 4967 	.db #0xFF
   0DC0 FF                 4968 	.db #0xFF
   0DC1 FF                 4969 	.db #0xFF
   0DC2 FF                 4970 	.db #0xFF
   0DC3 FF                 4971 	.db #0xFF
   0DC4 FF                 4972 	.db #0xFF
   0DC5 FF                 4973 	.db #0xFF
   0DC6 FF                 4974 	.db #0xFF
   0DC7 FF                 4975 	.db #0xFF
   0DC8 FF                 4976 	.db #0xFF
   0DC9 FF                 4977 	.db #0xFF
   0DCA FF                 4978 	.db #0xFF
   0DCB FF                 4979 	.db #0xFF
   0DCC FF                 4980 	.db #0xFF
   0DCD FF                 4981 	.db #0xFF
   0DCE FF                 4982 	.db #0xFF
   0DCF FF                 4983 	.db #0xFF
   0DD0 FF                 4984 	.db #0xFF
   0DD1 FF                 4985 	.db #0xFF
   0DD2 FF                 4986 	.db #0xFF
   0DD3 FE                 4987 	.db #0xFE
   0DD4 FE                 4988 	.db #0xFE
   0DD5 FF                 4989 	.db #0xFF
   0DD6 FF                 4990 	.db #0xFF
   0DD7 FF                 4991 	.db #0xFF
   0DD8 FF                 4992 	.db #0xFF
   0DD9 FF                 4993 	.db #0xFF
   0DDA FF                 4994 	.db #0xFF
   0DDB FF                 4995 	.db #0xFF
   0DDC FF                 4996 	.db #0xFF
   0DDD FF                 4997 	.db #0xFF
   0DDE FF                 4998 	.db #0xFF
   0DDF FF                 4999 	.db #0xFF
   0DE0 FF                 5000 	.db #0xFF
   0DE1 00                 5001 	.db #0x00
   0DE2 00                 5002 	.db #0x00
   0DE3 00                 5003 	.db #0x00
   0DE4 FF                 5004 	.db #0xFF
   0DE5 FD                 5005 	.db #0xFD
   0DE6 FD                 5006 	.db #0xFD
   0DE7 FD                 5007 	.db #0xFD
   0DE8 FD                 5008 	.db #0xFD
   0DE9 FD                 5009 	.db #0xFD
   0DEA FD                 5010 	.db #0xFD
   0DEB FC                 5011 	.db #0xFC
   0DEC FD                 5012 	.db #0xFD
   0DED FC                 5013 	.db #0xFC
   0DEE FD                 5014 	.db #0xFD
   0DEF FC                 5015 	.db #0xFC
   0DF0 FD                 5016 	.db #0xFD
   0DF1 00                 5017 	.db #0x00
   0DF2 01                 5018 	.db #0x01
   0DF3 00                 5019 	.db #0x00
   0DF4 FF                 5020 	.db #0xFF
   0DF5 55                 5021 	.db #0x55
   0DF6 FF                 5022 	.db #0xFF
   0DF7 AA                 5023 	.db #0xAA
   0DF8 FF                 5024 	.db #0xFF
   0DF9 AA                 5025 	.db #0xAA
   0DFA 00                 5026 	.db #0x00
   0DFB 55                 5027 	.db #0x55
   0DFC 00                 5028 	.db #0x00
   0DFD 00                 5029 	.db #0x00
   0DFE 00                 5030 	.db #0x00
   0DFF 00                 5031 	.db #0x00
   0E00 00                 5032 	.db #0x00
   0E01 00                 5033 	.db #0x00
   0E02 00                 5034 	.db #0x00
   0E03 00                 5035 	.db #0x00
   0E04 00                 5036 	.db #0x00
   0E05 BF                 5037 	.db #0xBF
   0E06 BF                 5038 	.db #0xBF
   0E07 BF                 5039 	.db #0xBF
   0E08 BF                 5040 	.db #0xBF
   0E09 BF                 5041 	.db #0xBF
   0E0A BF                 5042 	.db #0xBF
   0E0B BF                 5043 	.db #0xBF
   0E0C BF                 5044 	.db #0xBF
   0E0D 3F                 5045 	.db #0x3F
   0E0E BF                 5046 	.db #0xBF
   0E0F 3F                 5047 	.db #0x3F
   0E10 BF                 5048 	.db #0xBF
   0E11 00                 5049 	.db #0x00
   0E12 80                 5050 	.db #0x80
   0E13 00                 5051 	.db #0x00
   0E14 FF                 5052 	.db #0xFF
   0E15 FF                 5053 	.db #0xFF
   0E16 FF                 5054 	.db #0xFF
   0E17 FF                 5055 	.db #0xFF
   0E18 FF                 5056 	.db #0xFF
   0E19 FF                 5057 	.db #0xFF
   0E1A FF                 5058 	.db #0xFF
   0E1B FF                 5059 	.db #0xFF
   0E1C FF                 5060 	.db #0xFF
   0E1D FF                 5061 	.db #0xFF
   0E1E FF                 5062 	.db #0xFF
   0E1F FF                 5063 	.db #0xFF
   0E20 FF                 5064 	.db #0xFF
   0E21 FF                 5065 	.db #0xFF
   0E22 FF                 5066 	.db #0xFF
   0E23 7F                 5067 	.db #0x7F
   0E24 7F                 5068 	.db #0x7F
   0E25 FC                 5069 	.db #0xFC
   0E26 FD                 5070 	.db #0xFD
   0E27 FC                 5071 	.db #0xFC
   0E28 FD                 5072 	.db #0xFD
   0E29 FC                 5073 	.db #0xFC
   0E2A FD                 5074 	.db #0xFD
   0E2B FC                 5075 	.db #0xFC
   0E2C FD                 5076 	.db #0xFD
   0E2D FC                 5077 	.db #0xFC
   0E2E FD                 5078 	.db #0xFD
   0E2F FC                 5079 	.db #0xFC
   0E30 FD                 5080 	.db #0xFD
   0E31 FC                 5081 	.db #0xFC
   0E32 FD                 5082 	.db #0xFD
   0E33 FC                 5083 	.db #0xFC
   0E34 FD                 5084 	.db #0xFD
   0E35 00                 5085 	.db #0x00
   0E36 00                 5086 	.db #0x00
   0E37 00                 5087 	.db #0x00
   0E38 00                 5088 	.db #0x00
   0E39 00                 5089 	.db #0x00
   0E3A 00                 5090 	.db #0x00
   0E3B 00                 5091 	.db #0x00
   0E3C 00                 5092 	.db #0x00
   0E3D 00                 5093 	.db #0x00
   0E3E 00                 5094 	.db #0x00
   0E3F 00                 5095 	.db #0x00
   0E40 00                 5096 	.db #0x00
   0E41 00                 5097 	.db #0x00
   0E42 00                 5098 	.db #0x00
   0E43 00                 5099 	.db #0x00
   0E44 00                 5100 	.db #0x00
   0E45 3F                 5101 	.db #0x3F
   0E46 BF                 5102 	.db #0xBF
   0E47 3F                 5103 	.db #0x3F
   0E48 BF                 5104 	.db #0xBF
   0E49 3F                 5105 	.db #0x3F
   0E4A BF                 5106 	.db #0xBF
   0E4B 3F                 5107 	.db #0x3F
   0E4C BF                 5108 	.db #0xBF
   0E4D 3F                 5109 	.db #0x3F
   0E4E BF                 5110 	.db #0xBF
   0E4F 3F                 5111 	.db #0x3F
   0E50 BF                 5112 	.db #0xBF
   0E51 3F                 5113 	.db #0x3F
   0E52 BF                 5114 	.db #0xBF
   0E53 3F                 5115 	.db #0x3F
   0E54 BF                 5116 	.db #0xBF
   0E55 FC                 5117 	.db #0xFC
   0E56 FD                 5118 	.db #0xFD
   0E57 FC                 5119 	.db #0xFC
   0E58 FD                 5120 	.db #0xFD
   0E59 FC                 5121 	.db #0xFC
   0E5A FD                 5122 	.db #0xFD
   0E5B FC                 5123 	.db #0xFC
   0E5C FD                 5124 	.db #0xFD
   0E5D FC                 5125 	.db #0xFC
   0E5E FD                 5126 	.db #0xFD
   0E5F FC                 5127 	.db #0xFC
   0E60 FD                 5128 	.db #0xFD
   0E61 FC                 5129 	.db #0xFC
   0E62 FD                 5130 	.db #0xFD
   0E63 FE                 5131 	.db #0xFE
   0E64 FE                 5132 	.db #0xFE
   0E65 00                 5133 	.db #0x00
   0E66 00                 5134 	.db #0x00
   0E67 00                 5135 	.db #0x00
   0E68 00                 5136 	.db #0x00
   0E69 00                 5137 	.db #0x00
   0E6A 00                 5138 	.db #0x00
   0E6B 00                 5139 	.db #0x00
   0E6C 00                 5140 	.db #0x00
   0E6D 00                 5141 	.db #0x00
   0E6E 00                 5142 	.db #0x00
   0E6F 00                 5143 	.db #0x00
   0E70 00                 5144 	.db #0x00
   0E71 00                 5145 	.db #0x00
   0E72 00                 5146 	.db #0x00
   0E73 00                 5147 	.db #0x00
   0E74 FF                 5148 	.db #0xFF
   0E75 00                 5149 	.db #0x00
   0E76 00                 5150 	.db #0x00
   0E77 00                 5151 	.db #0x00
   0E78 00                 5152 	.db #0x00
   0E79 00                 5153 	.db #0x00
   0E7A 00                 5154 	.db #0x00
   0E7B 00                 5155 	.db #0x00
   0E7C 00                 5156 	.db #0x00
   0E7D 00                 5157 	.db #0x00
   0E7E 00                 5158 	.db #0x00
   0E7F 00                 5159 	.db #0x00
   0E80 00                 5160 	.db #0x00
   0E81 00                 5161 	.db #0x00
   0E82 00                 5162 	.db #0x00
   0E83 01                 5163 	.db #0x01
   0E84 FE                 5164 	.db #0xFE
   0E85 00                 5165 	.db #0x00
   0E86 00                 5166 	.db #0x00
   0E87 00                 5167 	.db #0x00
   0E88 00                 5168 	.db #0x00
   0E89 00                 5169 	.db #0x00
   0E8A 00                 5170 	.db #0x00
   0E8B 00                 5171 	.db #0x00
   0E8C 00                 5172 	.db #0x00
   0E8D 00                 5173 	.db #0x00
   0E8E 00                 5174 	.db #0x00
   0E8F 00                 5175 	.db #0x00
   0E90 00                 5176 	.db #0x00
   0E91 00                 5177 	.db #0x00
   0E92 00                 5178 	.db #0x00
   0E93 80                 5179 	.db #0x80
   0E94 7F                 5180 	.db #0x7F
   0E95 3F                 5181 	.db #0x3F
   0E96 BF                 5182 	.db #0xBF
   0E97 3F                 5183 	.db #0x3F
   0E98 BF                 5184 	.db #0xBF
   0E99 3F                 5185 	.db #0x3F
   0E9A BF                 5186 	.db #0xBF
   0E9B 3F                 5187 	.db #0x3F
   0E9C BF                 5188 	.db #0xBF
   0E9D 3F                 5189 	.db #0x3F
   0E9E BF                 5190 	.db #0xBF
   0E9F 3F                 5191 	.db #0x3F
   0EA0 BF                 5192 	.db #0xBF
   0EA1 3F                 5193 	.db #0x3F
   0EA2 BF                 5194 	.db #0xBF
   0EA3 7F                 5195 	.db #0x7F
   0EA4 7F                 5196 	.db #0x7F
   0EA5 00                 5197 	.db #0x00
   0EA6 00                 5198 	.db #0x00
   0EA7 FF                 5199 	.db #0xFF
   0EA8 FF                 5200 	.db #0xFF
   0EA9 FF                 5201 	.db #0xFF
   0EAA FF                 5202 	.db #0xFF
   0EAB FF                 5203 	.db #0xFF
   0EAC FF                 5204 	.db #0xFF
   0EAD FF                 5205 	.db #0xFF
   0EAE FF                 5206 	.db #0xFF
   0EAF FF                 5207 	.db #0xFF
   0EB0 FF                 5208 	.db #0xFF
   0EB1 FF                 5209 	.db #0xFF
   0EB2 FF                 5210 	.db #0xFF
   0EB3 FF                 5211 	.db #0xFF
   0EB4 FF                 5212 	.db #0xFF
   0EB5 00                 5213 	.db #0x00
   0EB6 01                 5214 	.db #0x01
   0EB7 FC                 5215 	.db #0xFC
   0EB8 FD                 5216 	.db #0xFD
   0EB9 FC                 5217 	.db #0xFC
   0EBA FD                 5218 	.db #0xFD
   0EBB FC                 5219 	.db #0xFC
   0EBC FD                 5220 	.db #0xFD
   0EBD FD                 5221 	.db #0xFD
   0EBE FD                 5222 	.db #0xFD
   0EBF FD                 5223 	.db #0xFD
   0EC0 FD                 5224 	.db #0xFD
   0EC1 FD                 5225 	.db #0xFD
   0EC2 FD                 5226 	.db #0xFD
   0EC3 FF                 5227 	.db #0xFF
   0EC4 FF                 5228 	.db #0xFF
   0EC5 00                 5229 	.db #0x00
   0EC6 00                 5230 	.db #0x00
   0EC7 00                 5231 	.db #0x00
   0EC8 00                 5232 	.db #0x00
   0EC9 00                 5233 	.db #0x00
   0ECA 00                 5234 	.db #0x00
   0ECB 55                 5235 	.db #0x55
   0ECC 00                 5236 	.db #0x00
   0ECD AA                 5237 	.db #0xAA
   0ECE 00                 5238 	.db #0x00
   0ECF AA                 5239 	.db #0xAA
   0ED0 FF                 5240 	.db #0xFF
   0ED1 55                 5241 	.db #0x55
   0ED2 FF                 5242 	.db #0xFF
   0ED3 FF                 5243 	.db #0xFF
   0ED4 FF                 5244 	.db #0xFF
   0ED5 00                 5245 	.db #0x00
   0ED6 80                 5246 	.db #0x80
   0ED7 3F                 5247 	.db #0x3F
   0ED8 BF                 5248 	.db #0xBF
   0ED9 3F                 5249 	.db #0x3F
   0EDA BF                 5250 	.db #0xBF
   0EDB BF                 5251 	.db #0xBF
   0EDC BF                 5252 	.db #0xBF
   0EDD BF                 5253 	.db #0xBF
   0EDE BF                 5254 	.db #0xBF
   0EDF BF                 5255 	.db #0xBF
   0EE0 BF                 5256 	.db #0xBF
   0EE1 BF                 5257 	.db #0xBF
   0EE2 BF                 5258 	.db #0xBF
   0EE3 FF                 5259 	.db #0xFF
   0EE4 FF                 5260 	.db #0xFF
   0EE5                    5261 _room_middle_map:
   0EE5 00                 5262 	.db #0x00
   0EE6 00                 5263 	.db #0x00
   0EE7 00                 5264 	.db #0x00
   0EE8 00                 5265 	.db #0x00
   0EE9 00                 5266 	.db #0x00
   0EEA 00                 5267 	.db #0x00
   0EEB 00                 5268 	.db #0x00
   0EEC 00                 5269 	.db #0x00
   0EED 00                 5270 	.db #0x00
   0EEE 00                 5271 	.db #0x00
   0EEF 00                 5272 	.db #0x00
   0EF0 00                 5273 	.db #0x00
   0EF1 00                 5274 	.db #0x00
   0EF2 00                 5275 	.db #0x00
   0EF3 00                 5276 	.db #0x00
   0EF4 00                 5277 	.db #0x00
   0EF5 00                 5278 	.db #0x00
   0EF6 00                 5279 	.db #0x00
   0EF7 00                 5280 	.db #0x00
   0EF8 00                 5281 	.db #0x00
   0EF9 00                 5282 	.db #0x00
   0EFA 00                 5283 	.db #0x00
   0EFB 00                 5284 	.db #0x00
   0EFC 00                 5285 	.db #0x00
   0EFD 00                 5286 	.db #0x00
   0EFE 00                 5287 	.db #0x00
   0EFF 00                 5288 	.db #0x00
   0F00 00                 5289 	.db #0x00
   0F01 00                 5290 	.db #0x00
   0F02 00                 5291 	.db #0x00
   0F03 00                 5292 	.db #0x00
   0F04 00                 5293 	.db #0x00
   0F05 00                 5294 	.db #0x00
   0F06 00                 5295 	.db #0x00
   0F07 00                 5296 	.db #0x00
   0F08 00                 5297 	.db #0x00
   0F09 00                 5298 	.db #0x00
   0F0A 00                 5299 	.db #0x00
   0F0B 00                 5300 	.db #0x00
   0F0C 00                 5301 	.db #0x00
   0F0D 00                 5302 	.db #0x00
   0F0E 01                 5303 	.db #0x01
   0F0F 02                 5304 	.db #0x02
   0F10 02                 5305 	.db #0x02
   0F11 02                 5306 	.db #0x02
   0F12 02                 5307 	.db #0x02
   0F13 02                 5308 	.db #0x02
   0F14 02                 5309 	.db #0x02
   0F15 03                 5310 	.db #0x03
   0F16 04                 5311 	.db #0x04
   0F17 04                 5312 	.db #0x04
   0F18 05                 5313 	.db #0x05
   0F19 02                 5314 	.db #0x02
   0F1A 02                 5315 	.db #0x02
   0F1B 02                 5316 	.db #0x02
   0F1C 02                 5317 	.db #0x02
   0F1D 02                 5318 	.db #0x02
   0F1E 02                 5319 	.db #0x02
   0F1F 06                 5320 	.db #0x06
   0F20 00                 5321 	.db #0x00
   0F21 00                 5322 	.db #0x00
   0F22 07                 5323 	.db #0x07
   0F23 08                 5324 	.db #0x08
   0F24 08                 5325 	.db #0x08
   0F25 08                 5326 	.db #0x08
   0F26 08                 5327 	.db #0x08
   0F27 08                 5328 	.db #0x08
   0F28 08                 5329 	.db #0x08
   0F29 08                 5330 	.db #0x08
   0F2A 08                 5331 	.db #0x08
   0F2B 08                 5332 	.db #0x08
   0F2C 08                 5333 	.db #0x08
   0F2D 08                 5334 	.db #0x08
   0F2E 08                 5335 	.db #0x08
   0F2F 08                 5336 	.db #0x08
   0F30 08                 5337 	.db #0x08
   0F31 08                 5338 	.db #0x08
   0F32 08                 5339 	.db #0x08
   0F33 09                 5340 	.db #0x09
   0F34 00                 5341 	.db #0x00
   0F35 00                 5342 	.db #0x00
   0F36 07                 5343 	.db #0x07
   0F37 08                 5344 	.db #0x08
   0F38 08                 5345 	.db #0x08
   0F39 08                 5346 	.db #0x08
   0F3A 08                 5347 	.db #0x08
   0F3B 08                 5348 	.db #0x08
   0F3C 08                 5349 	.db #0x08
   0F3D 08                 5350 	.db #0x08
   0F3E 08                 5351 	.db #0x08
   0F3F 08                 5352 	.db #0x08
   0F40 08                 5353 	.db #0x08
   0F41 08                 5354 	.db #0x08
   0F42 08                 5355 	.db #0x08
   0F43 08                 5356 	.db #0x08
   0F44 08                 5357 	.db #0x08
   0F45 08                 5358 	.db #0x08
   0F46 08                 5359 	.db #0x08
   0F47 09                 5360 	.db #0x09
   0F48 00                 5361 	.db #0x00
   0F49 00                 5362 	.db #0x00
   0F4A 07                 5363 	.db #0x07
   0F4B 08                 5364 	.db #0x08
   0F4C 08                 5365 	.db #0x08
   0F4D 08                 5366 	.db #0x08
   0F4E 08                 5367 	.db #0x08
   0F4F 08                 5368 	.db #0x08
   0F50 08                 5369 	.db #0x08
   0F51 08                 5370 	.db #0x08
   0F52 08                 5371 	.db #0x08
   0F53 08                 5372 	.db #0x08
   0F54 08                 5373 	.db #0x08
   0F55 08                 5374 	.db #0x08
   0F56 08                 5375 	.db #0x08
   0F57 08                 5376 	.db #0x08
   0F58 08                 5377 	.db #0x08
   0F59 08                 5378 	.db #0x08
   0F5A 08                 5379 	.db #0x08
   0F5B 09                 5380 	.db #0x09
   0F5C 00                 5381 	.db #0x00
   0F5D 00                 5382 	.db #0x00
   0F5E 07                 5383 	.db #0x07
   0F5F 08                 5384 	.db #0x08
   0F60 08                 5385 	.db #0x08
   0F61 08                 5386 	.db #0x08
   0F62 08                 5387 	.db #0x08
   0F63 08                 5388 	.db #0x08
   0F64 08                 5389 	.db #0x08
   0F65 08                 5390 	.db #0x08
   0F66 08                 5391 	.db #0x08
   0F67 08                 5392 	.db #0x08
   0F68 08                 5393 	.db #0x08
   0F69 08                 5394 	.db #0x08
   0F6A 08                 5395 	.db #0x08
   0F6B 08                 5396 	.db #0x08
   0F6C 08                 5397 	.db #0x08
   0F6D 08                 5398 	.db #0x08
   0F6E 08                 5399 	.db #0x08
   0F6F 09                 5400 	.db #0x09
   0F70 00                 5401 	.db #0x00
   0F71 00                 5402 	.db #0x00
   0F72 07                 5403 	.db #0x07
   0F73 08                 5404 	.db #0x08
   0F74 08                 5405 	.db #0x08
   0F75 08                 5406 	.db #0x08
   0F76 08                 5407 	.db #0x08
   0F77 08                 5408 	.db #0x08
   0F78 08                 5409 	.db #0x08
   0F79 08                 5410 	.db #0x08
   0F7A 08                 5411 	.db #0x08
   0F7B 08                 5412 	.db #0x08
   0F7C 08                 5413 	.db #0x08
   0F7D 08                 5414 	.db #0x08
   0F7E 08                 5415 	.db #0x08
   0F7F 08                 5416 	.db #0x08
   0F80 08                 5417 	.db #0x08
   0F81 08                 5418 	.db #0x08
   0F82 08                 5419 	.db #0x08
   0F83 09                 5420 	.db #0x09
   0F84 00                 5421 	.db #0x00
   0F85 00                 5422 	.db #0x00
   0F86 07                 5423 	.db #0x07
   0F87 08                 5424 	.db #0x08
   0F88 08                 5425 	.db #0x08
   0F89 08                 5426 	.db #0x08
   0F8A 08                 5427 	.db #0x08
   0F8B 08                 5428 	.db #0x08
   0F8C 08                 5429 	.db #0x08
   0F8D 08                 5430 	.db #0x08
   0F8E 08                 5431 	.db #0x08
   0F8F 08                 5432 	.db #0x08
   0F90 08                 5433 	.db #0x08
   0F91 08                 5434 	.db #0x08
   0F92 08                 5435 	.db #0x08
   0F93 08                 5436 	.db #0x08
   0F94 08                 5437 	.db #0x08
   0F95 08                 5438 	.db #0x08
   0F96 08                 5439 	.db #0x08
   0F97 09                 5440 	.db #0x09
   0F98 00                 5441 	.db #0x00
   0F99 00                 5442 	.db #0x00
   0F9A 07                 5443 	.db #0x07
   0F9B 08                 5444 	.db #0x08
   0F9C 08                 5445 	.db #0x08
   0F9D 08                 5446 	.db #0x08
   0F9E 08                 5447 	.db #0x08
   0F9F 08                 5448 	.db #0x08
   0FA0 08                 5449 	.db #0x08
   0FA1 08                 5450 	.db #0x08
   0FA2 08                 5451 	.db #0x08
   0FA3 08                 5452 	.db #0x08
   0FA4 08                 5453 	.db #0x08
   0FA5 08                 5454 	.db #0x08
   0FA6 08                 5455 	.db #0x08
   0FA7 08                 5456 	.db #0x08
   0FA8 08                 5457 	.db #0x08
   0FA9 08                 5458 	.db #0x08
   0FAA 08                 5459 	.db #0x08
   0FAB 09                 5460 	.db #0x09
   0FAC 00                 5461 	.db #0x00
   0FAD 00                 5462 	.db #0x00
   0FAE 07                 5463 	.db #0x07
   0FAF 08                 5464 	.db #0x08
   0FB0 08                 5465 	.db #0x08
   0FB1 08                 5466 	.db #0x08
   0FB2 08                 5467 	.db #0x08
   0FB3 08                 5468 	.db #0x08
   0FB4 08                 5469 	.db #0x08
   0FB5 08                 5470 	.db #0x08
   0FB6 08                 5471 	.db #0x08
   0FB7 08                 5472 	.db #0x08
   0FB8 08                 5473 	.db #0x08
   0FB9 08                 5474 	.db #0x08
   0FBA 08                 5475 	.db #0x08
   0FBB 08                 5476 	.db #0x08
   0FBC 08                 5477 	.db #0x08
   0FBD 08                 5478 	.db #0x08
   0FBE 08                 5479 	.db #0x08
   0FBF 09                 5480 	.db #0x09
   0FC0 00                 5481 	.db #0x00
   0FC1 00                 5482 	.db #0x00
   0FC2 07                 5483 	.db #0x07
   0FC3 08                 5484 	.db #0x08
   0FC4 08                 5485 	.db #0x08
   0FC5 08                 5486 	.db #0x08
   0FC6 08                 5487 	.db #0x08
   0FC7 08                 5488 	.db #0x08
   0FC8 08                 5489 	.db #0x08
   0FC9 08                 5490 	.db #0x08
   0FCA 08                 5491 	.db #0x08
   0FCB 08                 5492 	.db #0x08
   0FCC 08                 5493 	.db #0x08
   0FCD 08                 5494 	.db #0x08
   0FCE 08                 5495 	.db #0x08
   0FCF 08                 5496 	.db #0x08
   0FD0 08                 5497 	.db #0x08
   0FD1 08                 5498 	.db #0x08
   0FD2 08                 5499 	.db #0x08
   0FD3 09                 5500 	.db #0x09
   0FD4 00                 5501 	.db #0x00
   0FD5 00                 5502 	.db #0x00
   0FD6 07                 5503 	.db #0x07
   0FD7 08                 5504 	.db #0x08
   0FD8 08                 5505 	.db #0x08
   0FD9 08                 5506 	.db #0x08
   0FDA 08                 5507 	.db #0x08
   0FDB 08                 5508 	.db #0x08
   0FDC 08                 5509 	.db #0x08
   0FDD 08                 5510 	.db #0x08
   0FDE 08                 5511 	.db #0x08
   0FDF 08                 5512 	.db #0x08
   0FE0 08                 5513 	.db #0x08
   0FE1 08                 5514 	.db #0x08
   0FE2 08                 5515 	.db #0x08
   0FE3 08                 5516 	.db #0x08
   0FE4 08                 5517 	.db #0x08
   0FE5 08                 5518 	.db #0x08
   0FE6 08                 5519 	.db #0x08
   0FE7 09                 5520 	.db #0x09
   0FE8 00                 5521 	.db #0x00
   0FE9 00                 5522 	.db #0x00
   0FEA 07                 5523 	.db #0x07
   0FEB 08                 5524 	.db #0x08
   0FEC 08                 5525 	.db #0x08
   0FED 08                 5526 	.db #0x08
   0FEE 08                 5527 	.db #0x08
   0FEF 08                 5528 	.db #0x08
   0FF0 08                 5529 	.db #0x08
   0FF1 08                 5530 	.db #0x08
   0FF2 08                 5531 	.db #0x08
   0FF3 08                 5532 	.db #0x08
   0FF4 08                 5533 	.db #0x08
   0FF5 08                 5534 	.db #0x08
   0FF6 08                 5535 	.db #0x08
   0FF7 08                 5536 	.db #0x08
   0FF8 08                 5537 	.db #0x08
   0FF9 08                 5538 	.db #0x08
   0FFA 08                 5539 	.db #0x08
   0FFB 09                 5540 	.db #0x09
   0FFC 00                 5541 	.db #0x00
   0FFD 00                 5542 	.db #0x00
   0FFE 0A                 5543 	.db #0x0A
   0FFF 0B                 5544 	.db #0x0B
   1000 0B                 5545 	.db #0x0B
   1001 0B                 5546 	.db #0x0B
   1002 0B                 5547 	.db #0x0B
   1003 0B                 5548 	.db #0x0B
   1004 0B                 5549 	.db #0x0B
   1005 0C                 5550 	.db #0x0C
   1006 08                 5551 	.db #0x08
   1007 08                 5552 	.db #0x08
   1008 0D                 5553 	.db #0x0D
   1009 0B                 5554 	.db #0x0B
   100A 0B                 5555 	.db #0x0B
   100B 0B                 5556 	.db #0x0B
   100C 0B                 5557 	.db #0x0B
   100D 0B                 5558 	.db #0x0B
   100E 0B                 5559 	.db #0x0B
   100F 0E                 5560 	.db #0x0E
   1010 00                 5561 	.db #0x00
   1011 00                 5562 	.db #0x00
   1012 00                 5563 	.db #0x00
   1013 0F                 5564 	.db #0x0F
   1014 0F                 5565 	.db #0x0F
   1015 0F                 5566 	.db #0x0F
   1016 0F                 5567 	.db #0x0F
   1017 0F                 5568 	.db #0x0F
   1018 0F                 5569 	.db #0x0F
   1019 10                 5570 	.db #0x10
   101A 11                 5571 	.db #0x11
   101B 11                 5572 	.db #0x11
   101C 12                 5573 	.db #0x12
   101D 0F                 5574 	.db #0x0F
   101E 0F                 5575 	.db #0x0F
   101F 0F                 5576 	.db #0x0F
   1020 0F                 5577 	.db #0x0F
   1021 0F                 5578 	.db #0x0F
   1022 0F                 5579 	.db #0x0F
   1023 00                 5580 	.db #0x00
   1024 00                 5581 	.db #0x00
   1025 00                 5582 	.db #0x00
   1026 00                 5583 	.db #0x00
   1027 00                 5584 	.db #0x00
   1028 00                 5585 	.db #0x00
   1029 00                 5586 	.db #0x00
   102A 00                 5587 	.db #0x00
   102B 00                 5588 	.db #0x00
   102C 00                 5589 	.db #0x00
   102D 00                 5590 	.db #0x00
   102E 00                 5591 	.db #0x00
   102F 00                 5592 	.db #0x00
   1030 00                 5593 	.db #0x00
   1031 00                 5594 	.db #0x00
   1032 00                 5595 	.db #0x00
   1033 00                 5596 	.db #0x00
   1034 00                 5597 	.db #0x00
   1035 00                 5598 	.db #0x00
   1036 00                 5599 	.db #0x00
   1037 00                 5600 	.db #0x00
   1038 00                 5601 	.db #0x00
   1039 00                 5602 	.db #0x00
   103A 00                 5603 	.db #0x00
   103B 00                 5604 	.db #0x00
   103C 00                 5605 	.db #0x00
   103D 00                 5606 	.db #0x00
   103E 00                 5607 	.db #0x00
   103F 00                 5608 	.db #0x00
   1040 00                 5609 	.db #0x00
   1041 00                 5610 	.db #0x00
   1042 00                 5611 	.db #0x00
   1043 00                 5612 	.db #0x00
   1044 00                 5613 	.db #0x00
   1045 00                 5614 	.db #0x00
   1046 00                 5615 	.db #0x00
   1047 00                 5616 	.db #0x00
   1048 00                 5617 	.db #0x00
   1049 00                 5618 	.db #0x00
   104A 00                 5619 	.db #0x00
   104B 00                 5620 	.db #0x00
   104C 00                 5621 	.db #0x00
   104D                    5622 _room_bottom_data:
   104D FF                 5623 	.db #0xFF
   104E FF                 5624 	.db #0xFF
   104F FF                 5625 	.db #0xFF
   1050 FF                 5626 	.db #0xFF
   1051 FF                 5627 	.db #0xFF
   1052 FF                 5628 	.db #0xFF
   1053 FF                 5629 	.db #0xFF
   1054 FF                 5630 	.db #0xFF
   1055 FF                 5631 	.db #0xFF
   1056 FF                 5632 	.db #0xFF
   1057 FF                 5633 	.db #0xFF
   1058 FF                 5634 	.db #0xFF
   1059 FF                 5635 	.db #0xFF
   105A FF                 5636 	.db #0xFF
   105B FF                 5637 	.db #0xFF
   105C FF                 5638 	.db #0xFF
   105D FF                 5639 	.db #0xFF
   105E FF                 5640 	.db #0xFF
   105F FF                 5641 	.db #0xFF
   1060 FF                 5642 	.db #0xFF
   1061 FF                 5643 	.db #0xFF
   1062 FF                 5644 	.db #0xFF
   1063 FF                 5645 	.db #0xFF
   1064 FF                 5646 	.db #0xFF
   1065 FF                 5647 	.db #0xFF
   1066 FF                 5648 	.db #0xFF
   1067 FF                 5649 	.db #0xFF
   1068 FF                 5650 	.db #0xFF
   1069 FF                 5651 	.db #0xFF
   106A FF                 5652 	.db #0xFF
   106B FF                 5653 	.db #0xFF
   106C FE                 5654 	.db #0xFE
   106D FF                 5655 	.db #0xFF
   106E FF                 5656 	.db #0xFF
   106F FF                 5657 	.db #0xFF
   1070 FF                 5658 	.db #0xFF
   1071 FF                 5659 	.db #0xFF
   1072 FF                 5660 	.db #0xFF
   1073 FF                 5661 	.db #0xFF
   1074 FF                 5662 	.db #0xFF
   1075 FF                 5663 	.db #0xFF
   1076 FF                 5664 	.db #0xFF
   1077 FF                 5665 	.db #0xFF
   1078 FF                 5666 	.db #0xFF
   1079 FF                 5667 	.db #0xFF
   107A 00                 5668 	.db #0x00
   107B FF                 5669 	.db #0xFF
   107C FF                 5670 	.db #0xFF
   107D FF                 5671 	.db #0xFF
   107E FF                 5672 	.db #0xFF
   107F FF                 5673 	.db #0xFF
   1080 FF                 5674 	.db #0xFF
   1081 FF                 5675 	.db #0xFF
   1082 FF                 5676 	.db #0xFF
   1083 FF                 5677 	.db #0xFF
   1084 FF                 5678 	.db #0xFF
   1085 FF                 5679 	.db #0xFF
   1086 FF                 5680 	.db #0xFF
   1087 FF                 5681 	.db #0xFF
   1088 FF                 5682 	.db #0xFF
   1089 FF                 5683 	.db #0xFF
   108A FF                 5684 	.db #0xFF
   108B FF                 5685 	.db #0xFF
   108C 7F                 5686 	.db #0x7F
   108D FF                 5687 	.db #0xFF
   108E FD                 5688 	.db #0xFD
   108F FF                 5689 	.db #0xFF
   1090 FD                 5690 	.db #0xFD
   1091 FF                 5691 	.db #0xFF
   1092 FD                 5692 	.db #0xFD
   1093 FF                 5693 	.db #0xFF
   1094 FD                 5694 	.db #0xFD
   1095 FF                 5695 	.db #0xFF
   1096 FD                 5696 	.db #0xFD
   1097 FF                 5697 	.db #0xFF
   1098 FD                 5698 	.db #0xFD
   1099 FF                 5699 	.db #0xFF
   109A FD                 5700 	.db #0xFD
   109B FF                 5701 	.db #0xFF
   109C FD                 5702 	.db #0xFD
   109D FF                 5703 	.db #0xFF
   109E 00                 5704 	.db #0x00
   109F FF                 5705 	.db #0xFF
   10A0 00                 5706 	.db #0x00
   10A1 FF                 5707 	.db #0xFF
   10A2 00                 5708 	.db #0x00
   10A3 FF                 5709 	.db #0xFF
   10A4 00                 5710 	.db #0x00
   10A5 FF                 5711 	.db #0xFF
   10A6 00                 5712 	.db #0x00
   10A7 FF                 5713 	.db #0xFF
   10A8 00                 5714 	.db #0x00
   10A9 FF                 5715 	.db #0xFF
   10AA 00                 5716 	.db #0x00
   10AB FF                 5717 	.db #0xFF
   10AC 00                 5718 	.db #0x00
   10AD FF                 5719 	.db #0xFF
   10AE BF                 5720 	.db #0xBF
   10AF FF                 5721 	.db #0xFF
   10B0 BF                 5722 	.db #0xBF
   10B1 FF                 5723 	.db #0xFF
   10B2 BF                 5724 	.db #0xBF
   10B3 FF                 5725 	.db #0xFF
   10B4 BF                 5726 	.db #0xBF
   10B5 FF                 5727 	.db #0xFF
   10B6 BF                 5728 	.db #0xBF
   10B7 FF                 5729 	.db #0xFF
   10B8 BF                 5730 	.db #0xBF
   10B9 FF                 5731 	.db #0xFF
   10BA BF                 5732 	.db #0xBF
   10BB FF                 5733 	.db #0xFF
   10BC BF                 5734 	.db #0xBF
   10BD FF                 5735 	.db #0xFF
   10BE 00                 5736 	.db #0x00
   10BF FF                 5737 	.db #0xFF
   10C0 00                 5738 	.db #0x00
   10C1 FF                 5739 	.db #0xFF
   10C2 00                 5740 	.db #0x00
   10C3 FF                 5741 	.db #0xFF
   10C4 00                 5742 	.db #0x00
   10C5 FF                 5743 	.db #0xFF
   10C6 00                 5744 	.db #0x00
   10C7 FF                 5745 	.db #0xFF
   10C8 00                 5746 	.db #0x00
   10C9 FF                 5747 	.db #0xFF
   10CA 00                 5748 	.db #0x00
   10CB FF                 5749 	.db #0xFF
   10CC FF                 5750 	.db #0xFF
   10CD 00                 5751 	.db #0x00
   10CE 00                 5752 	.db #0x00
   10CF 00                 5753 	.db #0x00
   10D0 00                 5754 	.db #0x00
   10D1 00                 5755 	.db #0x00
   10D2 00                 5756 	.db #0x00
   10D3 00                 5757 	.db #0x00
   10D4 00                 5758 	.db #0x00
   10D5 00                 5759 	.db #0x00
   10D6 00                 5760 	.db #0x00
   10D7 00                 5761 	.db #0x00
   10D8 00                 5762 	.db #0x00
   10D9 00                 5763 	.db #0x00
   10DA 00                 5764 	.db #0x00
   10DB 00                 5765 	.db #0x00
   10DC 00                 5766 	.db #0x00
   10DD FF                 5767 	.db #0xFF
   10DE FE                 5768 	.db #0xFE
   10DF FF                 5769 	.db #0xFF
   10E0 FF                 5770 	.db #0xFF
   10E1 FF                 5771 	.db #0xFF
   10E2 FF                 5772 	.db #0xFF
   10E3 FF                 5773 	.db #0xFF
   10E4 FF                 5774 	.db #0xFF
   10E5 FF                 5775 	.db #0xFF
   10E6 FF                 5776 	.db #0xFF
   10E7 FF                 5777 	.db #0xFF
   10E8 FF                 5778 	.db #0xFF
   10E9 FF                 5779 	.db #0xFF
   10EA FF                 5780 	.db #0xFF
   10EB FF                 5781 	.db #0xFF
   10EC FF                 5782 	.db #0xFF
   10ED FF                 5783 	.db #0xFF
   10EE FF                 5784 	.db #0xFF
   10EF FF                 5785 	.db #0xFF
   10F0 00                 5786 	.db #0x00
   10F1 FF                 5787 	.db #0xFF
   10F2 FF                 5788 	.db #0xFF
   10F3 FF                 5789 	.db #0xFF
   10F4 FF                 5790 	.db #0xFF
   10F5 FF                 5791 	.db #0xFF
   10F6 FF                 5792 	.db #0xFF
   10F7 FF                 5793 	.db #0xFF
   10F8 FF                 5794 	.db #0xFF
   10F9 FF                 5795 	.db #0xFF
   10FA FF                 5796 	.db #0xFF
   10FB FF                 5797 	.db #0xFF
   10FC FF                 5798 	.db #0xFF
   10FD FF                 5799 	.db #0xFF
   10FE FF                 5800 	.db #0xFF
   10FF FF                 5801 	.db #0xFF
   1100 01                 5802 	.db #0x01
   1101 FF                 5803 	.db #0xFF
   1102 FD                 5804 	.db #0xFD
   1103 FF                 5805 	.db #0xFF
   1104 FD                 5806 	.db #0xFD
   1105 FF                 5807 	.db #0xFF
   1106 FD                 5808 	.db #0xFD
   1107 FF                 5809 	.db #0xFF
   1108 FD                 5810 	.db #0xFD
   1109 FF                 5811 	.db #0xFF
   110A FD                 5812 	.db #0xFD
   110B FF                 5813 	.db #0xFF
   110C FD                 5814 	.db #0xFD
   110D 00                 5815 	.db #0x00
   110E 00                 5816 	.db #0x00
   110F 00                 5817 	.db #0x00
   1110 00                 5818 	.db #0x00
   1111 AA                 5819 	.db #0xAA
   1112 00                 5820 	.db #0x00
   1113 55                 5821 	.db #0x55
   1114 00                 5822 	.db #0x00
   1115 AA                 5823 	.db #0xAA
   1116 55                 5824 	.db #0x55
   1117 55                 5825 	.db #0x55
   1118 AA                 5826 	.db #0xAA
   1119 AA                 5827 	.db #0xAA
   111A FF                 5828 	.db #0xFF
   111B 55                 5829 	.db #0x55
   111C FF                 5830 	.db #0xFF
   111D FF                 5831 	.db #0xFF
   111E FF                 5832 	.db #0xFF
   111F FF                 5833 	.db #0xFF
   1120 80                 5834 	.db #0x80
   1121 FF                 5835 	.db #0xFF
   1122 BF                 5836 	.db #0xBF
   1123 FF                 5837 	.db #0xFF
   1124 BF                 5838 	.db #0xBF
   1125 FF                 5839 	.db #0xFF
   1126 BF                 5840 	.db #0xBF
   1127 FF                 5841 	.db #0xFF
   1128 BF                 5842 	.db #0xBF
   1129 FF                 5843 	.db #0xFF
   112A BF                 5844 	.db #0xBF
   112B FF                 5845 	.db #0xFF
   112C BF                 5846 	.db #0xBF
   112D FF                 5847 	.db #0xFF
   112E 7F                 5848 	.db #0x7F
   112F FF                 5849 	.db #0xFF
   1130 FF                 5850 	.db #0xFF
   1131 FF                 5851 	.db #0xFF
   1132 FF                 5852 	.db #0xFF
   1133 FF                 5853 	.db #0xFF
   1134 FF                 5854 	.db #0xFF
   1135 FF                 5855 	.db #0xFF
   1136 FF                 5856 	.db #0xFF
   1137 FF                 5857 	.db #0xFF
   1138 FF                 5858 	.db #0xFF
   1139 FF                 5859 	.db #0xFF
   113A FF                 5860 	.db #0xFF
   113B FF                 5861 	.db #0xFF
   113C FF                 5862 	.db #0xFF
   113D                    5863 _room_bottom_map:
   113D 00                 5864 	.db #0x00
   113E 00                 5865 	.db #0x00
   113F 00                 5866 	.db #0x00
   1140 00                 5867 	.db #0x00
   1141 00                 5868 	.db #0x00
   1142 00                 5869 	.db #0x00
   1143 00                 5870 	.db #0x00
   1144 00                 5871 	.db #0x00
   1145 00                 5872 	.db #0x00
   1146 00                 5873 	.db #0x00
   1147 00                 5874 	.db #0x00
   1148 00                 5875 	.db #0x00
   1149 00                 5876 	.db #0x00
   114A 00                 5877 	.db #0x00
   114B 00                 5878 	.db #0x00
   114C 00                 5879 	.db #0x00
   114D 00                 5880 	.db #0x00
   114E 00                 5881 	.db #0x00
   114F 00                 5882 	.db #0x00
   1150 00                 5883 	.db #0x00
   1151 00                 5884 	.db #0x00
   1152 01                 5885 	.db #0x01
   1153 02                 5886 	.db #0x02
   1154 02                 5887 	.db #0x02
   1155 02                 5888 	.db #0x02
   1156 02                 5889 	.db #0x02
   1157 02                 5890 	.db #0x02
   1158 02                 5891 	.db #0x02
   1159 02                 5892 	.db #0x02
   115A 02                 5893 	.db #0x02
   115B 02                 5894 	.db #0x02
   115C 02                 5895 	.db #0x02
   115D 02                 5896 	.db #0x02
   115E 02                 5897 	.db #0x02
   115F 02                 5898 	.db #0x02
   1160 02                 5899 	.db #0x02
   1161 02                 5900 	.db #0x02
   1162 02                 5901 	.db #0x02
   1163 03                 5902 	.db #0x03
   1164 00                 5903 	.db #0x00
   1165 00                 5904 	.db #0x00
   1166 04                 5905 	.db #0x04
   1167 05                 5906 	.db #0x05
   1168 05                 5907 	.db #0x05
   1169 05                 5908 	.db #0x05
   116A 05                 5909 	.db #0x05
   116B 05                 5910 	.db #0x05
   116C 05                 5911 	.db #0x05
   116D 05                 5912 	.db #0x05
   116E 05                 5913 	.db #0x05
   116F 05                 5914 	.db #0x05
   1170 05                 5915 	.db #0x05
   1171 05                 5916 	.db #0x05
   1172 05                 5917 	.db #0x05
   1173 05                 5918 	.db #0x05
   1174 05                 5919 	.db #0x05
   1175 05                 5920 	.db #0x05
   1176 05                 5921 	.db #0x05
   1177 06                 5922 	.db #0x06
   1178 00                 5923 	.db #0x00
   1179 00                 5924 	.db #0x00
   117A 04                 5925 	.db #0x04
   117B 07                 5926 	.db #0x07
   117C 07                 5927 	.db #0x07
   117D 07                 5928 	.db #0x07
   117E 07                 5929 	.db #0x07
   117F 07                 5930 	.db #0x07
   1180 07                 5931 	.db #0x07
   1181 07                 5932 	.db #0x07
   1182 07                 5933 	.db #0x07
   1183 07                 5934 	.db #0x07
   1184 07                 5935 	.db #0x07
   1185 07                 5936 	.db #0x07
   1186 07                 5937 	.db #0x07
   1187 07                 5938 	.db #0x07
   1188 07                 5939 	.db #0x07
   1189 07                 5940 	.db #0x07
   118A 07                 5941 	.db #0x07
   118B 06                 5942 	.db #0x06
   118C 00                 5943 	.db #0x00
   118D 00                 5944 	.db #0x00
   118E 04                 5945 	.db #0x04
   118F 08                 5946 	.db #0x08
   1190 08                 5947 	.db #0x08
   1191 08                 5948 	.db #0x08
   1192 08                 5949 	.db #0x08
   1193 08                 5950 	.db #0x08
   1194 08                 5951 	.db #0x08
   1195 08                 5952 	.db #0x08
   1196 08                 5953 	.db #0x08
   1197 08                 5954 	.db #0x08
   1198 08                 5955 	.db #0x08
   1199 08                 5956 	.db #0x08
   119A 08                 5957 	.db #0x08
   119B 08                 5958 	.db #0x08
   119C 08                 5959 	.db #0x08
   119D 08                 5960 	.db #0x08
   119E 08                 5961 	.db #0x08
   119F 06                 5962 	.db #0x06
   11A0 00                 5963 	.db #0x00
   11A1 00                 5964 	.db #0x00
   11A2 04                 5965 	.db #0x04
   11A3 08                 5966 	.db #0x08
   11A4 08                 5967 	.db #0x08
   11A5 08                 5968 	.db #0x08
   11A6 08                 5969 	.db #0x08
   11A7 08                 5970 	.db #0x08
   11A8 08                 5971 	.db #0x08
   11A9 08                 5972 	.db #0x08
   11AA 08                 5973 	.db #0x08
   11AB 08                 5974 	.db #0x08
   11AC 08                 5975 	.db #0x08
   11AD 08                 5976 	.db #0x08
   11AE 08                 5977 	.db #0x08
   11AF 08                 5978 	.db #0x08
   11B0 08                 5979 	.db #0x08
   11B1 08                 5980 	.db #0x08
   11B2 08                 5981 	.db #0x08
   11B3 06                 5982 	.db #0x06
   11B4 00                 5983 	.db #0x00
   11B5 00                 5984 	.db #0x00
   11B6 04                 5985 	.db #0x04
   11B7 08                 5986 	.db #0x08
   11B8 08                 5987 	.db #0x08
   11B9 08                 5988 	.db #0x08
   11BA 08                 5989 	.db #0x08
   11BB 08                 5990 	.db #0x08
   11BC 08                 5991 	.db #0x08
   11BD 08                 5992 	.db #0x08
   11BE 08                 5993 	.db #0x08
   11BF 08                 5994 	.db #0x08
   11C0 08                 5995 	.db #0x08
   11C1 08                 5996 	.db #0x08
   11C2 08                 5997 	.db #0x08
   11C3 08                 5998 	.db #0x08
   11C4 08                 5999 	.db #0x08
   11C5 08                 6000 	.db #0x08
   11C6 08                 6001 	.db #0x08
   11C7 06                 6002 	.db #0x06
   11C8 00                 6003 	.db #0x00
   11C9 00                 6004 	.db #0x00
   11CA 04                 6005 	.db #0x04
   11CB 08                 6006 	.db #0x08
   11CC 08                 6007 	.db #0x08
   11CD 08                 6008 	.db #0x08
   11CE 08                 6009 	.db #0x08
   11CF 08                 6010 	.db #0x08
   11D0 08                 6011 	.db #0x08
   11D1 08                 6012 	.db #0x08
   11D2 08                 6013 	.db #0x08
   11D3 08                 6014 	.db #0x08
   11D4 08                 6015 	.db #0x08
   11D5 08                 6016 	.db #0x08
   11D6 08                 6017 	.db #0x08
   11D7 08                 6018 	.db #0x08
   11D8 08                 6019 	.db #0x08
   11D9 08                 6020 	.db #0x08
   11DA 08                 6021 	.db #0x08
   11DB 06                 6022 	.db #0x06
   11DC 00                 6023 	.db #0x00
   11DD 00                 6024 	.db #0x00
   11DE 04                 6025 	.db #0x04
   11DF 08                 6026 	.db #0x08
   11E0 08                 6027 	.db #0x08
   11E1 08                 6028 	.db #0x08
   11E2 08                 6029 	.db #0x08
   11E3 08                 6030 	.db #0x08
   11E4 08                 6031 	.db #0x08
   11E5 08                 6032 	.db #0x08
   11E6 08                 6033 	.db #0x08
   11E7 08                 6034 	.db #0x08
   11E8 08                 6035 	.db #0x08
   11E9 08                 6036 	.db #0x08
   11EA 08                 6037 	.db #0x08
   11EB 08                 6038 	.db #0x08
   11EC 08                 6039 	.db #0x08
   11ED 08                 6040 	.db #0x08
   11EE 08                 6041 	.db #0x08
   11EF 06                 6042 	.db #0x06
   11F0 00                 6043 	.db #0x00
   11F1 00                 6044 	.db #0x00
   11F2 04                 6045 	.db #0x04
   11F3 08                 6046 	.db #0x08
   11F4 08                 6047 	.db #0x08
   11F5 08                 6048 	.db #0x08
   11F6 08                 6049 	.db #0x08
   11F7 08                 6050 	.db #0x08
   11F8 08                 6051 	.db #0x08
   11F9 08                 6052 	.db #0x08
   11FA 08                 6053 	.db #0x08
   11FB 08                 6054 	.db #0x08
   11FC 08                 6055 	.db #0x08
   11FD 08                 6056 	.db #0x08
   11FE 08                 6057 	.db #0x08
   11FF 08                 6058 	.db #0x08
   1200 08                 6059 	.db #0x08
   1201 08                 6060 	.db #0x08
   1202 08                 6061 	.db #0x08
   1203 06                 6062 	.db #0x06
   1204 00                 6063 	.db #0x00
   1205 00                 6064 	.db #0x00
   1206 04                 6065 	.db #0x04
   1207 08                 6066 	.db #0x08
   1208 08                 6067 	.db #0x08
   1209 08                 6068 	.db #0x08
   120A 08                 6069 	.db #0x08
   120B 08                 6070 	.db #0x08
   120C 08                 6071 	.db #0x08
   120D 08                 6072 	.db #0x08
   120E 08                 6073 	.db #0x08
   120F 08                 6074 	.db #0x08
   1210 08                 6075 	.db #0x08
   1211 08                 6076 	.db #0x08
   1212 08                 6077 	.db #0x08
   1213 08                 6078 	.db #0x08
   1214 08                 6079 	.db #0x08
   1215 08                 6080 	.db #0x08
   1216 08                 6081 	.db #0x08
   1217 06                 6082 	.db #0x06
   1218 00                 6083 	.db #0x00
   1219 00                 6084 	.db #0x00
   121A 04                 6085 	.db #0x04
   121B 08                 6086 	.db #0x08
   121C 08                 6087 	.db #0x08
   121D 08                 6088 	.db #0x08
   121E 08                 6089 	.db #0x08
   121F 08                 6090 	.db #0x08
   1220 08                 6091 	.db #0x08
   1221 08                 6092 	.db #0x08
   1222 08                 6093 	.db #0x08
   1223 08                 6094 	.db #0x08
   1224 08                 6095 	.db #0x08
   1225 08                 6096 	.db #0x08
   1226 08                 6097 	.db #0x08
   1227 08                 6098 	.db #0x08
   1228 08                 6099 	.db #0x08
   1229 08                 6100 	.db #0x08
   122A 08                 6101 	.db #0x08
   122B 06                 6102 	.db #0x06
   122C 00                 6103 	.db #0x00
   122D 00                 6104 	.db #0x00
   122E 04                 6105 	.db #0x04
   122F 08                 6106 	.db #0x08
   1230 08                 6107 	.db #0x08
   1231 08                 6108 	.db #0x08
   1232 08                 6109 	.db #0x08
   1233 08                 6110 	.db #0x08
   1234 08                 6111 	.db #0x08
   1235 08                 6112 	.db #0x08
   1236 08                 6113 	.db #0x08
   1237 08                 6114 	.db #0x08
   1238 08                 6115 	.db #0x08
   1239 08                 6116 	.db #0x08
   123A 08                 6117 	.db #0x08
   123B 08                 6118 	.db #0x08
   123C 08                 6119 	.db #0x08
   123D 08                 6120 	.db #0x08
   123E 08                 6121 	.db #0x08
   123F 06                 6122 	.db #0x06
   1240 00                 6123 	.db #0x00
   1241 00                 6124 	.db #0x00
   1242 04                 6125 	.db #0x04
   1243 08                 6126 	.db #0x08
   1244 08                 6127 	.db #0x08
   1245 08                 6128 	.db #0x08
   1246 08                 6129 	.db #0x08
   1247 08                 6130 	.db #0x08
   1248 08                 6131 	.db #0x08
   1249 08                 6132 	.db #0x08
   124A 08                 6133 	.db #0x08
   124B 08                 6134 	.db #0x08
   124C 08                 6135 	.db #0x08
   124D 08                 6136 	.db #0x08
   124E 08                 6137 	.db #0x08
   124F 08                 6138 	.db #0x08
   1250 08                 6139 	.db #0x08
   1251 08                 6140 	.db #0x08
   1252 08                 6141 	.db #0x08
   1253 06                 6142 	.db #0x06
   1254 00                 6143 	.db #0x00
   1255 00                 6144 	.db #0x00
   1256 04                 6145 	.db #0x04
   1257 08                 6146 	.db #0x08
   1258 08                 6147 	.db #0x08
   1259 08                 6148 	.db #0x08
   125A 08                 6149 	.db #0x08
   125B 08                 6150 	.db #0x08
   125C 08                 6151 	.db #0x08
   125D 08                 6152 	.db #0x08
   125E 08                 6153 	.db #0x08
   125F 08                 6154 	.db #0x08
   1260 08                 6155 	.db #0x08
   1261 08                 6156 	.db #0x08
   1262 08                 6157 	.db #0x08
   1263 08                 6158 	.db #0x08
   1264 08                 6159 	.db #0x08
   1265 08                 6160 	.db #0x08
   1266 08                 6161 	.db #0x08
   1267 06                 6162 	.db #0x06
   1268 00                 6163 	.db #0x00
   1269 00                 6164 	.db #0x00
   126A 09                 6165 	.db #0x09
   126B 0A                 6166 	.db #0x0A
   126C 0A                 6167 	.db #0x0A
   126D 0A                 6168 	.db #0x0A
   126E 0A                 6169 	.db #0x0A
   126F 0A                 6170 	.db #0x0A
   1270 0A                 6171 	.db #0x0A
   1271 0B                 6172 	.db #0x0B
   1272 0C                 6173 	.db #0x0C
   1273 0C                 6174 	.db #0x0C
   1274 0D                 6175 	.db #0x0D
   1275 0A                 6176 	.db #0x0A
   1276 0A                 6177 	.db #0x0A
   1277 0A                 6178 	.db #0x0A
   1278 0A                 6179 	.db #0x0A
   1279 0A                 6180 	.db #0x0A
   127A 0A                 6181 	.db #0x0A
   127B 0E                 6182 	.db #0x0E
   127C 00                 6183 	.db #0x00
   127D 00                 6184 	.db #0x00
   127E 00                 6185 	.db #0x00
   127F 00                 6186 	.db #0x00
   1280 00                 6187 	.db #0x00
   1281 00                 6188 	.db #0x00
   1282 00                 6189 	.db #0x00
   1283 00                 6190 	.db #0x00
   1284 00                 6191 	.db #0x00
   1285 00                 6192 	.db #0x00
   1286 00                 6193 	.db #0x00
   1287 00                 6194 	.db #0x00
   1288 00                 6195 	.db #0x00
   1289 00                 6196 	.db #0x00
   128A 00                 6197 	.db #0x00
   128B 00                 6198 	.db #0x00
   128C 00                 6199 	.db #0x00
   128D 00                 6200 	.db #0x00
   128E 00                 6201 	.db #0x00
   128F 00                 6202 	.db #0x00
   1290 00                 6203 	.db #0x00
   1291 00                 6204 	.db #0x00
   1292 00                 6205 	.db #0x00
   1293 00                 6206 	.db #0x00
   1294 00                 6207 	.db #0x00
   1295 00                 6208 	.db #0x00
   1296 00                 6209 	.db #0x00
   1297 00                 6210 	.db #0x00
   1298 00                 6211 	.db #0x00
   1299 00                 6212 	.db #0x00
   129A 00                 6213 	.db #0x00
   129B 00                 6214 	.db #0x00
   129C 00                 6215 	.db #0x00
   129D 00                 6216 	.db #0x00
   129E 00                 6217 	.db #0x00
   129F 00                 6218 	.db #0x00
   12A0 00                 6219 	.db #0x00
   12A1 00                 6220 	.db #0x00
   12A2 00                 6221 	.db #0x00
   12A3 00                 6222 	.db #0x00
   12A4 00                 6223 	.db #0x00
   12A5                    6224 _rooms:
   12A5 5D 0B              6225 	.dw _room_top_data
   12A7 4D 0C              6226 	.dw _room_top_map
   12A9 0F                 6227 	.db #0x0F
   12AA 04                 6228 	.db #0x04
   12AB 03                 6229 	.db #0x03
   12AC B5 0D              6230 	.dw _room_middle_data
   12AE E5 0E              6231 	.dw _room_middle_map
   12B0 13                 6232 	.db #0x13
   12B1 04                 6233 	.db #0x04
   12B2 11                 6234 	.db #0x11
   12B3 4D 10              6235 	.dw _room_bottom_data
   12B5 3D 11              6236 	.dw _room_bottom_map
   12B7 0F                 6237 	.db #0x0F
   12B8 0C                 6238 	.db #0x0C
   12B9 00                 6239 	.db #0x00
   12BA                    6240 _ElementalTypes:
   12BA 00                 6241 	.db #0x00
   12BB 46 69 72 65        6242 	.ascii "Fire"
   12BF 00                 6243 	.db 0x00
   12C0 00                 6244 	.db 0x00
   12C1 00                 6245 	.db 0x00
   12C2 00                 6246 	.db 0x00
   12C3 00                 6247 	.db 0x00
   12C4 00                 6248 	.db 0x00
   12C5 00                 6249 	.db 0x00
   12C6 00                 6250 	.db 0x00
   12C7 00                 6251 	.db 0x00
   12C8 00                 6252 	.db 0x00
   12C9 00                 6253 	.db 0x00
   12CA 00                 6254 	.db 0x00
   12CB 00                 6255 	.db 0x00
   12CC 00                 6256 	.db 0x00
   12CD 00                 6257 	.db 0x00
   12CE 00                 6258 	.db 0x00
   12CF 32 00              6259 	.dw #0x0032
   12D1 96 00              6260 	.dw #0x0096
   12D3 32 00              6261 	.dw #0x0032
   12D5 64 00              6262 	.dw #0x0064
   12D7 96 00              6263 	.dw #0x0096
   12D9 00 00              6264 	.dw #0x0000
   12DB 64 00              6265 	.dw #0x0064
   12DD 01                 6266 	.db #0x01
   12DE 4E 61 74 75 72 65  6267 	.ascii "Nature"
   12E4 00                 6268 	.db 0x00
   12E5 00                 6269 	.db 0x00
   12E6 00                 6270 	.db 0x00
   12E7 00                 6271 	.db 0x00
   12E8 00                 6272 	.db 0x00
   12E9 00                 6273 	.db 0x00
   12EA 00                 6274 	.db 0x00
   12EB 00                 6275 	.db 0x00
   12EC 00                 6276 	.db 0x00
   12ED 00                 6277 	.db 0x00
   12EE 00                 6278 	.db 0x00
   12EF 00                 6279 	.db 0x00
   12F0 00                 6280 	.db 0x00
   12F1 00                 6281 	.db 0x00
   12F2 00 00              6282 	.dw #0x0000
   12F4 32 00              6283 	.dw #0x0032
   12F6 96 00              6284 	.dw #0x0096
   12F8 96 00              6285 	.dw #0x0096
   12FA 32 00              6286 	.dw #0x0032
   12FC 64 00              6287 	.dw #0x0064
   12FE 64 00              6288 	.dw #0x0064
   1300 02                 6289 	.db #0x02
   1301 45 61 72 74 68     6290 	.ascii "Earth"
   1306 00                 6291 	.db 0x00
   1307 00                 6292 	.db 0x00
   1308 00                 6293 	.db 0x00
   1309 00                 6294 	.db 0x00
   130A 00                 6295 	.db 0x00
   130B 00                 6296 	.db 0x00
   130C 00                 6297 	.db 0x00
   130D 00                 6298 	.db 0x00
   130E 00                 6299 	.db 0x00
   130F 00                 6300 	.db 0x00
   1310 00                 6301 	.db 0x00
   1311 00                 6302 	.db 0x00
   1312 00                 6303 	.db 0x00
   1313 00                 6304 	.db 0x00
   1314 00                 6305 	.db 0x00
   1315 96 00              6306 	.dw #0x0096
   1317 00 00              6307 	.dw #0x0000
   1319 32 00              6308 	.dw #0x0032
   131B 96 00              6309 	.dw #0x0096
   131D 64 00              6310 	.dw #0x0064
   131F 32 00              6311 	.dw #0x0032
   1321 64 00              6312 	.dw #0x0064
   1323 03                 6313 	.db #0x03
   1324 54 68 75 6E 64 72  6314 	.ascii "Thundr"
   132A 00                 6315 	.db 0x00
   132B 00                 6316 	.db 0x00
   132C 00                 6317 	.db 0x00
   132D 00                 6318 	.db 0x00
   132E 00                 6319 	.db 0x00
   132F 00                 6320 	.db 0x00
   1330 00                 6321 	.db 0x00
   1331 00                 6322 	.db 0x00
   1332 00                 6323 	.db 0x00
   1333 00                 6324 	.db 0x00
   1334 00                 6325 	.db 0x00
   1335 00                 6326 	.db 0x00
   1336 00                 6327 	.db 0x00
   1337 00                 6328 	.db 0x00
   1338 64 00              6329 	.dw #0x0064
   133A 32 00              6330 	.dw #0x0032
   133C 00 00              6331 	.dw #0x0000
   133E 32 00              6332 	.dw #0x0032
   1340 96 00              6333 	.dw #0x0096
   1342 96 00              6334 	.dw #0x0096
   1344 64 00              6335 	.dw #0x0064
   1346 04                 6336 	.db #0x04
   1347 41 69 72           6337 	.ascii "Air"
   134A 00                 6338 	.db 0x00
   134B 00                 6339 	.db 0x00
   134C 00                 6340 	.db 0x00
   134D 00                 6341 	.db 0x00
   134E 00                 6342 	.db 0x00
   134F 00                 6343 	.db 0x00
   1350 00                 6344 	.db 0x00
   1351 00                 6345 	.db 0x00
   1352 00                 6346 	.db 0x00
   1353 00                 6347 	.db 0x00
   1354 00                 6348 	.db 0x00
   1355 00                 6349 	.db 0x00
   1356 00                 6350 	.db 0x00
   1357 00                 6351 	.db 0x00
   1358 00                 6352 	.db 0x00
   1359 00                 6353 	.db 0x00
   135A 00                 6354 	.db 0x00
   135B 32 00              6355 	.dw #0x0032
   135D 96 00              6356 	.dw #0x0096
   135F 64 00              6357 	.dw #0x0064
   1361 00 00              6358 	.dw #0x0000
   1363 32 00              6359 	.dw #0x0032
   1365 96 00              6360 	.dw #0x0096
   1367 64 00              6361 	.dw #0x0064
   1369 05                 6362 	.db #0x05
   136A 57 61 74 65 72     6363 	.ascii "Water"
   136F 00                 6364 	.db 0x00
   1370 00                 6365 	.db 0x00
   1371 00                 6366 	.db 0x00
   1372 00                 6367 	.db 0x00
   1373 00                 6368 	.db 0x00
   1374 00                 6369 	.db 0x00
   1375 00                 6370 	.db 0x00
   1376 00                 6371 	.db 0x00
   1377 00                 6372 	.db 0x00
   1378 00                 6373 	.db 0x00
   1379 00                 6374 	.db 0x00
   137A 00                 6375 	.db 0x00
   137B 00                 6376 	.db 0x00
   137C 00                 6377 	.db 0x00
   137D 00                 6378 	.db 0x00
   137E 96 00              6379 	.dw #0x0096
   1380 64 00              6380 	.dw #0x0064
   1382 96 00              6381 	.dw #0x0096
   1384 32 00              6382 	.dw #0x0032
   1386 00 00              6383 	.dw #0x0000
   1388 32 00              6384 	.dw #0x0032
   138A 64 00              6385 	.dw #0x0064
   138C 06                 6386 	.db #0x06
   138D 4E 6F 6E 65        6387 	.ascii "None"
   1391 00                 6388 	.db 0x00
   1392 00                 6389 	.db 0x00
   1393 00                 6390 	.db 0x00
   1394 00                 6391 	.db 0x00
   1395 00                 6392 	.db 0x00
   1396 00                 6393 	.db 0x00
   1397 00                 6394 	.db 0x00
   1398 00                 6395 	.db 0x00
   1399 00                 6396 	.db 0x00
   139A 00                 6397 	.db 0x00
   139B 00                 6398 	.db 0x00
   139C 00                 6399 	.db 0x00
   139D 00                 6400 	.db 0x00
   139E 00                 6401 	.db 0x00
   139F 00                 6402 	.db 0x00
   13A0 00                 6403 	.db 0x00
   13A1 64 00              6404 	.dw #0x0064
   13A3 64 00              6405 	.dw #0x0064
   13A5 64 00              6406 	.dw #0x0064
   13A7 64 00              6407 	.dw #0x0064
   13A9 64 00              6408 	.dw #0x0064
   13AB 64 00              6409 	.dw #0x0064
   13AD 64 00              6410 	.dw #0x0064
   13AF                    6411 _CPU_info:
   13AF 00                 6412 	.db #0x00
   13B0 01                 6413 	.db #0x01
   13B1 02                 6414 	.db #0x02
   13B2 03                 6415 	.db #0x03
   13B3 78                 6416 	.db #0x78
   13B4 32                 6417 	.db #0x32
   13B5 00 00              6418 	.dw #0x0000
   13B7 01                 6419 	.db #0x01
   13B8 E0 13              6420 	.dw _str_7
   13BA 00                 6421 	.db #0x00
   13BB 00                 6422 	.db #0x00
   13BC 01                 6423 	.db #0x01
   13BD 02                 6424 	.db #0x02
   13BE 03                 6425 	.db #0x03
   13BF 50                 6426 	.db #0x50
   13C0 4E                 6427 	.db #0x4E
   13C1 00 00              6428 	.dw #0x0000
   13C3 01                 6429 	.db #0x01
   13C4 F2 13              6430 	.dw _str_8
   13C6 01                 6431 	.db #0x01
   13C7 00                 6432 	.db #0x00
   13C8 01                 6433 	.db #0x01
   13C9 02                 6434 	.db #0x02
   13CA 03                 6435 	.db #0x03
   13CB 78                 6436 	.db #0x78
   13CC 32                 6437 	.db #0x32
   13CD 00 00              6438 	.dw #0x0000
   13CF 01                 6439 	.db #0x01
   13D0 00 14              6440 	.dw _str_10
   13D2 01                 6441 	.db #0x01
   13D3 00                 6442 	.db #0x00
   13D4 01                 6443 	.db #0x01
   13D5 02                 6444 	.db #0x02
   13D6 03                 6445 	.db #0x03
   13D7 50                 6446 	.db #0x50
   13D8 46                 6447 	.db #0x46
   13D9 00 00              6448 	.dw #0x0000
   13DB 01                 6449 	.db #0x01
   13DC 13 14              6450 	.dw _str_12
   13DE 01                 6451 	.db #0x01
   13DF 04                 6452 	.db #0x04
   13E0                    6453 _str_7:
   13E0 48 65 6C 6C 6F 2C  6454 	.ascii "Hello, I'm a CPU!"
        20 49 27 6D 20 61
        20 43 50 55 21
   13F1 00                 6455 	.db 0x00
   13F2                    6456 _str_8:
   13F2 4C 65 74 27 73 20  6457 	.ascii "Let's battle!"
        62 61 74 74 6C 65
        21
   13FF 00                 6458 	.db 0x00
   1400                    6459 _str_10:
   1400 59 6F 75 20 77 6F  6460 	.ascii "You won't beat me!"
        6E 27 74 20 62 65
        61 74 20 6D 65 21
   1412 00                 6461 	.db 0x00
   1413                    6462 _str_12:
   1413 47 65 74 20 72 65  6463 	.ascii "Get ready!"
        61 64 79 21
   141D 00                 6464 	.db 0x00
                           6465 ;	Navigation/../CharacterInfo/GameCharacter.c 51
                           6466 ; genLabel
                           6467 ; genFunction
                           6468 ;	---------------------------------
                           6469 ; Function getCPUIsDefeated
                           6470 ; ---------------------------------
   141E                    6471 ___getCPUIsDefeated_start:
   141E                    6472 _getCPUIsDefeated:
   141E C5                 6473 	push	bc
   141F E8 FD              6474 	lda	sp,-3(sp)
                           6475 ;	Navigation/../CharacterInfo/GameCharacter.c 52
                           6476 ; genPlus
                           6477 ; genPlusIncr
   1421 11 DF 13           6478 	ld	de,#_CPU_info + 0 + 48
                           6479 ; genPointerGet
                           6480 ; AOP_STK for _getCPUIsDefeated_sloc0_1_0
   1424 1A                 6481 	ld	a,(de)
   1425 F8 02              6482 	lda	hl,2(sp)
   1427 77                 6483 	ld	(hl),a
                           6484 ; genAssign
                           6485 ; (operands are equal 3)
                           6486 ; genCast
                           6487 ; AOP_STK for _getCPUIsDefeated_sloc0_1_0
   1428 4E                 6488 	ld	c,(hl)
   1429 06 00              6489 	ld	b,#0x00
                           6490 ; genCmpLt
                           6491 ; AOP_STK for 
   142B AF                 6492 	xor	a,a
   142C F8 07              6493 	lda	hl,7(sp)
   142E 7E                 6494 	ld	a,(hl)
   142F 99                 6495 	sbc	a,c ; 2
   1430 23                 6496 	inc	hl
   1431 7E                 6497 	ld	a,(hl)
   1432 98                 6498 	sbc	a,b ; 2
   1433 DA 3B 14           6499 	jp	c,00102$
                           6500 ;	Navigation/../CharacterInfo/GameCharacter.c 53
                           6501 ; genRet
   1436 1E 00              6502 	ld	e,#0x00
   1438 C3 7A 14           6503 	jp	00105$
                           6504 ; genLabel
   143B                    6505 00102$:
                           6506 ;	Navigation/../CharacterInfo/GameCharacter.c 55
                           6507 ; genIpush
   143B 21 0C 00           6508 	ld	hl,#0x000C
   143E E5                 6509 	push	hl
                           6510 ; genIpush
                           6511 ; AOP_STK for 
   143F F8 09              6512 	lda	hl,9(sp)
   1441 2A                 6513 	ld	a,(hl+)
   1442 66                 6514 	ld	h,(hl)
   1443 6F                 6515 	ld	l,a
   1444 E5                 6516 	push	hl
                           6517 ; genCall
   1445 CD 00 00           6518 	call	__muluint
   1448 42                 6519 	ld	b,d
   1449 4B                 6520 	ld	c,e
   144A E8 04              6521 	lda	sp,4(sp)
                           6522 ; genPlus
                           6523 ; AOP_STK for _getCPUIsDefeated_sloc1_1_0
                           6524 ;	genPlusIncr failed
   144C 21 AF 13           6525 	ld	hl,#_CPU_info + 0
   144F 09                 6526 	add	hl,bc
   1450 7D                 6527 	ld	a,l
   1451 54                 6528 	ld	d,h
   1452 F8 00              6529 	lda	hl,0(sp)
   1454 22                 6530 	ld	(hl+),a
   1455 72                 6531 	ld	(hl),d
                           6532 ; genPlus
                           6533 ; AOP_STK for _getCPUIsDefeated_sloc1_1_0
                           6534 ; genPlusIncr
                           6535 ;	genPlusIncr failed
   1456 2B                 6536 	dec	hl
   1457 5E                 6537 	ld	e,(hl)
   1458 23                 6538 	inc	hl
   1459 56                 6539 	ld	d,(hl)
   145A 21 0B 00           6540 	ld	hl,#0x000B
   145D 19                 6541 	add	hl,de
   145E 5D                 6542 	ld	e,l
   145F 54                 6543 	ld	d,h
                           6544 ; genPointerGet
   1460 1A                 6545 	ld	a,(de)
   1461 4F                 6546 	ld	c,a
                           6547 ; genIfx
                           6548 ; Removed redundent or a,a
   1462 AF                 6549 	xor	a,a
   1463 B1                 6550 	or	a,c
   1464 CA 78 14           6551 	jp	z,00104$
                           6552 ;	Navigation/../CharacterInfo/GameCharacter.c 56
                           6553 ; genPlus
                           6554 ; AOP_STK for _getCPUIsDefeated_sloc1_1_0
                           6555 ; genPlusIncr
                           6556 ;	genPlusIncr failed
   1467 F8 00              6557 	lda	hl,0(sp)
   1469 5E                 6558 	ld	e,(hl)
   146A 23                 6559 	inc	hl
   146B 56                 6560 	ld	d,(hl)
   146C 21 12 00           6561 	ld	hl,#0x0012
   146F 19                 6562 	add	hl,de
   1470 5D                 6563 	ld	e,l
   1471 54                 6564 	ld	d,h
                           6565 ; genPointerGet
   1472 1A                 6566 	ld	a,(de)
   1473 4F                 6567 	ld	c,a
                           6568 ; genRet
   1474 59                 6569 	ld	e,c
   1475 C3 7A 14           6570 	jp	00105$
                           6571 ; genLabel
   1478                    6572 00104$:
                           6573 ;	Navigation/../CharacterInfo/GameCharacter.c 58
                           6574 ; genRet
   1478 1E 00              6575 	ld	e,#0x00
                           6576 ; genLabel
   147A                    6577 00105$:
                           6578 ; genEndFunction
   147A E8 03              6579 	lda	sp,3(sp)
   147C C1                 6580 	pop	bc
   147D C9                 6581 	ret
   147E                    6582 ___getCPUIsDefeated_end:
                           6583 ;	Navigation/../CharacterInfo/GameCharacter.c 61
                           6584 ; genLabel
                           6585 ; genFunction
                           6586 ;	---------------------------------
                           6587 ; Function getCPUDefeatedDialog
                           6588 ; ---------------------------------
   147E                    6589 ___getCPUDefeatedDialog_start:
   147E                    6590 _getCPUDefeatedDialog:
   147E C5                 6591 	push	bc
   147F E8 FD              6592 	lda	sp,-3(sp)
                           6593 ;	Navigation/../CharacterInfo/GameCharacter.c 62
                           6594 ; genPlus
                           6595 ; genPlusIncr
   1481 11 DF 13           6596 	ld	de,#_CPU_info + 0 + 48
                           6597 ; genPointerGet
                           6598 ; AOP_STK for _getCPUDefeatedDialog_sloc0_1_0
   1484 1A                 6599 	ld	a,(de)
   1485 F8 02              6600 	lda	hl,2(sp)
   1487 77                 6601 	ld	(hl),a
                           6602 ; genAssign
                           6603 ; (operands are equal 3)
                           6604 ; genCast
                           6605 ; AOP_STK for _getCPUDefeatedDialog_sloc0_1_0
   1488 4E                 6606 	ld	c,(hl)
   1489 06 00              6607 	ld	b,#0x00
                           6608 ; genCmpLt
                           6609 ; AOP_STK for 
   148B AF                 6610 	xor	a,a
   148C F8 07              6611 	lda	hl,7(sp)
   148E 7E                 6612 	ld	a,(hl)
   148F 99                 6613 	sbc	a,c ; 2
   1490 23                 6614 	inc	hl
   1491 7E                 6615 	ld	a,(hl)
   1492 98                 6616 	sbc	a,b ; 2
   1493 DA 9C 14           6617 	jp	c,00102$
                           6618 ;	Navigation/../CharacterInfo/GameCharacter.c 63
                           6619 ; genRet
   1496 11 00 00           6620 	ld	de,#0x0000
   1499 C3 E0 14           6621 	jp	00105$
                           6622 ; genLabel
   149C                    6623 00102$:
                           6624 ;	Navigation/../CharacterInfo/GameCharacter.c 65
                           6625 ; genIpush
   149C 21 0C 00           6626 	ld	hl,#0x000C
   149F E5                 6627 	push	hl
                           6628 ; genIpush
                           6629 ; AOP_STK for 
   14A0 F8 09              6630 	lda	hl,9(sp)
   14A2 2A                 6631 	ld	a,(hl+)
   14A3 66                 6632 	ld	h,(hl)
   14A4 6F                 6633 	ld	l,a
   14A5 E5                 6634 	push	hl
                           6635 ; genCall
   14A6 CD 00 00           6636 	call	__muluint
   14A9 42                 6637 	ld	b,d
   14AA 4B                 6638 	ld	c,e
   14AB E8 04              6639 	lda	sp,4(sp)
                           6640 ; genPlus
                           6641 ; AOP_STK for _getCPUDefeatedDialog_sloc1_1_0
                           6642 ;	genPlusIncr failed
   14AD 21 AF 13           6643 	ld	hl,#_CPU_info + 0
   14B0 09                 6644 	add	hl,bc
   14B1 7D                 6645 	ld	a,l
   14B2 54                 6646 	ld	d,h
   14B3 F8 00              6647 	lda	hl,0(sp)
   14B5 22                 6648 	ld	(hl+),a
   14B6 72                 6649 	ld	(hl),d
                           6650 ; genPlus
                           6651 ; AOP_STK for _getCPUDefeatedDialog_sloc1_1_0
                           6652 ; genPlusIncr
                           6653 ;	genPlusIncr failed
   14B7 2B                 6654 	dec	hl
   14B8 5E                 6655 	ld	e,(hl)
   14B9 23                 6656 	inc	hl
   14BA 56                 6657 	ld	d,(hl)
   14BB 21 0B 00           6658 	ld	hl,#0x000B
   14BE 19                 6659 	add	hl,de
   14BF 5D                 6660 	ld	e,l
   14C0 54                 6661 	ld	d,h
                           6662 ; genPointerGet
   14C1 1A                 6663 	ld	a,(de)
   14C2 4F                 6664 	ld	c,a
                           6665 ; genIfx
                           6666 ; Removed redundent or a,a
   14C3 AF                 6667 	xor	a,a
   14C4 B1                 6668 	or	a,c
   14C5 CA DD 14           6669 	jp	z,00104$
                           6670 ;	Navigation/../CharacterInfo/GameCharacter.c 66
                           6671 ; genPlus
                           6672 ; AOP_STK for _getCPUDefeatedDialog_sloc1_1_0
                           6673 ; genPlusIncr
                           6674 ;	genPlusIncr failed
   14C8 F8 00              6675 	lda	hl,0(sp)
   14CA 5E                 6676 	ld	e,(hl)
   14CB 23                 6677 	inc	hl
   14CC 56                 6678 	ld	d,(hl)
   14CD 21 13 00           6679 	ld	hl,#0x0013
   14D0 19                 6680 	add	hl,de
   14D1 5D                 6681 	ld	e,l
   14D2 54                 6682 	ld	d,h
                           6683 ; genPointerGet
                           6684 ; Removed redundent load
                           6685 ; Removed redundent load
   14D3 1A                 6686 	ld	a,(de)
   14D4 4F                 6687 	ld	c,a
   14D5 13                 6688 	inc	de
   14D6 1A                 6689 	ld	a,(de)
   14D7 47                 6690 	ld	b,a
                           6691 ; genRet
   14D8 59                 6692 	ld	e,c
   14D9 50                 6693 	ld	d,b
   14DA C3 E0 14           6694 	jp	00105$
                           6695 ; genLabel
   14DD                    6696 00104$:
                           6697 ;	Navigation/../CharacterInfo/GameCharacter.c 68
                           6698 ; genRet
   14DD 11 00 00           6699 	ld	de,#0x0000
                           6700 ; genLabel
   14E0                    6701 00105$:
                           6702 ; genEndFunction
   14E0 E8 03              6703 	lda	sp,3(sp)
   14E2 C1                 6704 	pop	bc
   14E3 C9                 6705 	ret
   14E4                    6706 ___getCPUDefeatedDialog_end:
                           6707 ;	Navigation/../MonsterSelect/monsterSelect.c 17
                           6708 ; genLabel
                           6709 ; genFunction
                           6710 ;	---------------------------------
                           6711 ; Function init_stack
                           6712 ; ---------------------------------
   14E4                    6713 ___init_stack_start:
   14E4                    6714 _init_stack:
   14E4 C5                 6715 	push	bc
                           6716 	
                           6717 ;	Navigation/../MonsterSelect/monsterSelect.c 18
                           6718 ; genAssign
                           6719 ; AOP_STK for 
   14E5 F8 04              6720 	lda	hl,4(sp)
   14E7 4E                 6721 	ld	c,(hl)
   14E8 23                 6722 	inc	hl
   14E9 46                 6723 	ld	b,(hl)
                           6724 ; genPlus
                           6725 ; genPlusIncr
                           6726 ;	genPlusIncr failed
   14EA 79                 6727 	ld	a,c
   14EB C6 0C              6728 	add	a,#0x0C
   14ED 5F                 6729 	ld	e,a
   14EE 78                 6730 	ld	a,b
   14EF CE 00              6731 	adc	a,#0x00
   14F1 57                 6732 	ld	d,a
                           6733 ; genAssign (pointer)
   14F2 3E FF              6734 	ld	a,#0xFF
   14F4 12                 6735 	ld	(de),a
   14F5 13                 6736 	inc	de
   14F6 3E FF              6737 	ld	a,#0xFF
   14F8 12                 6738 	ld	(de),a
                           6739 ; genLabel
   14F9                    6740 00101$:
                           6741 ; genEndFunction
                           6742 	
   14F9 C1                 6743 	pop	bc
   14FA C9                 6744 	ret
   14FB                    6745 ___init_stack_end:
   14FB                    6746 _monsters:
   14FB 00                 6747 	.db #0x00
   14FC 43 68 61 72 6D 61  6748 	.ascii "Charmander"
        6E 64 65 72
   1506 00                 6749 	.db 0x00
   1507 00                 6750 	.db 0x00
   1508 00                 6751 	.db 0x00
   1509 00                 6752 	.db 0x00
   150A 00                 6753 	.db 0x00
   150B 00                 6754 	.db 0x00
   150C 00                 6755 	.db 0x00
   150D 00                 6756 	.db 0x00
   150E 00                 6757 	.db 0x00
   150F 00                 6758 	.db 0x00
   1510 00 00              6759 	.dw #0x0000
   1512 04 00              6760 	.dw #0x0004
   1514 00                 6761 	.db #0x00
   1515 01                 6762 	.db #0x01
   1516 03                 6763 	.db #0x03
   1517 06                 6764 	.db #0x06
   1518 64 00              6765 	.dw #0x0064
   151A 32 00              6766 	.dw #0x0032
   151C 46 00              6767 	.dw #0x0046
   151E 1E 00              6768 	.dw #0x001E
   1520 01                 6769 	.db #0x01
   1521 53 71 75 69 72 74  6770 	.ascii "Squirtle"
        6C 65
   1529 00                 6771 	.db 0x00
   152A 00                 6772 	.db 0x00
   152B 00                 6773 	.db 0x00
   152C 00                 6774 	.db 0x00
   152D 00                 6775 	.db 0x00
   152E 00                 6776 	.db 0x00
   152F 00                 6777 	.db 0x00
   1530 00                 6778 	.db 0x00
   1531 00                 6779 	.db 0x00
   1532 00                 6780 	.db 0x00
   1533 00                 6781 	.db 0x00
   1534 00                 6782 	.db 0x00
   1535 05 00              6783 	.dw #0x0005
   1537 05 00              6784 	.dw #0x0005
   1539 04                 6785 	.db #0x04
   153A 0D                 6786 	.db #0x0D
   153B 0A                 6787 	.db #0x0A
   153C 0E                 6788 	.db #0x0E
   153D 78 00              6789 	.dw #0x0078
   153F 28 00              6790 	.dw #0x0028
   1541 3C 00              6791 	.dw #0x003C
   1543 32 00              6792 	.dw #0x0032
   1545 02                 6793 	.db #0x02
   1546 42 75 6C 62 61 73  6794 	.ascii "Bulbasaur"
        61 75 72
   154F 00                 6795 	.db 0x00
   1550 00                 6796 	.db 0x00
   1551 00                 6797 	.db 0x00
   1552 00                 6798 	.db 0x00
   1553 00                 6799 	.db 0x00
   1554 00                 6800 	.db 0x00
   1555 00                 6801 	.db 0x00
   1556 00                 6802 	.db 0x00
   1557 00                 6803 	.db 0x00
   1558 00                 6804 	.db 0x00
   1559 00                 6805 	.db 0x00
   155A 01 00              6806 	.dw #0x0001
   155C 01 00              6807 	.dw #0x0001
   155E 08                 6808 	.db #0x08
   155F 0C                 6809 	.db #0x0C
   1560 02                 6810 	.db #0x02
   1561 06                 6811 	.db #0x06
   1562 6E 00              6812 	.dw #0x006E
   1564 3C 00              6813 	.dw #0x003C
   1566 28 00              6814 	.dw #0x0028
   1568 28 00              6815 	.dw #0x0028
   156A 03                 6816 	.db #0x03
   156B 44 72 61 67 6F 6E  6817 	.ascii "Dragonite"
        69 74 65
   1574 00                 6818 	.db 0x00
   1575 00                 6819 	.db 0x00
   1576 00                 6820 	.db 0x00
   1577 00                 6821 	.db 0x00
   1578 00                 6822 	.db 0x00
   1579 00                 6823 	.db 0x00
   157A 00                 6824 	.db 0x00
   157B 00                 6825 	.db 0x00
   157C 00                 6826 	.db 0x00
   157D 00                 6827 	.db 0x00
   157E 00                 6828 	.db 0x00
   157F 00 00              6829 	.dw #0x0000
   1581 04 00              6830 	.dw #0x0004
   1583 10                 6831 	.db #0x10
   1584 14                 6832 	.db #0x14
   1585 0F                 6833 	.db #0x0F
   1586 06                 6834 	.db #0x06
   1587 96 00              6835 	.dw #0x0096
   1589 50 00              6836 	.dw #0x0050
   158B 5A 00              6837 	.dw #0x005A
   158D 3C 00              6838 	.dw #0x003C
   158F 04                 6839 	.db #0x04
   1590 41 6C 61 6B 61 7A  6840 	.ascii "Alakazam"
        61 6D
   1598 00                 6841 	.db 0x00
   1599 00                 6842 	.db 0x00
   159A 00                 6843 	.db 0x00
   159B 00                 6844 	.db 0x00
   159C 00                 6845 	.db 0x00
   159D 00                 6846 	.db 0x00
   159E 00                 6847 	.db 0x00
   159F 00                 6848 	.db 0x00
   15A0 00                 6849 	.db 0x00
   15A1 00                 6850 	.db 0x00
   15A2 00                 6851 	.db 0x00
   15A3 00                 6852 	.db 0x00
   15A4 04 00              6853 	.dw #0x0004
   15A6 04 00              6854 	.dw #0x0004
   15A8 06                 6855 	.db #0x06
   15A9 12                 6856 	.db #0x12
   15AA 13                 6857 	.db #0x13
   15AB 07                 6858 	.db #0x07
   15AC 5A 00              6859 	.dw #0x005A
   15AE 46 00              6860 	.dw #0x0046
   15B0 64 00              6861 	.dw #0x0064
   15B2 28 00              6862 	.dw #0x0028
   15B4 05                 6863 	.db #0x05
   15B5 47 61 72 64 65 76  6864 	.ascii "Gardevoir"
        6F 69 72
   15BE 00                 6865 	.db 0x00
   15BF 00                 6866 	.db 0x00
   15C0 00                 6867 	.db 0x00
   15C1 00                 6868 	.db 0x00
   15C2 00                 6869 	.db 0x00
   15C3 00                 6870 	.db 0x00
   15C4 00                 6871 	.db 0x00
   15C5 00                 6872 	.db 0x00
   15C6 00                 6873 	.db 0x00
   15C7 00                 6874 	.db 0x00
   15C8 00                 6875 	.db 0x00
   15C9 05 00              6876 	.dw #0x0005
   15CB 01 00              6877 	.dw #0x0001
   15CD 06                 6878 	.db #0x06
   15CE 15                 6879 	.db #0x15
   15CF 13                 6880 	.db #0x13
   15D0 07                 6881 	.db #0x07
   15D1 6E 00              6882 	.dw #0x006E
   15D3 3C 00              6883 	.dw #0x003C
   15D5 5A 00              6884 	.dw #0x005A
   15D7 32 00              6885 	.dw #0x0032
   15D9 06                 6886 	.db #0x06
   15DA 43 68 61 72 69 7A  6887 	.ascii "Charizard"
        61 72 64
   15E3 00                 6888 	.db 0x00
   15E4 00                 6889 	.db 0x00
   15E5 00                 6890 	.db 0x00
   15E6 00                 6891 	.db 0x00
   15E7 00                 6892 	.db 0x00
   15E8 00                 6893 	.db 0x00
   15E9 00                 6894 	.db 0x00
   15EA 00                 6895 	.db 0x00
   15EB 00                 6896 	.db 0x00
   15EC 00                 6897 	.db 0x00
   15ED 00                 6898 	.db 0x00
   15EE 00 00              6899 	.dw #0x0000
   15F0 04 00              6900 	.dw #0x0004
   15F2 00                 6901 	.db #0x00
   15F3 01                 6902 	.db #0x01
   15F4 10                 6903 	.db #0x10
   15F5 0F                 6904 	.db #0x0F
   15F6 B4 00              6905 	.dw #0x00B4
   15F8 50 00              6906 	.dw #0x0050
   15FA 46 00              6907 	.dw #0x0046
   15FC 32 00              6908 	.dw #0x0032
   15FE 07                 6909 	.db #0x07
   15FF 42 6C 61 73 74 6F  6910 	.ascii "Blastoise"
        69 73 65
   1608 00                 6911 	.db 0x00
   1609 00                 6912 	.db 0x00
   160A 00                 6913 	.db 0x00
   160B 00                 6914 	.db 0x00
   160C 00                 6915 	.db 0x00
   160D 00                 6916 	.db 0x00
   160E 00                 6917 	.db 0x00
   160F 00                 6918 	.db 0x00
   1610 00                 6919 	.db 0x00
   1611 00                 6920 	.db 0x00
   1612 00                 6921 	.db 0x00
   1613 05 00              6922 	.dw #0x0005
   1615 02 00              6923 	.dw #0x0002
   1617 0D                 6924 	.db #0x0D
   1618 0A                 6925 	.db #0x0A
   1619 0E                 6926 	.db #0x0E
   161A 05                 6927 	.db #0x05
   161B C8 00              6928 	.dw #0x00C8
   161D 3C 00              6929 	.dw #0x003C
   161F 32 00              6930 	.dw #0x0032
   1621 50 00              6931 	.dw #0x0050
   1623 08                 6932 	.db #0x08
   1624 56 65 6E 75 73 61  6933 	.ascii "Venusaur"
        75 72
   162C 00                 6934 	.db 0x00
   162D 00                 6935 	.db 0x00
   162E 00                 6936 	.db 0x00
   162F 00                 6937 	.db 0x00
   1630 00                 6938 	.db 0x00
   1631 00                 6939 	.db 0x00
   1632 00                 6940 	.db 0x00
   1633 00                 6941 	.db 0x00
   1634 00                 6942 	.db 0x00
   1635 00                 6943 	.db 0x00
   1636 00                 6944 	.db 0x00
   1637 00                 6945 	.db 0x00
   1638 01 00              6946 	.dw #0x0001
   163A 02 00              6947 	.dw #0x0002
   163C 08                 6948 	.db #0x08
   163D 0C                 6949 	.db #0x0C
   163E 02                 6950 	.db #0x02
   163F 05                 6951 	.db #0x05
   1640 A0 00              6952 	.dw #0x00A0
   1642 46 00              6953 	.dw #0x0046
   1644 3C 00              6954 	.dw #0x003C
   1646 46 00              6955 	.dw #0x0046
   1648 09                 6956 	.db #0x09
   1649 47 6F 6C 65 6D     6957 	.ascii "Golem"
   164E 00                 6958 	.db 0x00
   164F 00                 6959 	.db 0x00
   1650 00                 6960 	.db 0x00
   1651 00                 6961 	.db 0x00
   1652 00                 6962 	.db 0x00
   1653 00                 6963 	.db 0x00
   1654 00                 6964 	.db 0x00
   1655 00                 6965 	.db 0x00
   1656 00                 6966 	.db 0x00
   1657 00                 6967 	.db 0x00
   1658 00                 6968 	.db 0x00
   1659 00                 6969 	.db 0x00
   165A 00                 6970 	.db 0x00
   165B 00                 6971 	.db 0x00
   165C 00                 6972 	.db 0x00
   165D 02 00              6973 	.dw #0x0002
   165F 03 00              6974 	.dw #0x0003
   1661 05                 6975 	.db #0x05
   1662 03                 6976 	.db #0x03
   1663 07                 6977 	.db #0x07
   1664 0F                 6978 	.db #0x0F
   1665 B4 00              6979 	.dw #0x00B4
   1667 50 00              6980 	.dw #0x0050
   1669 28 00              6981 	.dw #0x0028
   166B 5A 00              6982 	.dw #0x005A
   166D 10                 6983 	.db #0x10
   166E 43 68 61 72 6D 61  6984 	.ascii "Charmander2"
        6E 64 65 72 32
   1679 00                 6985 	.db 0x00
   167A 00                 6986 	.db 0x00
   167B 00                 6987 	.db 0x00
   167C 00                 6988 	.db 0x00
   167D 00                 6989 	.db 0x00
   167E 00                 6990 	.db 0x00
   167F 00                 6991 	.db 0x00
   1680 00                 6992 	.db 0x00
   1681 00                 6993 	.db 0x00
   1682 00 00              6994 	.dw #0x0000
   1684 04 00              6995 	.dw #0x0004
   1686 00                 6996 	.db #0x00
   1687 01                 6997 	.db #0x01
   1688 03                 6998 	.db #0x03
   1689 06                 6999 	.db #0x06
   168A 64 00              7000 	.dw #0x0064
   168C 32 00              7001 	.dw #0x0032
   168E 46 00              7002 	.dw #0x0046
   1690 1E 00              7003 	.dw #0x001E
   1692 0B                 7004 	.db #0x0B
   1693 53 71 75 69 72 74  7005 	.ascii "Squirtle2"
        6C 65 32
   169C 00                 7006 	.db 0x00
   169D 00                 7007 	.db 0x00
   169E 00                 7008 	.db 0x00
   169F 00                 7009 	.db 0x00
   16A0 00                 7010 	.db 0x00
   16A1 00                 7011 	.db 0x00
   16A2 00                 7012 	.db 0x00
   16A3 00                 7013 	.db 0x00
   16A4 00                 7014 	.db 0x00
   16A5 00                 7015 	.db 0x00
   16A6 00                 7016 	.db 0x00
   16A7 05 00              7017 	.dw #0x0005
   16A9 05 00              7018 	.dw #0x0005
   16AB 04                 7019 	.db #0x04
   16AC 0D                 7020 	.db #0x0D
   16AD 0A                 7021 	.db #0x0A
   16AE 0E                 7022 	.db #0x0E
   16AF 78 00              7023 	.dw #0x0078
   16B1 28 00              7024 	.dw #0x0028
   16B3 3C 00              7025 	.dw #0x003C
   16B5 32 00              7026 	.dw #0x0032
   16B7 0C                 7027 	.db #0x0C
   16B8 42 75 6C 62 61 73  7028 	.ascii "Bulbasaur2"
        61 75 72 32
   16C2 00                 7029 	.db 0x00
   16C3 00                 7030 	.db 0x00
   16C4 00                 7031 	.db 0x00
   16C5 00                 7032 	.db 0x00
   16C6 00                 7033 	.db 0x00
   16C7 00                 7034 	.db 0x00
   16C8 00                 7035 	.db 0x00
   16C9 00                 7036 	.db 0x00
   16CA 00                 7037 	.db 0x00
   16CB 00                 7038 	.db 0x00
   16CC 01 00              7039 	.dw #0x0001
   16CE 01 00              7040 	.dw #0x0001
   16D0 08                 7041 	.db #0x08
   16D1 0C                 7042 	.db #0x0C
   16D2 02                 7043 	.db #0x02
   16D3 06                 7044 	.db #0x06
   16D4 6E 00              7045 	.dw #0x006E
   16D6 3C 00              7046 	.dw #0x003C
   16D8 28 00              7047 	.dw #0x0028
   16DA 28 00              7048 	.dw #0x0028
   16DC 0D                 7049 	.db #0x0D
   16DD 44 72 61 67 6F 6E  7050 	.ascii "Dragonite2"
        69 74 65 32
   16E7 00                 7051 	.db 0x00
   16E8 00                 7052 	.db 0x00
   16E9 00                 7053 	.db 0x00
   16EA 00                 7054 	.db 0x00
   16EB 00                 7055 	.db 0x00
   16EC 00                 7056 	.db 0x00
   16ED 00                 7057 	.db 0x00
   16EE 00                 7058 	.db 0x00
   16EF 00                 7059 	.db 0x00
   16F0 00                 7060 	.db 0x00
   16F1 00 00              7061 	.dw #0x0000
   16F3 04 00              7062 	.dw #0x0004
   16F5 10                 7063 	.db #0x10
   16F6 14                 7064 	.db #0x14
   16F7 0F                 7065 	.db #0x0F
   16F8 06                 7066 	.db #0x06
   16F9 96 00              7067 	.dw #0x0096
   16FB 50 00              7068 	.dw #0x0050
   16FD 5A 00              7069 	.dw #0x005A
   16FF 3C 00              7070 	.dw #0x003C
   1701 0E                 7071 	.db #0x0E
   1702 41 6C 61 6B 61 7A  7072 	.ascii "Alakazam2"
        61 6D 32
   170B 00                 7073 	.db 0x00
   170C 00                 7074 	.db 0x00
   170D 00                 7075 	.db 0x00
   170E 00                 7076 	.db 0x00
   170F 00                 7077 	.db 0x00
   1710 00                 7078 	.db 0x00
   1711 00                 7079 	.db 0x00
   1712 00                 7080 	.db 0x00
   1713 00                 7081 	.db 0x00
   1714 00                 7082 	.db 0x00
   1715 00                 7083 	.db 0x00
   1716 06 00              7084 	.dw #0x0006
   1718 06 00              7085 	.dw #0x0006
   171A 06                 7086 	.db #0x06
   171B 12                 7087 	.db #0x12
   171C 13                 7088 	.db #0x13
   171D 07                 7089 	.db #0x07
   171E 5A 00              7090 	.dw #0x005A
   1720 46 00              7091 	.dw #0x0046
   1722 64 00              7092 	.dw #0x0064
   1724 28 00              7093 	.dw #0x0028
   1726 0F                 7094 	.db #0x0F
   1727 47 61 72 64 65 76  7095 	.ascii "Gardevoir2"
        6F 69 72 32
   1731 00                 7096 	.db 0x00
   1732 00                 7097 	.db 0x00
   1733 00                 7098 	.db 0x00
   1734 00                 7099 	.db 0x00
   1735 00                 7100 	.db 0x00
   1736 00                 7101 	.db 0x00
   1737 00                 7102 	.db 0x00
   1738 00                 7103 	.db 0x00
   1739 00                 7104 	.db 0x00
   173A 00                 7105 	.db 0x00
   173B 06 00              7106 	.dw #0x0006
   173D 01 00              7107 	.dw #0x0001
   173F 06                 7108 	.db #0x06
   1740 15                 7109 	.db #0x15
   1741 13                 7110 	.db #0x13
   1742 07                 7111 	.db #0x07
   1743 6E 00              7112 	.dw #0x006E
   1745 3C 00              7113 	.dw #0x003C
   1747 5A 00              7114 	.dw #0x005A
   1749 32 00              7115 	.dw #0x0032
   174B 10                 7116 	.db #0x10
   174C 43 68 61 72 69 7A  7117 	.ascii "Charizard2"
        61 72 64 32
   1756 00                 7118 	.db 0x00
   1757 00                 7119 	.db 0x00
   1758 00                 7120 	.db 0x00
   1759 00                 7121 	.db 0x00
   175A 00                 7122 	.db 0x00
   175B 00                 7123 	.db 0x00
   175C 00                 7124 	.db 0x00
   175D 00                 7125 	.db 0x00
   175E 00                 7126 	.db 0x00
   175F 00                 7127 	.db 0x00
   1760 00 00              7128 	.dw #0x0000
   1762 04 00              7129 	.dw #0x0004
   1764 00                 7130 	.db #0x00
   1765 01                 7131 	.db #0x01
   1766 10                 7132 	.db #0x10
   1767 0F                 7133 	.db #0x0F
   1768 B4 00              7134 	.dw #0x00B4
   176A 50 00              7135 	.dw #0x0050
   176C 46 00              7136 	.dw #0x0046
   176E 32 00              7137 	.dw #0x0032
   1770 11                 7138 	.db #0x11
   1771 42 6C 61 73 74 6F  7139 	.ascii "Blastoise2"
        69 73 65 32
   177B 00                 7140 	.db 0x00
   177C 00                 7141 	.db 0x00
   177D 00                 7142 	.db 0x00
   177E 00                 7143 	.db 0x00
   177F 00                 7144 	.db 0x00
   1780 00                 7145 	.db 0x00
   1781 00                 7146 	.db 0x00
   1782 00                 7147 	.db 0x00
   1783 00                 7148 	.db 0x00
   1784 00                 7149 	.db 0x00
   1785 05 00              7150 	.dw #0x0005
   1787 02 00              7151 	.dw #0x0002
   1789 0D                 7152 	.db #0x0D
   178A 0A                 7153 	.db #0x0A
   178B 0E                 7154 	.db #0x0E
   178C 05                 7155 	.db #0x05
   178D C8 00              7156 	.dw #0x00C8
   178F 3C 00              7157 	.dw #0x003C
   1791 32 00              7158 	.dw #0x0032
   1793 50 00              7159 	.dw #0x0050
   1795 12                 7160 	.db #0x12
   1796 56 65 6E 75 73 61  7161 	.ascii "Venusaur2"
        75 72 32
   179F 00                 7162 	.db 0x00
   17A0 00                 7163 	.db 0x00
   17A1 00                 7164 	.db 0x00
   17A2 00                 7165 	.db 0x00
   17A3 00                 7166 	.db 0x00
   17A4 00                 7167 	.db 0x00
   17A5 00                 7168 	.db 0x00
   17A6 00                 7169 	.db 0x00
   17A7 00                 7170 	.db 0x00
   17A8 00                 7171 	.db 0x00
   17A9 00                 7172 	.db 0x00
   17AA 01 00              7173 	.dw #0x0001
   17AC 02 00              7174 	.dw #0x0002
   17AE 08                 7175 	.db #0x08
   17AF 0C                 7176 	.db #0x0C
   17B0 02                 7177 	.db #0x02
   17B1 05                 7178 	.db #0x05
   17B2 A0 00              7179 	.dw #0x00A0
   17B4 46 00              7180 	.dw #0x0046
   17B6 3C 00              7181 	.dw #0x003C
   17B8 46 00              7182 	.dw #0x0046
   17BA 13                 7183 	.db #0x13
   17BB 47 6F 6C 65 6D 32  7184 	.ascii "Golem2"
   17C1 00                 7185 	.db 0x00
   17C2 00                 7186 	.db 0x00
   17C3 00                 7187 	.db 0x00
   17C4 00                 7188 	.db 0x00
   17C5 00                 7189 	.db 0x00
   17C6 00                 7190 	.db 0x00
   17C7 00                 7191 	.db 0x00
   17C8 00                 7192 	.db 0x00
   17C9 00                 7193 	.db 0x00
   17CA 00                 7194 	.db 0x00
   17CB 00                 7195 	.db 0x00
   17CC 00                 7196 	.db 0x00
   17CD 00                 7197 	.db 0x00
   17CE 00                 7198 	.db 0x00
   17CF 02 00              7199 	.dw #0x0002
   17D1 03 00              7200 	.dw #0x0003
   17D3 05                 7201 	.db #0x05
   17D4 03                 7202 	.db #0x03
   17D5 07                 7203 	.db #0x07
   17D6 0F                 7204 	.db #0x0F
   17D7 B4 00              7205 	.dw #0x00B4
   17D9 50 00              7206 	.dw #0x0050
   17DB 28 00              7207 	.dw #0x0028
   17DD 5A 00              7208 	.dw #0x005A
   17DF 14                 7209 	.db #0x14
   17E0 47 61 72 64 65 76  7210 	.ascii "Gardevoir3"
        6F 69 72 33
   17EA 00                 7211 	.db 0x00
   17EB 00                 7212 	.db 0x00
   17EC 00                 7213 	.db 0x00
   17ED 00                 7214 	.db 0x00
   17EE 00                 7215 	.db 0x00
   17EF 00                 7216 	.db 0x00
   17F0 00                 7217 	.db 0x00
   17F1 00                 7218 	.db 0x00
   17F2 00                 7219 	.db 0x00
   17F3 00                 7220 	.db 0x00
   17F4 06 00              7221 	.dw #0x0006
   17F6 01 00              7222 	.dw #0x0001
   17F8 06                 7223 	.db #0x06
   17F9 15                 7224 	.db #0x15
   17FA 13                 7225 	.db #0x13
   17FB 07                 7226 	.db #0x07
   17FC 6E 00              7227 	.dw #0x006E
   17FE 3C 00              7228 	.dw #0x003C
   1800 5A 00              7229 	.dw #0x005A
   1802 32 00              7230 	.dw #0x0032
   1804 15                 7231 	.db #0x15
   1805 43 68 61 72 69 7A  7232 	.ascii "Charizard3"
        61 72 64 33
   180F 00                 7233 	.db 0x00
   1810 00                 7234 	.db 0x00
   1811 00                 7235 	.db 0x00
   1812 00                 7236 	.db 0x00
   1813 00                 7237 	.db 0x00
   1814 00                 7238 	.db 0x00
   1815 00                 7239 	.db 0x00
   1816 00                 7240 	.db 0x00
   1817 00                 7241 	.db 0x00
   1818 00                 7242 	.db 0x00
   1819 00 00              7243 	.dw #0x0000
   181B 04 00              7244 	.dw #0x0004
   181D 00                 7245 	.db #0x00
   181E 01                 7246 	.db #0x01
   181F 10                 7247 	.db #0x10
   1820 0F                 7248 	.db #0x0F
   1821 B4 00              7249 	.dw #0x00B4
   1823 50 00              7250 	.dw #0x0050
   1825 46 00              7251 	.dw #0x0046
   1827 32 00              7252 	.dw #0x0032
   1829 16                 7253 	.db #0x16
   182A 42 6C 61 73 74 6F  7254 	.ascii "Blastoise3"
        69 73 65 33
   1834 00                 7255 	.db 0x00
   1835 00                 7256 	.db 0x00
   1836 00                 7257 	.db 0x00
   1837 00                 7258 	.db 0x00
   1838 00                 7259 	.db 0x00
   1839 00                 7260 	.db 0x00
   183A 00                 7261 	.db 0x00
   183B 00                 7262 	.db 0x00
   183C 00                 7263 	.db 0x00
   183D 00                 7264 	.db 0x00
   183E 05 00              7265 	.dw #0x0005
   1840 02 00              7266 	.dw #0x0002
   1842 0D                 7267 	.db #0x0D
   1843 0A                 7268 	.db #0x0A
   1844 0E                 7269 	.db #0x0E
   1845 05                 7270 	.db #0x05
   1846 C8 00              7271 	.dw #0x00C8
   1848 3C 00              7272 	.dw #0x003C
   184A 32 00              7273 	.dw #0x0032
   184C 50 00              7274 	.dw #0x0050
   184E 17                 7275 	.db #0x17
   184F 56 65 6E 75 73 61  7276 	.ascii "Venusaur3"
        75 72 33
   1858 00                 7277 	.db 0x00
   1859 00                 7278 	.db 0x00
   185A 00                 7279 	.db 0x00
   185B 00                 7280 	.db 0x00
   185C 00                 7281 	.db 0x00
   185D 00                 7282 	.db 0x00
   185E 00                 7283 	.db 0x00
   185F 00                 7284 	.db 0x00
   1860 00                 7285 	.db 0x00
   1861 00                 7286 	.db 0x00
   1862 00                 7287 	.db 0x00
   1863 01 00              7288 	.dw #0x0001
   1865 02 00              7289 	.dw #0x0002
   1867 08                 7290 	.db #0x08
   1868 0C                 7291 	.db #0x0C
   1869 02                 7292 	.db #0x02
   186A 05                 7293 	.db #0x05
   186B A0 00              7294 	.dw #0x00A0
   186D 46 00              7295 	.dw #0x0046
   186F 3C 00              7296 	.dw #0x003C
   1871 46 00              7297 	.dw #0x0046
   1873 18                 7298 	.db #0x18
   1874 47 6F 6C 65 6D 33  7299 	.ascii "Golem3"
   187A 00                 7300 	.db 0x00
   187B 00                 7301 	.db 0x00
   187C 00                 7302 	.db 0x00
   187D 00                 7303 	.db 0x00
   187E 00                 7304 	.db 0x00
   187F 00                 7305 	.db 0x00
   1880 00                 7306 	.db 0x00
   1881 00                 7307 	.db 0x00
   1882 00                 7308 	.db 0x00
   1883 00                 7309 	.db 0x00
   1884 00                 7310 	.db 0x00
   1885 00                 7311 	.db 0x00
   1886 00                 7312 	.db 0x00
   1887 00                 7313 	.db 0x00
   1888 02 00              7314 	.dw #0x0002
   188A 03 00              7315 	.dw #0x0003
   188C 05                 7316 	.db #0x05
   188D 03                 7317 	.db #0x03
   188E 07                 7318 	.db #0x07
   188F 0F                 7319 	.db #0x0F
   1890 B4 00              7320 	.dw #0x00B4
   1892 50 00              7321 	.dw #0x0050
   1894 28 00              7322 	.dw #0x0028
   1896 5A 00              7323 	.dw #0x005A
   1898 19                 7324 	.db #0x19
   1899 43 68 61 72 6D 61  7325 	.ascii "Charmander3"
        6E 64 65 72 33
   18A4 00                 7326 	.db 0x00
   18A5 00                 7327 	.db 0x00
   18A6 00                 7328 	.db 0x00
   18A7 00                 7329 	.db 0x00
   18A8 00                 7330 	.db 0x00
   18A9 00                 7331 	.db 0x00
   18AA 00                 7332 	.db 0x00
   18AB 00                 7333 	.db 0x00
   18AC 00                 7334 	.db 0x00
   18AD 00 00              7335 	.dw #0x0000
   18AF 04 00              7336 	.dw #0x0004
   18B1 00                 7337 	.db #0x00
   18B2 01                 7338 	.db #0x01
   18B3 03                 7339 	.db #0x03
   18B4 06                 7340 	.db #0x06
   18B5 64 00              7341 	.dw #0x0064
   18B7 32 00              7342 	.dw #0x0032
   18B9 46 00              7343 	.dw #0x0046
   18BB 1E 00              7344 	.dw #0x001E
   18BD                    7345 _Select_Screen_data:
   18BD FF                 7346 	.db #0xFF
   18BE FF                 7347 	.db #0xFF
   18BF FF                 7348 	.db #0xFF
   18C0 FF                 7349 	.db #0xFF
   18C1 C0                 7350 	.db #0xC0
   18C2 FF                 7351 	.db #0xFF
   18C3 C0                 7352 	.db #0xC0
   18C4 FF                 7353 	.db #0xFF
   18C5 C0                 7354 	.db #0xC0
   18C6 FF                 7355 	.db #0xFF
   18C7 C0                 7356 	.db #0xC0
   18C8 FF                 7357 	.db #0xFF
   18C9 C0                 7358 	.db #0xC0
   18CA FF                 7359 	.db #0xFF
   18CB C0                 7360 	.db #0xC0
   18CC FF                 7361 	.db #0xFF
   18CD FF                 7362 	.db #0xFF
   18CE FF                 7363 	.db #0xFF
   18CF FF                 7364 	.db #0xFF
   18D0 FF                 7365 	.db #0xFF
   18D1 00                 7366 	.db #0x00
   18D2 FF                 7367 	.db #0xFF
   18D3 00                 7368 	.db #0x00
   18D4 FF                 7369 	.db #0xFF
   18D5 00                 7370 	.db #0x00
   18D6 FF                 7371 	.db #0xFF
   18D7 00                 7372 	.db #0x00
   18D8 FF                 7373 	.db #0xFF
   18D9 00                 7374 	.db #0x00
   18DA FF                 7375 	.db #0xFF
   18DB 00                 7376 	.db #0x00
   18DC FF                 7377 	.db #0xFF
   18DD FF                 7378 	.db #0xFF
   18DE FF                 7379 	.db #0xFF
   18DF FF                 7380 	.db #0xFF
   18E0 FF                 7381 	.db #0xFF
   18E1 03                 7382 	.db #0x03
   18E2 FF                 7383 	.db #0xFF
   18E3 03                 7384 	.db #0x03
   18E4 FF                 7385 	.db #0xFF
   18E5 03                 7386 	.db #0x03
   18E6 FF                 7387 	.db #0xFF
   18E7 03                 7388 	.db #0x03
   18E8 FF                 7389 	.db #0xFF
   18E9 03                 7390 	.db #0x03
   18EA FF                 7391 	.db #0xFF
   18EB 03                 7392 	.db #0x03
   18EC FF                 7393 	.db #0xFF
   18ED C0                 7394 	.db #0xC0
   18EE FF                 7395 	.db #0xFF
   18EF C0                 7396 	.db #0xC0
   18F0 FF                 7397 	.db #0xFF
   18F1 C0                 7398 	.db #0xC0
   18F2 FF                 7399 	.db #0xFF
   18F3 C0                 7400 	.db #0xC0
   18F4 FF                 7401 	.db #0xFF
   18F5 FF                 7402 	.db #0xFF
   18F6 FF                 7403 	.db #0xFF
   18F7 FF                 7404 	.db #0xFF
   18F8 FF                 7405 	.db #0xFF
   18F9 C0                 7406 	.db #0xC0
   18FA FF                 7407 	.db #0xFF
   18FB C0                 7408 	.db #0xC0
   18FC FF                 7409 	.db #0xFF
   18FD 00                 7410 	.db #0x00
   18FE FF                 7411 	.db #0xFF
   18FF 00                 7412 	.db #0x00
   1900 FF                 7413 	.db #0xFF
   1901 00                 7414 	.db #0x00
   1902 FF                 7415 	.db #0xFF
   1903 00                 7416 	.db #0x00
   1904 FF                 7417 	.db #0xFF
   1905 FF                 7418 	.db #0xFF
   1906 FF                 7419 	.db #0xFF
   1907 FF                 7420 	.db #0xFF
   1908 FF                 7421 	.db #0xFF
   1909 00                 7422 	.db #0x00
   190A FF                 7423 	.db #0xFF
   190B 00                 7424 	.db #0x00
   190C FF                 7425 	.db #0xFF
   190D 00                 7426 	.db #0x00
   190E FF                 7427 	.db #0xFF
   190F 00                 7428 	.db #0x00
   1910 FF                 7429 	.db #0xFF
   1911 00                 7430 	.db #0x00
   1912 FF                 7431 	.db #0xFF
   1913 00                 7432 	.db #0x00
   1914 FF                 7433 	.db #0xFF
   1915 FF                 7434 	.db #0xFF
   1916 FF                 7435 	.db #0xFF
   1917 FF                 7436 	.db #0xFF
   1918 FF                 7437 	.db #0xFF
   1919 08                 7438 	.db #0x08
   191A FF                 7439 	.db #0xFF
   191B 08                 7440 	.db #0x08
   191C FF                 7441 	.db #0xFF
   191D 03                 7442 	.db #0x03
   191E FF                 7443 	.db #0xFF
   191F 03                 7444 	.db #0x03
   1920 FF                 7445 	.db #0xFF
   1921 03                 7446 	.db #0x03
   1922 FF                 7447 	.db #0xFF
   1923 03                 7448 	.db #0x03
   1924 FF                 7449 	.db #0xFF
   1925 FF                 7450 	.db #0xFF
   1926 FF                 7451 	.db #0xFF
   1927 FF                 7452 	.db #0xFF
   1928 FF                 7453 	.db #0xFF
   1929 03                 7454 	.db #0x03
   192A FF                 7455 	.db #0xFF
   192B 03                 7456 	.db #0x03
   192C FF                 7457 	.db #0xFF
   192D C0                 7458 	.db #0xC0
   192E FF                 7459 	.db #0xFF
   192F C0                 7460 	.db #0xC0
   1930 FF                 7461 	.db #0xFF
   1931 C0                 7462 	.db #0xC0
   1932 FF                 7463 	.db #0xFF
   1933 C0                 7464 	.db #0xC0
   1934 FF                 7465 	.db #0xFF
   1935 C0                 7466 	.db #0xC0
   1936 FF                 7467 	.db #0xFF
   1937 C0                 7468 	.db #0xC0
   1938 FF                 7469 	.db #0xFF
   1939 C0                 7470 	.db #0xC0
   193A FF                 7471 	.db #0xFF
   193B C0                 7472 	.db #0xC0
   193C FF                 7473 	.db #0xFF
   193D 00                 7474 	.db #0x00
   193E FF                 7475 	.db #0xFF
   193F 00                 7476 	.db #0x00
   1940 FF                 7477 	.db #0xFF
   1941 00                 7478 	.db #0x00
   1942 FF                 7479 	.db #0xFF
   1943 00                 7480 	.db #0x00
   1944 FF                 7481 	.db #0xFF
   1945 00                 7482 	.db #0x00
   1946 FF                 7483 	.db #0xFF
   1947 00                 7484 	.db #0x00
   1948 FF                 7485 	.db #0xFF
   1949 00                 7486 	.db #0x00
   194A FF                 7487 	.db #0xFF
   194B 00                 7488 	.db #0x00
   194C FF                 7489 	.db #0xFF
   194D 08                 7490 	.db #0x08
   194E FF                 7491 	.db #0xFF
   194F 08                 7492 	.db #0x08
   1950 FF                 7493 	.db #0xFF
   1951 08                 7494 	.db #0x08
   1952 FF                 7495 	.db #0xFF
   1953 08                 7496 	.db #0x08
   1954 FF                 7497 	.db #0xFF
   1955 08                 7498 	.db #0x08
   1956 FF                 7499 	.db #0xFF
   1957 08                 7500 	.db #0x08
   1958 FF                 7501 	.db #0xFF
   1959 08                 7502 	.db #0x08
   195A FF                 7503 	.db #0xFF
   195B 08                 7504 	.db #0x08
   195C FF                 7505 	.db #0xFF
   195D 03                 7506 	.db #0x03
   195E FF                 7507 	.db #0xFF
   195F 03                 7508 	.db #0x03
   1960 FF                 7509 	.db #0xFF
   1961 03                 7510 	.db #0x03
   1962 FF                 7511 	.db #0xFF
   1963 03                 7512 	.db #0x03
   1964 FF                 7513 	.db #0xFF
   1965 03                 7514 	.db #0x03
   1966 FF                 7515 	.db #0xFF
   1967 03                 7516 	.db #0x03
   1968 FF                 7517 	.db #0xFF
   1969 03                 7518 	.db #0x03
   196A FF                 7519 	.db #0xFF
   196B 03                 7520 	.db #0x03
   196C FF                 7521 	.db #0xFF
   196D 08                 7522 	.db #0x08
   196E FF                 7523 	.db #0xFF
   196F 08                 7524 	.db #0x08
   1970 FF                 7525 	.db #0xFF
   1971 08                 7526 	.db #0x08
   1972 FF                 7527 	.db #0xFF
   1973 08                 7528 	.db #0x08
   1974 FF                 7529 	.db #0xFF
   1975 FF                 7530 	.db #0xFF
   1976 FF                 7531 	.db #0xFF
   1977 FF                 7532 	.db #0xFF
   1978 FF                 7533 	.db #0xFF
   1979 00                 7534 	.db #0x00
   197A FF                 7535 	.db #0xFF
   197B 00                 7536 	.db #0x00
   197C FF                 7537 	.db #0xFF
   197D C0                 7538 	.db #0xC0
   197E FF                 7539 	.db #0xFF
   197F C0                 7540 	.db #0xC0
   1980 FF                 7541 	.db #0xFF
   1981 C0                 7542 	.db #0xC0
   1982 FF                 7543 	.db #0xFF
   1983 C0                 7544 	.db #0xC0
   1984 FF                 7545 	.db #0xFF
   1985 C0                 7546 	.db #0xC0
   1986 FF                 7547 	.db #0xFF
   1987 C0                 7548 	.db #0xC0
   1988 FF                 7549 	.db #0xFF
   1989 FF                 7550 	.db #0xFF
   198A FF                 7551 	.db #0xFF
   198B FF                 7552 	.db #0xFF
   198C FF                 7553 	.db #0xFF
   198D 00                 7554 	.db #0x00
   198E FF                 7555 	.db #0xFF
   198F 00                 7556 	.db #0x00
   1990 FF                 7557 	.db #0xFF
   1991 00                 7558 	.db #0x00
   1992 FF                 7559 	.db #0xFF
   1993 00                 7560 	.db #0x00
   1994 FF                 7561 	.db #0xFF
   1995 00                 7562 	.db #0x00
   1996 FF                 7563 	.db #0xFF
   1997 00                 7564 	.db #0x00
   1998 FF                 7565 	.db #0xFF
   1999 FF                 7566 	.db #0xFF
   199A FF                 7567 	.db #0xFF
   199B FF                 7568 	.db #0xFF
   199C FF                 7569 	.db #0xFF
   199D 03                 7570 	.db #0x03
   199E FF                 7571 	.db #0xFF
   199F 03                 7572 	.db #0x03
   19A0 FF                 7573 	.db #0xFF
   19A1 03                 7574 	.db #0x03
   19A2 FF                 7575 	.db #0xFF
   19A3 03                 7576 	.db #0x03
   19A4 FF                 7577 	.db #0xFF
   19A5 03                 7578 	.db #0x03
   19A6 FF                 7579 	.db #0xFF
   19A7 03                 7580 	.db #0x03
   19A8 FF                 7581 	.db #0xFF
   19A9 FF                 7582 	.db #0xFF
   19AA FF                 7583 	.db #0xFF
   19AB FF                 7584 	.db #0xFF
   19AC FF                 7585 	.db #0xFF
   19AD                    7586 _Select_Screen_map:
   19AD 00                 7587 	.db #0x00
   19AE 01                 7588 	.db #0x01
   19AF 01                 7589 	.db #0x01
   19B0 01                 7590 	.db #0x01
   19B1 01                 7591 	.db #0x01
   19B2 01                 7592 	.db #0x01
   19B3 01                 7593 	.db #0x01
   19B4 01                 7594 	.db #0x01
   19B5 01                 7595 	.db #0x01
   19B6 01                 7596 	.db #0x01
   19B7 01                 7597 	.db #0x01
   19B8 01                 7598 	.db #0x01
   19B9 01                 7599 	.db #0x01
   19BA 01                 7600 	.db #0x01
   19BB 01                 7601 	.db #0x01
   19BC 01                 7602 	.db #0x01
   19BD 01                 7603 	.db #0x01
   19BE 01                 7604 	.db #0x01
   19BF 01                 7605 	.db #0x01
   19C0 02                 7606 	.db #0x02
   19C1 03                 7607 	.db #0x03
   19C2 04                 7608 	.db #0x04
   19C3 04                 7609 	.db #0x04
   19C4 04                 7610 	.db #0x04
   19C5 04                 7611 	.db #0x04
   19C6 04                 7612 	.db #0x04
   19C7 04                 7613 	.db #0x04
   19C8 04                 7614 	.db #0x04
   19C9 04                 7615 	.db #0x04
   19CA 04                 7616 	.db #0x04
   19CB 04                 7617 	.db #0x04
   19CC 04                 7618 	.db #0x04
   19CD 05                 7619 	.db #0x05
   19CE 04                 7620 	.db #0x04
   19CF 04                 7621 	.db #0x04
   19D0 04                 7622 	.db #0x04
   19D1 04                 7623 	.db #0x04
   19D2 04                 7624 	.db #0x04
   19D3 04                 7625 	.db #0x04
   19D4 06                 7626 	.db #0x06
   19D5 07                 7627 	.db #0x07
   19D6 08                 7628 	.db #0x08
   19D7 08                 7629 	.db #0x08
   19D8 08                 7630 	.db #0x08
   19D9 08                 7631 	.db #0x08
   19DA 08                 7632 	.db #0x08
   19DB 08                 7633 	.db #0x08
   19DC 08                 7634 	.db #0x08
   19DD 08                 7635 	.db #0x08
   19DE 08                 7636 	.db #0x08
   19DF 08                 7637 	.db #0x08
   19E0 08                 7638 	.db #0x08
   19E1 09                 7639 	.db #0x09
   19E2 08                 7640 	.db #0x08
   19E3 08                 7641 	.db #0x08
   19E4 08                 7642 	.db #0x08
   19E5 08                 7643 	.db #0x08
   19E6 08                 7644 	.db #0x08
   19E7 08                 7645 	.db #0x08
   19E8 0A                 7646 	.db #0x0A
   19E9 07                 7647 	.db #0x07
   19EA 08                 7648 	.db #0x08
   19EB 08                 7649 	.db #0x08
   19EC 08                 7650 	.db #0x08
   19ED 08                 7651 	.db #0x08
   19EE 08                 7652 	.db #0x08
   19EF 08                 7653 	.db #0x08
   19F0 08                 7654 	.db #0x08
   19F1 08                 7655 	.db #0x08
   19F2 08                 7656 	.db #0x08
   19F3 08                 7657 	.db #0x08
   19F4 08                 7658 	.db #0x08
   19F5 09                 7659 	.db #0x09
   19F6 08                 7660 	.db #0x08
   19F7 08                 7661 	.db #0x08
   19F8 08                 7662 	.db #0x08
   19F9 08                 7663 	.db #0x08
   19FA 08                 7664 	.db #0x08
   19FB 08                 7665 	.db #0x08
   19FC 0A                 7666 	.db #0x0A
   19FD 07                 7667 	.db #0x07
   19FE 08                 7668 	.db #0x08
   19FF 08                 7669 	.db #0x08
   1A00 08                 7670 	.db #0x08
   1A01 08                 7671 	.db #0x08
   1A02 08                 7672 	.db #0x08
   1A03 08                 7673 	.db #0x08
   1A04 08                 7674 	.db #0x08
   1A05 08                 7675 	.db #0x08
   1A06 08                 7676 	.db #0x08
   1A07 08                 7677 	.db #0x08
   1A08 08                 7678 	.db #0x08
   1A09 09                 7679 	.db #0x09
   1A0A 08                 7680 	.db #0x08
   1A0B 08                 7681 	.db #0x08
   1A0C 08                 7682 	.db #0x08
   1A0D 08                 7683 	.db #0x08
   1A0E 08                 7684 	.db #0x08
   1A0F 08                 7685 	.db #0x08
   1A10 0A                 7686 	.db #0x0A
   1A11 07                 7687 	.db #0x07
   1A12 08                 7688 	.db #0x08
   1A13 08                 7689 	.db #0x08
   1A14 08                 7690 	.db #0x08
   1A15 08                 7691 	.db #0x08
   1A16 08                 7692 	.db #0x08
   1A17 08                 7693 	.db #0x08
   1A18 08                 7694 	.db #0x08
   1A19 08                 7695 	.db #0x08
   1A1A 08                 7696 	.db #0x08
   1A1B 08                 7697 	.db #0x08
   1A1C 08                 7698 	.db #0x08
   1A1D 09                 7699 	.db #0x09
   1A1E 08                 7700 	.db #0x08
   1A1F 08                 7701 	.db #0x08
   1A20 08                 7702 	.db #0x08
   1A21 08                 7703 	.db #0x08
   1A22 08                 7704 	.db #0x08
   1A23 08                 7705 	.db #0x08
   1A24 0A                 7706 	.db #0x0A
   1A25 07                 7707 	.db #0x07
   1A26 08                 7708 	.db #0x08
   1A27 08                 7709 	.db #0x08
   1A28 08                 7710 	.db #0x08
   1A29 08                 7711 	.db #0x08
   1A2A 08                 7712 	.db #0x08
   1A2B 08                 7713 	.db #0x08
   1A2C 08                 7714 	.db #0x08
   1A2D 08                 7715 	.db #0x08
   1A2E 08                 7716 	.db #0x08
   1A2F 08                 7717 	.db #0x08
   1A30 08                 7718 	.db #0x08
   1A31 09                 7719 	.db #0x09
   1A32 08                 7720 	.db #0x08
   1A33 08                 7721 	.db #0x08
   1A34 08                 7722 	.db #0x08
   1A35 08                 7723 	.db #0x08
   1A36 08                 7724 	.db #0x08
   1A37 08                 7725 	.db #0x08
   1A38 0A                 7726 	.db #0x0A
   1A39 07                 7727 	.db #0x07
   1A3A 08                 7728 	.db #0x08
   1A3B 08                 7729 	.db #0x08
   1A3C 08                 7730 	.db #0x08
   1A3D 08                 7731 	.db #0x08
   1A3E 08                 7732 	.db #0x08
   1A3F 08                 7733 	.db #0x08
   1A40 08                 7734 	.db #0x08
   1A41 08                 7735 	.db #0x08
   1A42 08                 7736 	.db #0x08
   1A43 08                 7737 	.db #0x08
   1A44 08                 7738 	.db #0x08
   1A45 09                 7739 	.db #0x09
   1A46 08                 7740 	.db #0x08
   1A47 08                 7741 	.db #0x08
   1A48 08                 7742 	.db #0x08
   1A49 08                 7743 	.db #0x08
   1A4A 08                 7744 	.db #0x08
   1A4B 08                 7745 	.db #0x08
   1A4C 0A                 7746 	.db #0x0A
   1A4D 07                 7747 	.db #0x07
   1A4E 08                 7748 	.db #0x08
   1A4F 08                 7749 	.db #0x08
   1A50 08                 7750 	.db #0x08
   1A51 08                 7751 	.db #0x08
   1A52 08                 7752 	.db #0x08
   1A53 08                 7753 	.db #0x08
   1A54 08                 7754 	.db #0x08
   1A55 08                 7755 	.db #0x08
   1A56 08                 7756 	.db #0x08
   1A57 08                 7757 	.db #0x08
   1A58 08                 7758 	.db #0x08
   1A59 09                 7759 	.db #0x09
   1A5A 08                 7760 	.db #0x08
   1A5B 08                 7761 	.db #0x08
   1A5C 08                 7762 	.db #0x08
   1A5D 08                 7763 	.db #0x08
   1A5E 08                 7764 	.db #0x08
   1A5F 08                 7765 	.db #0x08
   1A60 0A                 7766 	.db #0x0A
   1A61 07                 7767 	.db #0x07
   1A62 08                 7768 	.db #0x08
   1A63 08                 7769 	.db #0x08
   1A64 08                 7770 	.db #0x08
   1A65 08                 7771 	.db #0x08
   1A66 08                 7772 	.db #0x08
   1A67 08                 7773 	.db #0x08
   1A68 08                 7774 	.db #0x08
   1A69 08                 7775 	.db #0x08
   1A6A 08                 7776 	.db #0x08
   1A6B 08                 7777 	.db #0x08
   1A6C 08                 7778 	.db #0x08
   1A6D 09                 7779 	.db #0x09
   1A6E 08                 7780 	.db #0x08
   1A6F 08                 7781 	.db #0x08
   1A70 08                 7782 	.db #0x08
   1A71 08                 7783 	.db #0x08
   1A72 08                 7784 	.db #0x08
   1A73 08                 7785 	.db #0x08
   1A74 0A                 7786 	.db #0x0A
   1A75 07                 7787 	.db #0x07
   1A76 08                 7788 	.db #0x08
   1A77 08                 7789 	.db #0x08
   1A78 08                 7790 	.db #0x08
   1A79 08                 7791 	.db #0x08
   1A7A 08                 7792 	.db #0x08
   1A7B 08                 7793 	.db #0x08
   1A7C 08                 7794 	.db #0x08
   1A7D 08                 7795 	.db #0x08
   1A7E 08                 7796 	.db #0x08
   1A7F 08                 7797 	.db #0x08
   1A80 08                 7798 	.db #0x08
   1A81 09                 7799 	.db #0x09
   1A82 08                 7800 	.db #0x08
   1A83 08                 7801 	.db #0x08
   1A84 08                 7802 	.db #0x08
   1A85 08                 7803 	.db #0x08
   1A86 08                 7804 	.db #0x08
   1A87 08                 7805 	.db #0x08
   1A88 0A                 7806 	.db #0x0A
   1A89 07                 7807 	.db #0x07
   1A8A 08                 7808 	.db #0x08
   1A8B 08                 7809 	.db #0x08
   1A8C 08                 7810 	.db #0x08
   1A8D 08                 7811 	.db #0x08
   1A8E 08                 7812 	.db #0x08
   1A8F 08                 7813 	.db #0x08
   1A90 08                 7814 	.db #0x08
   1A91 08                 7815 	.db #0x08
   1A92 08                 7816 	.db #0x08
   1A93 08                 7817 	.db #0x08
   1A94 08                 7818 	.db #0x08
   1A95 09                 7819 	.db #0x09
   1A96 08                 7820 	.db #0x08
   1A97 08                 7821 	.db #0x08
   1A98 08                 7822 	.db #0x08
   1A99 08                 7823 	.db #0x08
   1A9A 08                 7824 	.db #0x08
   1A9B 08                 7825 	.db #0x08
   1A9C 0A                 7826 	.db #0x0A
   1A9D 07                 7827 	.db #0x07
   1A9E 08                 7828 	.db #0x08
   1A9F 08                 7829 	.db #0x08
   1AA0 08                 7830 	.db #0x08
   1AA1 08                 7831 	.db #0x08
   1AA2 08                 7832 	.db #0x08
   1AA3 08                 7833 	.db #0x08
   1AA4 08                 7834 	.db #0x08
   1AA5 08                 7835 	.db #0x08
   1AA6 08                 7836 	.db #0x08
   1AA7 08                 7837 	.db #0x08
   1AA8 08                 7838 	.db #0x08
   1AA9 09                 7839 	.db #0x09
   1AAA 08                 7840 	.db #0x08
   1AAB 08                 7841 	.db #0x08
   1AAC 08                 7842 	.db #0x08
   1AAD 08                 7843 	.db #0x08
   1AAE 08                 7844 	.db #0x08
   1AAF 08                 7845 	.db #0x08
   1AB0 0A                 7846 	.db #0x0A
   1AB1 07                 7847 	.db #0x07
   1AB2 08                 7848 	.db #0x08
   1AB3 08                 7849 	.db #0x08
   1AB4 08                 7850 	.db #0x08
   1AB5 08                 7851 	.db #0x08
   1AB6 08                 7852 	.db #0x08
   1AB7 08                 7853 	.db #0x08
   1AB8 08                 7854 	.db #0x08
   1AB9 08                 7855 	.db #0x08
   1ABA 08                 7856 	.db #0x08
   1ABB 08                 7857 	.db #0x08
   1ABC 08                 7858 	.db #0x08
   1ABD 09                 7859 	.db #0x09
   1ABE 08                 7860 	.db #0x08
   1ABF 08                 7861 	.db #0x08
   1AC0 08                 7862 	.db #0x08
   1AC1 08                 7863 	.db #0x08
   1AC2 08                 7864 	.db #0x08
   1AC3 08                 7865 	.db #0x08
   1AC4 0A                 7866 	.db #0x0A
   1AC5 07                 7867 	.db #0x07
   1AC6 08                 7868 	.db #0x08
   1AC7 08                 7869 	.db #0x08
   1AC8 08                 7870 	.db #0x08
   1AC9 08                 7871 	.db #0x08
   1ACA 08                 7872 	.db #0x08
   1ACB 08                 7873 	.db #0x08
   1ACC 08                 7874 	.db #0x08
   1ACD 08                 7875 	.db #0x08
   1ACE 08                 7876 	.db #0x08
   1ACF 08                 7877 	.db #0x08
   1AD0 08                 7878 	.db #0x08
   1AD1 09                 7879 	.db #0x09
   1AD2 08                 7880 	.db #0x08
   1AD3 08                 7881 	.db #0x08
   1AD4 08                 7882 	.db #0x08
   1AD5 08                 7883 	.db #0x08
   1AD6 08                 7884 	.db #0x08
   1AD7 08                 7885 	.db #0x08
   1AD8 0A                 7886 	.db #0x0A
   1AD9 07                 7887 	.db #0x07
   1ADA 08                 7888 	.db #0x08
   1ADB 08                 7889 	.db #0x08
   1ADC 08                 7890 	.db #0x08
   1ADD 08                 7891 	.db #0x08
   1ADE 08                 7892 	.db #0x08
   1ADF 08                 7893 	.db #0x08
   1AE0 08                 7894 	.db #0x08
   1AE1 08                 7895 	.db #0x08
   1AE2 08                 7896 	.db #0x08
   1AE3 08                 7897 	.db #0x08
   1AE4 08                 7898 	.db #0x08
   1AE5 09                 7899 	.db #0x09
   1AE6 08                 7900 	.db #0x08
   1AE7 08                 7901 	.db #0x08
   1AE8 08                 7902 	.db #0x08
   1AE9 08                 7903 	.db #0x08
   1AEA 08                 7904 	.db #0x08
   1AEB 08                 7905 	.db #0x08
   1AEC 0A                 7906 	.db #0x0A
   1AED 03                 7907 	.db #0x03
   1AEE 04                 7908 	.db #0x04
   1AEF 04                 7909 	.db #0x04
   1AF0 04                 7910 	.db #0x04
   1AF1 04                 7911 	.db #0x04
   1AF2 04                 7912 	.db #0x04
   1AF3 04                 7913 	.db #0x04
   1AF4 04                 7914 	.db #0x04
   1AF5 04                 7915 	.db #0x04
   1AF6 04                 7916 	.db #0x04
   1AF7 04                 7917 	.db #0x04
   1AF8 04                 7918 	.db #0x04
   1AF9 0B                 7919 	.db #0x0B
   1AFA 04                 7920 	.db #0x04
   1AFB 04                 7921 	.db #0x04
   1AFC 04                 7922 	.db #0x04
   1AFD 04                 7923 	.db #0x04
   1AFE 04                 7924 	.db #0x04
   1AFF 04                 7925 	.db #0x04
   1B00 06                 7926 	.db #0x06
   1B01 0C                 7927 	.db #0x0C
   1B02 0D                 7928 	.db #0x0D
   1B03 0D                 7929 	.db #0x0D
   1B04 0D                 7930 	.db #0x0D
   1B05 0D                 7931 	.db #0x0D
   1B06 0D                 7932 	.db #0x0D
   1B07 0D                 7933 	.db #0x0D
   1B08 0D                 7934 	.db #0x0D
   1B09 0D                 7935 	.db #0x0D
   1B0A 0D                 7936 	.db #0x0D
   1B0B 0D                 7937 	.db #0x0D
   1B0C 0D                 7938 	.db #0x0D
   1B0D 0D                 7939 	.db #0x0D
   1B0E 0D                 7940 	.db #0x0D
   1B0F 0D                 7941 	.db #0x0D
   1B10 0D                 7942 	.db #0x0D
   1B11 0D                 7943 	.db #0x0D
   1B12 0D                 7944 	.db #0x0D
   1B13 0D                 7945 	.db #0x0D
   1B14 0E                 7946 	.db #0x0E
   1B15                    7947 _startCursor:
   1B15 28                 7948 	.db #0x28
                           7949 ;	Navigation/../MonsterSelect/monsterSelect.c 22
                           7950 ; genLabel
                           7951 ; genFunction
                           7952 ;	---------------------------------
                           7953 ; Function is_empty
                           7954 ; ---------------------------------
   1B16                    7955 ___is_empty_start:
   1B16                    7956 _is_empty:
   1B16 C5                 7957 	push	bc
   1B17 E8 FE              7958 	lda	sp,-2(sp)
                           7959 ;	Navigation/../MonsterSelect/monsterSelect.c 23
                           7960 ; genAssign
                           7961 ; AOP_STK for 
   1B19 F8 06              7962 	lda	hl,6(sp)
   1B1B 4E                 7963 	ld	c,(hl)
   1B1C 23                 7964 	inc	hl
   1B1D 46                 7965 	ld	b,(hl)
                           7966 ; genPlus
                           7967 ; genPlusIncr
                           7968 ;	genPlusIncr failed
   1B1E 79                 7969 	ld	a,c
   1B1F C6 0C              7970 	add	a,#0x0C
   1B21 5F                 7971 	ld	e,a
   1B22 78                 7972 	ld	a,b
   1B23 CE 00              7973 	adc	a,#0x00
   1B25 57                 7974 	ld	d,a
                           7975 ; genPointerGet
                           7976 ; Removed redundent load
                           7977 ; Removed redundent load
   1B26 1A                 7978 	ld	a,(de)
   1B27 4F                 7979 	ld	c,a
   1B28 13                 7980 	inc	de
   1B29 1A                 7981 	ld	a,(de)
   1B2A 47                 7982 	ld	b,a
                           7983 ; genCmpEq
   1B2B 79                 7984 	ld	a,c ; 2
   1B2C FE FF              7985 	cp	a,#0xFF
   1B2E C2 3B 1B           7986 	jp	nz,00103$
   1B31 78                 7987 	ld	a,b ; 2
   1B32 FE FF              7988 	cp	a,#0xFF
   1B34 C2 3B 1B           7989 	jp	nz,00103$
   1B37 3E 01              7990 	ld	a,#0x01
   1B39 18 01              7991 	jr	00104$
   1B3B                    7992 00103$:
   1B3B AF                 7993 	xor	a,a
   1B3C                    7994 00104$:
   1B3C 4F                 7995 	ld	c,a
                           7996 ; genCast
                           7997 ; AOP_STK for _is_empty_sloc0_1_0
   1B3D F8 00              7998 	lda	hl,0(sp)
   1B3F 71                 7999 	ld	(hl),c
   1B40 79                 8000 	ld	a,c
                           8001 ; genCast: sign extend untested.
   1B41 17                 8002 	rla	
   1B42 9F                 8003 	sbc	a,a
   1B43 23                 8004 	inc	hl
   1B44 77                 8005 	ld	(hl),a
                           8006 ; genRet
                           8007 ; AOP_STK for _is_empty_sloc0_1_0
   1B45 2B                 8008 	dec	hl
   1B46 5E                 8009 	ld	e,(hl)
   1B47 23                 8010 	inc	hl
   1B48 56                 8011 	ld	d,(hl)
                           8012 ; genLabel
   1B49                    8013 00101$:
                           8014 ; genEndFunction
   1B49 E8 02              8015 	lda	sp,2(sp)
   1B4B C1                 8016 	pop	bc
   1B4C C9                 8017 	ret
   1B4D                    8018 ___is_empty_end:
                           8019 ;	Navigation/../MonsterSelect/monsterSelect.c 27
                           8020 ; genLabel
                           8021 ; genFunction
                           8022 ;	---------------------------------
                           8023 ; Function is_full
                           8024 ; ---------------------------------
   1B4D                    8025 ___is_full_start:
   1B4D                    8026 _is_full:
   1B4D C5                 8027 	push	bc
   1B4E E8 FE              8028 	lda	sp,-2(sp)
                           8029 ;	Navigation/../MonsterSelect/monsterSelect.c 28
                           8030 ; genAssign
                           8031 ; AOP_STK for 
   1B50 F8 06              8032 	lda	hl,6(sp)
   1B52 4E                 8033 	ld	c,(hl)
   1B53 23                 8034 	inc	hl
   1B54 46                 8035 	ld	b,(hl)
                           8036 ; genPlus
                           8037 ; genPlusIncr
                           8038 ;	genPlusIncr failed
   1B55 79                 8039 	ld	a,c
   1B56 C6 0C              8040 	add	a,#0x0C
   1B58 5F                 8041 	ld	e,a
   1B59 78                 8042 	ld	a,b
   1B5A CE 00              8043 	adc	a,#0x00
   1B5C 57                 8044 	ld	d,a
                           8045 ; genPointerGet
                           8046 ; Removed redundent load
                           8047 ; Removed redundent load
   1B5D 1A                 8048 	ld	a,(de)
   1B5E 4F                 8049 	ld	c,a
   1B5F 13                 8050 	inc	de
   1B60 1A                 8051 	ld	a,(de)
   1B61 47                 8052 	ld	b,a
                           8053 ; genCmpEq
   1B62 79                 8054 	ld	a,c ; 2
   1B63 FE 05              8055 	cp	a,#0x05
   1B65 C2 71 1B           8056 	jp	nz,00103$
   1B68 78                 8057 	ld	a,b ; 2
                           8058 ; Rule 3
   1B69 B7                 8059 	or	a,a
   1B6A C2 71 1B           8060 	jp	nz,00103$
   1B6D 3E 01              8061 	ld	a,#0x01
   1B6F 18 01              8062 	jr	00104$
   1B71                    8063 00103$:
   1B71 AF                 8064 	xor	a,a
   1B72                    8065 00104$:
   1B72 4F                 8066 	ld	c,a
                           8067 ; genCast
                           8068 ; AOP_STK for _is_full_sloc0_1_0
   1B73 F8 00              8069 	lda	hl,0(sp)
   1B75 71                 8070 	ld	(hl),c
   1B76 79                 8071 	ld	a,c
                           8072 ; genCast: sign extend untested.
   1B77 17                 8073 	rla	
   1B78 9F                 8074 	sbc	a,a
   1B79 23                 8075 	inc	hl
   1B7A 77                 8076 	ld	(hl),a
                           8077 ; genRet
                           8078 ; AOP_STK for _is_full_sloc0_1_0
   1B7B 2B                 8079 	dec	hl
   1B7C 5E                 8080 	ld	e,(hl)
   1B7D 23                 8081 	inc	hl
   1B7E 56                 8082 	ld	d,(hl)
                           8083 ; genLabel
   1B7F                    8084 00101$:
                           8085 ; genEndFunction
   1B7F E8 02              8086 	lda	sp,2(sp)
   1B81 C1                 8087 	pop	bc
   1B82 C9                 8088 	ret
   1B83                    8089 ___is_full_end:
                           8090 ;	Navigation/../MonsterSelect/monsterSelect.c 32
                           8091 ; genLabel
                           8092 ; genFunction
                           8093 ;	---------------------------------
                           8094 ; Function push
                           8095 ; ---------------------------------
   1B83                    8096 ___push_start:
   1B83                    8097 _push:
   1B83 C5                 8098 	push	bc
   1B84 E8 FC              8099 	lda	sp,-4(sp)
                           8100 ;	Navigation/../MonsterSelect/monsterSelect.c 33
                           8101 ; genIpush
                           8102 ; AOP_STK for 
   1B86 F8 08              8103 	lda	hl,8(sp)
   1B88 2A                 8104 	ld	a,(hl+)
   1B89 66                 8105 	ld	h,(hl)
   1B8A 6F                 8106 	ld	l,a
   1B8B E5                 8107 	push	hl
                           8108 ; genCall
   1B8C CD 4D 1B           8109 	call	_is_full
   1B8F 42                 8110 	ld	b,d
   1B90 4B                 8111 	ld	c,e
   1B91 E8 02              8112 	lda	sp,2(sp)
                           8113 ; genIfx
                           8114 ; Rule 8
   1B93 79                 8115 	ld	a,c
   1B94 B0                 8116 	or	a,b
   1B95 CA A4 1B           8117 	jp	z,00102$
                           8118 ;	Navigation/../MonsterSelect/monsterSelect.c 34
                           8119 ; genIpush
   1B98 21 E6 1B           8120 	ld	hl,#__str_40 + 0
   1B9B E5                 8121 	push	hl
                           8122 ; genCall
   1B9C CD 00 00           8123 	call	_printf
   1B9F E8 02              8124 	lda	sp,2(sp)
                           8125 ;	Navigation/../MonsterSelect/monsterSelect.c 35
                           8126 ; genRet
   1BA1 C3 E2 1B           8127 	jp	00103$
                           8128 ; genLabel
   1BA4                    8129 00102$:
                           8130 ;	Navigation/../MonsterSelect/monsterSelect.c 37
                           8131 ; genAssign
                           8132 ; AOP_STK for 
                           8133 ; AOP_STK for _push_sloc1_1_0
   1BA4 F8 08              8134 	lda	hl,8(sp)
   1BA6 2A                 8135 	ld	a,(hl+)
   1BA7 5E                 8136 	ld	e,(hl)
   1BA8 F8 00              8137 	lda	hl,0(sp)
   1BAA 22                 8138 	ld	(hl+),a
   1BAB 73                 8139 	ld	(hl),e
                           8140 ; genPlus
                           8141 ; AOP_STK for _push_sloc1_1_0
                           8142 ; AOP_STK for _push_sloc0_1_0
                           8143 ; genPlusIncr
                           8144 ;	genPlusIncr failed
   1BAC 2B                 8145 	dec	hl
   1BAD 5E                 8146 	ld	e,(hl)
   1BAE 23                 8147 	inc	hl
   1BAF 56                 8148 	ld	d,(hl)
   1BB0 21 0C 00           8149 	ld	hl,#0x000C
   1BB3 19                 8150 	add	hl,de
   1BB4 7D                 8151 	ld	a,l
   1BB5 54                 8152 	ld	d,h
   1BB6 F8 02              8153 	lda	hl,2(sp)
   1BB8 22                 8154 	ld	(hl+),a
   1BB9 72                 8155 	ld	(hl),d
                           8156 ; genPointerGet
                           8157 ; AOP_STK for _push_sloc0_1_0
   1BBA 2B                 8158 	dec	hl
   1BBB 5E                 8159 	ld	e,(hl)
   1BBC 23                 8160 	inc	hl
   1BBD 56                 8161 	ld	d,(hl)
   1BBE 1A                 8162 	ld	a,(de)
   1BBF 4F                 8163 	ld	c,a
   1BC0 13                 8164 	inc	de
   1BC1 1A                 8165 	ld	a,(de)
   1BC2 47                 8166 	ld	b,a
                           8167 ; genPlus
                           8168 ; genPlusIncr
   1BC3 03                 8169 	inc	bc
                           8170 ; genAssign (pointer)
                           8171 ; AOP_STK for _push_sloc0_1_0
   1BC4 2B                 8172 	dec	hl
   1BC5 5E                 8173 	ld	e,(hl)
   1BC6 23                 8174 	inc	hl
   1BC7 56                 8175 	ld	d,(hl)
   1BC8 79                 8176 	ld	a,c
   1BC9 12                 8177 	ld	(de),a
   1BCA 13                 8178 	inc	de
   1BCB 78                 8179 	ld	a,b
   1BCC 12                 8180 	ld	(de),a
                           8181 ;	Navigation/../MonsterSelect/monsterSelect.c 38
                           8182 ; genLeftShift
   1BCD B7                 8183 	or	a,a
   1BCE CB 11              8184 	rl	c
   1BD0 CB 10              8185 	rl	b
                           8186 ; genPlus
                           8187 ; AOP_STK for _push_sloc1_1_0
                           8188 ;	genPlusIncr failed
   1BD2 F8 00              8189 	lda	hl,0(sp)
   1BD4 2A                 8190 	ld	a,(hl+)
   1BD5 66                 8191 	ld	h,(hl)
   1BD6 6F                 8192 	ld	l,a
   1BD7 09                 8193 	add	hl,bc
   1BD8 5D                 8194 	ld	e,l
   1BD9 54                 8195 	ld	d,h
                           8196 ; genAssign (pointer)
                           8197 ; AOP_STK for 
   1BDA F8 0A              8198 	lda	hl,10(sp)
   1BDC 7E                 8199 	ld	a,(hl)
   1BDD 12                 8200 	ld	(de),a
   1BDE 13                 8201 	inc	de
   1BDF 23                 8202 	inc	hl
   1BE0 7E                 8203 	ld	a,(hl)
   1BE1 12                 8204 	ld	(de),a
                           8205 ; genLabel
   1BE2                    8206 00103$:
                           8207 ; genEndFunction
   1BE2 E8 04              8208 	lda	sp,4(sp)
   1BE4 C1                 8209 	pop	bc
   1BE5 C9                 8210 	ret
   1BE6                    8211 ___push_end:
   1BE6                    8212 __str_40:
   1BE6 53 74 61 63 6B 20  8213 	.ascii "Stack is full"
        69 73 20 66 75 6C
        6C
   1BF3 0A                 8214 	.db 0x0A
   1BF4 00                 8215 	.db 0x00
                           8216 ;	Navigation/../MonsterSelect/monsterSelect.c 42
                           8217 ; genLabel
                           8218 ; genFunction
                           8219 ;	---------------------------------
                           8220 ; Function pop
                           8221 ; ---------------------------------
   1BF5                    8222 ___pop_start:
   1BF5                    8223 _pop:
   1BF5 C5                 8224 	push	bc
   1BF6 E8 F8              8225 	lda	sp,-8(sp)
                           8226 ;	Navigation/../MonsterSelect/monsterSelect.c 44
                           8227 ; genIpush
                           8228 ; AOP_STK for 
   1BF8 F8 0C              8229 	lda	hl,12(sp)
   1BFA 2A                 8230 	ld	a,(hl+)
   1BFB 66                 8231 	ld	h,(hl)
   1BFC 6F                 8232 	ld	l,a
   1BFD E5                 8233 	push	hl
                           8234 ; genCall
   1BFE CD 16 1B           8235 	call	_is_empty
   1C01 42                 8236 	ld	b,d
   1C02 4B                 8237 	ld	c,e
   1C03 E8 02              8238 	lda	sp,2(sp)
                           8239 ; genIfx
                           8240 ; Rule 8
   1C05 79                 8241 	ld	a,c
   1C06 B0                 8242 	or	a,b
   1C07 CA 10 1C           8243 	jp	z,00102$
                           8244 ;	Navigation/../MonsterSelect/monsterSelect.c 46
                           8245 ; genRet
   1C0A 11 FF FF           8246 	ld	de,#0xFFFFFFFF
   1C0D C3 77 1C           8247 	jp	00105$
                           8248 ; genLabel
   1C10                    8249 00102$:
                           8250 ;	Navigation/../MonsterSelect/monsterSelect.c 48
                           8251 ; genAssign
                           8252 ; AOP_STK for 
                           8253 ; AOP_STK for _pop_sloc1_1_0
   1C10 F8 0C              8254 	lda	hl,12(sp)
   1C12 2A                 8255 	ld	a,(hl+)
   1C13 5E                 8256 	ld	e,(hl)
   1C14 F8 02              8257 	lda	hl,2(sp)
   1C16 22                 8258 	ld	(hl+),a
   1C17 73                 8259 	ld	(hl),e
                           8260 ; genPlus
                           8261 ; AOP_STK for _pop_sloc1_1_0
                           8262 ; AOP_STK for _pop_sloc0_1_0
                           8263 ; genPlusIncr
                           8264 ;	genPlusIncr failed
   1C18 2B                 8265 	dec	hl
   1C19 5E                 8266 	ld	e,(hl)
   1C1A 23                 8267 	inc	hl
   1C1B 56                 8268 	ld	d,(hl)
   1C1C 21 0C 00           8269 	ld	hl,#0x000C
   1C1F 19                 8270 	add	hl,de
   1C20 7D                 8271 	ld	a,l
   1C21 54                 8272 	ld	d,h
   1C22 F8 04              8273 	lda	hl,4(sp)
   1C24 22                 8274 	ld	(hl+),a
   1C25 72                 8275 	ld	(hl),d
                           8276 ; genPointerGet
                           8277 ; AOP_STK for _pop_sloc0_1_0
   1C26 2B                 8278 	dec	hl
   1C27 5E                 8279 	ld	e,(hl)
   1C28 23                 8280 	inc	hl
   1C29 56                 8281 	ld	d,(hl)
   1C2A 1A                 8282 	ld	a,(de)
   1C2B 4F                 8283 	ld	c,a
   1C2C 13                 8284 	inc	de
   1C2D 1A                 8285 	ld	a,(de)
   1C2E 47                 8286 	ld	b,a
                           8287 ; genLeftShift
                           8288 ; AOP_STK for _pop_sloc2_1_0
   1C2F F8 00              8289 	lda	hl,0(sp)
   1C31 71                 8290 	ld	(hl),c
   1C32 23                 8291 	inc	hl
   1C33 70                 8292 	ld	(hl),b
   1C34 B7                 8293 	or	a,a
   1C35 2B                 8294 	dec	hl
   1C36 CB 16              8295 	rl	(hl)
   1C38 23                 8296 	inc	hl
   1C39 CB 16              8297 	rl	(hl)
                           8298 ; genPlus
                           8299 ; AOP_STK for _pop_sloc1_1_0
                           8300 ; AOP_STK for _pop_sloc2_1_0
                           8301 ;	genPlusIncr failed
   1C3B 23                 8302 	inc	hl
   1C3C 5E                 8303 	ld	e,(hl)
   1C3D 23                 8304 	inc	hl
   1C3E 56                 8305 	ld	d,(hl)
   1C3F F8 00              8306 	lda	hl,0(sp)
   1C41 2A                 8307 	ld	a,(hl+)
   1C42 66                 8308 	ld	h,(hl)
   1C43 6F                 8309 	ld	l,a
   1C44 19                 8310 	add	hl,de
   1C45 5D                 8311 	ld	e,l
   1C46 54                 8312 	ld	d,h
                           8313 ; genPointerGet
                           8314 ; AOP_STK for _pop_item_1_1
                           8315 ; Removed redundent load
                           8316 ; Removed redundent load
   1C47 1A                 8317 	ld	a,(de)
   1C48 F8 06              8318 	lda	hl,6(sp)
   1C4A 77                 8319 	ld	(hl),a
   1C4B 13                 8320 	inc	de
   1C4C 1A                 8321 	ld	a,(de)
   1C4D 23                 8322 	inc	hl
   1C4E 77                 8323 	ld	(hl),a
                           8324 ;	Navigation/../MonsterSelect/monsterSelect.c 49
                           8325 ; genMinus
   1C4F 0B                 8326 	dec	bc
                           8327 ; genAssign (pointer)
                           8328 ; AOP_STK for _pop_sloc0_1_0
   1C50 F8 04              8329 	lda	hl,4(sp)
   1C52 5E                 8330 	ld	e,(hl)
   1C53 23                 8331 	inc	hl
   1C54 56                 8332 	ld	d,(hl)
   1C55 79                 8333 	ld	a,c
   1C56 12                 8334 	ld	(de),a
   1C57 13                 8335 	inc	de
   1C58 78                 8336 	ld	a,b
   1C59 12                 8337 	ld	(de),a
                           8338 ;	Navigation/../MonsterSelect/monsterSelect.c 50
                           8339 ; genCmpLt
   1C5A 59                 8340 	ld	e,c
   1C5B 78                 8341 	ld	a,b
   1C5C EE 80              8342 	xor	a,#0x80
   1C5E 57                 8343 	ld	d,a
   1C5F 21 01 80           8344 	ld	hl,#0x8001
   1C62 19                 8345 	add	hl,de
   1C63 DA 72 1C           8346 	jp	c,00104$
                           8347 ;	Navigation/../MonsterSelect/monsterSelect.c 51
                           8348 ; genAssign (pointer)
                           8349 ; AOP_STK for _pop_sloc0_1_0
   1C66 F8 04              8350 	lda	hl,4(sp)
   1C68 5E                 8351 	ld	e,(hl)
   1C69 23                 8352 	inc	hl
   1C6A 56                 8353 	ld	d,(hl)
   1C6B 3E FF              8354 	ld	a,#0xFF
   1C6D 12                 8355 	ld	(de),a
   1C6E 13                 8356 	inc	de
   1C6F 3E FF              8357 	ld	a,#0xFF
   1C71 12                 8358 	ld	(de),a
                           8359 ; genLabel
   1C72                    8360 00104$:
                           8361 ;	Navigation/../MonsterSelect/monsterSelect.c 53
                           8362 ; genRet
                           8363 ; AOP_STK for _pop_item_1_1
   1C72 F8 06              8364 	lda	hl,6(sp)
   1C74 5E                 8365 	ld	e,(hl)
   1C75 23                 8366 	inc	hl
   1C76 56                 8367 	ld	d,(hl)
                           8368 ; genLabel
   1C77                    8369 00105$:
                           8370 ; genEndFunction
   1C77 E8 08              8371 	lda	sp,8(sp)
   1C79 C1                 8372 	pop	bc
   1C7A C9                 8373 	ret
   1C7B                    8374 ___pop_end:
                           8375 ;	Navigation/../MonsterSelect/monsterSelect.c 65
                           8376 ; genLabel
                           8377 ; genFunction
                           8378 ;	---------------------------------
                           8379 ; Function get_size
                           8380 ; ---------------------------------
   1C7B                    8381 ___get_size_start:
   1C7B                    8382 _get_size:
   1C7B C5                 8383 	push	bc
                           8384 	
                           8385 ;	Navigation/../MonsterSelect/monsterSelect.c 66
                           8386 ; genAssign
                           8387 ; AOP_STK for 
   1C7C F8 04              8388 	lda	hl,4(sp)
   1C7E 4E                 8389 	ld	c,(hl)
   1C7F 23                 8390 	inc	hl
   1C80 46                 8391 	ld	b,(hl)
                           8392 ; genPlus
                           8393 ; genPlusIncr
                           8394 ;	genPlusIncr failed
   1C81 79                 8395 	ld	a,c
   1C82 C6 0C              8396 	add	a,#0x0C
   1C84 5F                 8397 	ld	e,a
   1C85 78                 8398 	ld	a,b
   1C86 CE 00              8399 	adc	a,#0x00
   1C88 57                 8400 	ld	d,a
                           8401 ; genPointerGet
                           8402 ; Removed redundent load
                           8403 ; Removed redundent load
   1C89 1A                 8404 	ld	a,(de)
   1C8A 4F                 8405 	ld	c,a
   1C8B 13                 8406 	inc	de
   1C8C 1A                 8407 	ld	a,(de)
   1C8D 47                 8408 	ld	b,a
                           8409 ; genPlus
                           8410 ; genPlusIncr
   1C8E 03                 8411 	inc	bc
                           8412 ; genRet
   1C8F 59                 8413 	ld	e,c
   1C90 50                 8414 	ld	d,b
                           8415 ; genLabel
   1C91                    8416 00101$:
                           8417 ; genEndFunction
                           8418 	
   1C91 C1                 8419 	pop	bc
   1C92 C9                 8420 	ret
   1C93                    8421 ___get_size_end:
                           8422 ;	Navigation/../MonsterSelect/monsterSelect.c 72
                           8423 ; genLabel
                           8424 ; genFunction
                           8425 ;	---------------------------------
                           8426 ; Function printPaddedNumber
                           8427 ; ---------------------------------
   1C93                    8428 ___printPaddedNumber_start:
   1C93                    8429 _printPaddedNumber:
   1C93 C5                 8430 	push	bc
   1C94 E8 FC              8431 	lda	sp,-4(sp)
                           8432 ;	Navigation/../MonsterSelect/monsterSelect.c 76
                           8433 ; genAssign
                           8434 ; AOP_STK for 
   1C96 F8 08              8435 	lda	hl,8(sp)
   1C98 4E                 8436 	ld	c,(hl)
   1C99 23                 8437 	inc	hl
   1C9A 46                 8438 	ld	b,(hl)
                           8439 ;	Navigation/../MonsterSelect/monsterSelect.c 77
                           8440 ; genAssign
                           8441 ; AOP_STK for _printPaddedNumber_numDigits_1_1
   1C9B F8 02              8442 	lda	hl,2(sp)
   1C9D 36 00              8443 	ld	(hl),#0x00
   1C9F 23                 8444 	inc	hl
   1CA0 36 00              8445 	ld	(hl),#0x00
                           8446 ;	Navigation/../MonsterSelect/monsterSelect.c 78
                           8447 ; genLabel
   1CA2                    8448 00101$:
                           8449 ; genCmpEq
   1CA2 79                 8450 	ld	a,c
   1CA3 B0                 8451 	or	a,b
                           8452 ; Rule 5
   1CA4 CA BD 1C           8453 	jp	z,00103$
   1CA7                    8454 00117$:
                           8455 ;	Navigation/../MonsterSelect/monsterSelect.c 79
                           8456 ; genIpush
   1CA7 21 0A 00           8457 	ld	hl,#0x000A
   1CAA E5                 8458 	push	hl
                           8459 ; genIpush
   1CAB C5                 8460 	push	bc
                           8461 ; genCall
   1CAC CD 00 00           8462 	call	__divsint
   1CAF 42                 8463 	ld	b,d
   1CB0 4B                 8464 	ld	c,e
   1CB1 E8 04              8465 	lda	sp,4(sp)
                           8466 ;	Navigation/../MonsterSelect/monsterSelect.c 80
                           8467 ; genPlus
                           8468 ; AOP_STK for _printPaddedNumber_numDigits_1_1
                           8469 ; genPlusIncr
   1CB3 F8 02              8470 	lda	hl,2(sp)
   1CB5 34                 8471 	inc	(hl)
   1CB6 20 02              8472 	jr	nz,00118$
   1CB8 23                 8473 	inc	hl
   1CB9 34                 8474 	inc	(hl)
   1CBA                    8475 00118$:
                           8476 ; genGoto
   1CBA C3 A2 1C           8477 	jp	00101$
                           8478 ; genLabel
   1CBD                    8479 00103$:
                           8480 ;	Navigation/../MonsterSelect/monsterSelect.c 82
                           8481 ; genMinus
                           8482 ; AOP_STK for 
                           8483 ; AOP_STK for _printPaddedNumber_numDigits_1_1
                           8484 ; AOP_STK for _printPaddedNumber_numSpaces_1_1
   1CBD F8 0A              8485 	lda	hl,10(sp)
   1CBF 5E                 8486 	ld	e,(hl)
   1CC0 23                 8487 	inc	hl
   1CC1 56                 8488 	ld	d,(hl)
   1CC2 F8 02              8489 	lda	hl,2(sp)
   1CC4 2A                 8490 	ld	a,(hl+)
   1CC5 66                 8491 	ld	h,(hl)
   1CC6 6F                 8492 	ld	l,a
   1CC7 7B                 8493 	ld	a,e
   1CC8 95                 8494 	sub	a,l
   1CC9 5F                 8495 	ld	e,a
   1CCA 7A                 8496 	ld	a,d
   1CCB 9C                 8497 	sbc	a,h
   1CCC F8 01              8498 	lda	hl,1(sp)
   1CCE 77                 8499 	ld	(hl),a
   1CCF 2B                 8500 	dec	hl
   1CD0 73                 8501 	ld	(hl),e
                           8502 ;	Navigation/../MonsterSelect/monsterSelect.c 83
                           8503 ; genCmpGt
                           8504 ; AOP_STK for _printPaddedNumber_numSpaces_1_1
   1CD1 5E                 8505 	ld	e,(hl)
   1CD2 23                 8506 	inc	hl
   1CD3 7E                 8507 	ld	a,(hl)
   1CD4 EE 80              8508 	xor	a,#0x80
   1CD6 57                 8509 	ld	d,a
   1CD7 21 00 80           8510 	ld	hl,#0x8000
   1CDA 19                 8511 	add	hl,de
   1CDB D2 00 1D           8512 	jp	nc,00105$
                           8513 ;	Navigation/../MonsterSelect/monsterSelect.c 84
                           8514 ; genAssign
   1CDE 01 00 00           8515 	ld	bc,#0x0000
                           8516 ; genLabel
   1CE1                    8517 00106$:
                           8518 ; genCmpLt
                           8519 ; AOP_STK for _printPaddedNumber_numSpaces_1_1
   1CE1 78                 8520 	ld	a,b
   1CE2 EE 80              8521 	xor	a,#0x80
   1CE4 5F                 8522 	ld	e,a
   1CE5 F8 01              8523 	lda	hl,1(sp)
   1CE7 7E                 8524 	ld	a,(hl)
   1CE8 EE 80              8525 	xor	a,#0x80
   1CEA 57                 8526 	ld	d,a
   1CEB 79                 8527 	ld	a,c
   1CEC 2B                 8528 	dec	hl
   1CED 9E                 8529 	sbc	a,(hl) ; 2
   1CEE 7B                 8530 	ld	a,e
   1CEF 9A                 8531 	sbc	a,d
   1CF0 D2 00 1D           8532 	jp	nc,00105$
                           8533 ;	Navigation/../MonsterSelect/monsterSelect.c 85
                           8534 ; genIpush
   1CF3 21 13 1D           8535 	ld	hl,#__str_41 + 0
   1CF6 E5                 8536 	push	hl
                           8537 ; genCall
   1CF7 CD 00 00           8538 	call	_printf
   1CFA E8 02              8539 	lda	sp,2(sp)
                           8540 ;	Navigation/../MonsterSelect/monsterSelect.c 84
                           8541 ; genPlus
                           8542 ; genPlusIncr
   1CFC 03                 8543 	inc	bc
                           8544 ; genGoto
   1CFD C3 E1 1C           8545 	jp	00106$
                           8546 ; genLabel
   1D00                    8547 00105$:
                           8548 ;	Navigation/../MonsterSelect/monsterSelect.c 88
                           8549 ; genIpush
                           8550 ; AOP_STK for 
   1D00 F8 08              8551 	lda	hl,8(sp)
   1D02 2A                 8552 	ld	a,(hl+)
   1D03 66                 8553 	ld	h,(hl)
   1D04 6F                 8554 	ld	l,a
   1D05 E5                 8555 	push	hl
                           8556 ; genIpush
   1D06 21 15 1D           8557 	ld	hl,#__str_42 + 0
   1D09 E5                 8558 	push	hl
                           8559 ; genCall
   1D0A CD 00 00           8560 	call	_printf
   1D0D E8 04              8561 	lda	sp,4(sp)
                           8562 ; genLabel
   1D0F                    8563 00110$:
                           8564 ; genEndFunction
   1D0F E8 04              8565 	lda	sp,4(sp)
   1D11 C1                 8566 	pop	bc
   1D12 C9                 8567 	ret
   1D13                    8568 ___printPaddedNumber_end:
   1D13                    8569 __str_41:
   1D13 20                 8570 	.ascii " "
   1D14 00                 8571 	.db 0x00
   1D15                    8572 __str_42:
   1D15 25 64              8573 	.ascii "%d"
   1D17 00                 8574 	.db 0x00
                           8575 ;	Navigation/../MonsterSelect/monsterSelect.c 91
                           8576 ; genLabel
                           8577 ; genFunction
                           8578 ;	---------------------------------
                           8579 ; Function printPaddedString
                           8580 ; ---------------------------------
   1D18                    8581 ___printPaddedString_start:
   1D18                    8582 _printPaddedString:
   1D18 C5                 8583 	push	bc
   1D19 E8 FE              8584 	lda	sp,-2(sp)
                           8585 ;	Navigation/../MonsterSelect/monsterSelect.c 93
                           8586 ; genIpush
                           8587 ; AOP_STK for 
   1D1B F8 06              8588 	lda	hl,6(sp)
   1D1D 2A                 8589 	ld	a,(hl+)
   1D1E 66                 8590 	ld	h,(hl)
   1D1F 6F                 8591 	ld	l,a
   1D20 E5                 8592 	push	hl
                           8593 ; genCall
   1D21 CD 00 00           8594 	call	_strlen
   1D24 42                 8595 	ld	b,d
   1D25 4B                 8596 	ld	c,e
   1D26 E8 02              8597 	lda	sp,2(sp)
                           8598 ;	Navigation/../MonsterSelect/monsterSelect.c 94
                           8599 ; genMinus
                           8600 ; AOP_STK for 
                           8601 ; AOP_STK for _printPaddedString_numSpaces_1_1
   1D28 F8 08              8602 	lda	hl,8(sp)
   1D2A 5E                 8603 	ld	e,(hl)
   1D2B 23                 8604 	inc	hl
   1D2C 56                 8605 	ld	d,(hl)
                           8606 ; Removed redundent load
                           8607 ; Removed redundent load
   1D2D 7B                 8608 	ld	a,e
   1D2E 91                 8609 	sub	a,c
   1D2F 5F                 8610 	ld	e,a
   1D30 7A                 8611 	ld	a,d
   1D31 98                 8612 	sbc	a,b
   1D32 F8 01              8613 	lda	hl,1(sp)
   1D34 77                 8614 	ld	(hl),a
   1D35 2B                 8615 	dec	hl
   1D36 73                 8616 	ld	(hl),e
                           8617 ;	Navigation/../MonsterSelect/monsterSelect.c 95
                           8618 ; genIpush
                           8619 ; AOP_STK for 
   1D37 F8 06              8620 	lda	hl,6(sp)
   1D39 2A                 8621 	ld	a,(hl+)
   1D3A 66                 8622 	ld	h,(hl)
   1D3B 6F                 8623 	ld	l,a
   1D3C E5                 8624 	push	hl
                           8625 ; genIpush
   1D3D 21 7B 1D           8626 	ld	hl,#__str_43 + 0
   1D40 E5                 8627 	push	hl
                           8628 ; genCall
   1D41 CD 00 00           8629 	call	_printf
   1D44 E8 04              8630 	lda	sp,4(sp)
                           8631 ;	Navigation/../MonsterSelect/monsterSelect.c 96
                           8632 ; genCmpGt
                           8633 ; AOP_STK for _printPaddedString_numSpaces_1_1
   1D46 F8 00              8634 	lda	hl,0(sp)
   1D48 5E                 8635 	ld	e,(hl)
   1D49 23                 8636 	inc	hl
   1D4A 7E                 8637 	ld	a,(hl)
   1D4B EE 80              8638 	xor	a,#0x80
   1D4D 57                 8639 	ld	d,a
   1D4E 21 00 80           8640 	ld	hl,#0x8000
   1D51 19                 8641 	add	hl,de
   1D52 D2 77 1D           8642 	jp	nc,00107$
                           8643 ;	Navigation/../MonsterSelect/monsterSelect.c 97
                           8644 ; genAssign
   1D55 01 00 00           8645 	ld	bc,#0x0000
                           8646 ; genLabel
   1D58                    8647 00103$:
                           8648 ; genCmpLt
                           8649 ; AOP_STK for _printPaddedString_numSpaces_1_1
   1D58 78                 8650 	ld	a,b
   1D59 EE 80              8651 	xor	a,#0x80
   1D5B 5F                 8652 	ld	e,a
   1D5C F8 01              8653 	lda	hl,1(sp)
   1D5E 7E                 8654 	ld	a,(hl)
   1D5F EE 80              8655 	xor	a,#0x80
   1D61 57                 8656 	ld	d,a
   1D62 79                 8657 	ld	a,c
   1D63 2B                 8658 	dec	hl
   1D64 9E                 8659 	sbc	a,(hl) ; 2
   1D65 7B                 8660 	ld	a,e
   1D66 9A                 8661 	sbc	a,d
   1D67 D2 77 1D           8662 	jp	nc,00107$
                           8663 ;	Navigation/../MonsterSelect/monsterSelect.c 98
                           8664 ; genIpush
   1D6A 21 7E 1D           8665 	ld	hl,#__str_44 + 0
   1D6D E5                 8666 	push	hl
                           8667 ; genCall
   1D6E CD 00 00           8668 	call	_printf
   1D71 E8 02              8669 	lda	sp,2(sp)
                           8670 ;	Navigation/../MonsterSelect/monsterSelect.c 97
                           8671 ; genPlus
                           8672 ; genPlusIncr
   1D73 03                 8673 	inc	bc
                           8674 ; genGoto
   1D74 C3 58 1D           8675 	jp	00103$
                           8676 ; genLabel
   1D77                    8677 00107$:
                           8678 ; genEndFunction
   1D77 E8 02              8679 	lda	sp,2(sp)
   1D79 C1                 8680 	pop	bc
   1D7A C9                 8681 	ret
   1D7B                    8682 ___printPaddedString_end:
   1D7B                    8683 __str_43:
   1D7B 25 73              8684 	.ascii "%s"
   1D7D 00                 8685 	.db 0x00
   1D7E                    8686 __str_44:
   1D7E 20                 8687 	.ascii " "
   1D7F 00                 8688 	.db 0x00
                           8689 ;	Navigation/../MonsterSelect/monsterSelect.c 103
                           8690 ; genLabel
                           8691 ; genFunction
                           8692 ;	---------------------------------
                           8693 ; Function displayMonsterInfo
                           8694 ; ---------------------------------
   1D80                    8695 ___displayMonsterInfo_start:
   1D80                    8696 _displayMonsterInfo:
   1D80 C5                 8697 	push	bc
   1D81 E8 F2              8698 	lda	sp,-14(sp)
                           8699 ;	Navigation/../MonsterSelect/monsterSelect.c 109
                           8700 ; genAssign
                           8701 ; AOP_STK for _displayMonsterInfo_i_1_1
   1D83 F8 0C              8702 	lda	hl,12(sp)
   1D85 36 00              8703 	ld	(hl),#0x00
   1D87 23                 8704 	inc	hl
   1D88 36 00              8705 	ld	(hl),#0x00
                           8706 ; genAssign
                           8707 ; AOP_STK for 
                           8708 ; AOP_STK for _displayMonsterInfo_sloc3_1_0
   1D8A F8 12              8709 	lda	hl,18(sp)
   1D8C 2A                 8710 	ld	a,(hl+)
   1D8D 5E                 8711 	ld	e,(hl)
   1D8E F8 04              8712 	lda	hl,4(sp)
   1D90 22                 8713 	ld	(hl+),a
   1D91 73                 8714 	ld	(hl),e
                           8715 ; genPlus
                           8716 ; AOP_STK for _displayMonsterInfo_sloc3_1_0
                           8717 ; AOP_STK for _displayMonsterInfo_sloc0_1_0
                           8718 ; genPlusIncr
                           8719 ;	genPlusIncr failed
   1D92 2B                 8720 	dec	hl
   1D93 5E                 8721 	ld	e,(hl)
   1D94 23                 8722 	inc	hl
   1D95 56                 8723 	ld	d,(hl)
   1D96 21 15 00           8724 	ld	hl,#0x0015
   1D99 19                 8725 	add	hl,de
   1D9A 7D                 8726 	ld	a,l
   1D9B 54                 8727 	ld	d,h
   1D9C F8 0A              8728 	lda	hl,10(sp)
   1D9E 22                 8729 	ld	(hl+),a
   1D9F 72                 8730 	ld	(hl),d
                           8731 ; genPlus
                           8732 ; AOP_STK for _displayMonsterInfo_sloc3_1_0
                           8733 ; AOP_STK for _displayMonsterInfo_sloc1_1_0
                           8734 ; genPlusIncr
                           8735 ;	genPlusIncr failed
   1DA0 F8 04              8736 	lda	hl,4(sp)
   1DA2 5E                 8737 	ld	e,(hl)
   1DA3 23                 8738 	inc	hl
   1DA4 56                 8739 	ld	d,(hl)
   1DA5 21 17 00           8740 	ld	hl,#0x0017
   1DA8 19                 8741 	add	hl,de
   1DA9 7D                 8742 	ld	a,l
   1DAA 54                 8743 	ld	d,h
   1DAB F8 08              8744 	lda	hl,8(sp)
   1DAD 22                 8745 	ld	(hl+),a
   1DAE 72                 8746 	ld	(hl),d
                           8747 ; genPlus
                           8748 ; AOP_STK for _displayMonsterInfo_sloc3_1_0
                           8749 ; AOP_STK for _displayMonsterInfo_sloc2_1_0
                           8750 ; genPlusIncr
                           8751 ;	genPlusIncr failed
   1DAF F8 04              8752 	lda	hl,4(sp)
   1DB1 5E                 8753 	ld	e,(hl)
   1DB2 23                 8754 	inc	hl
   1DB3 56                 8755 	ld	d,(hl)
   1DB4 21 15 00           8756 	ld	hl,#0x0015
   1DB7 19                 8757 	add	hl,de
   1DB8 7D                 8758 	ld	a,l
   1DB9 54                 8759 	ld	d,h
   1DBA F8 06              8760 	lda	hl,6(sp)
   1DBC 22                 8761 	ld	(hl+),a
   1DBD 72                 8762 	ld	(hl),d
                           8763 ; genLabel
   1DBE                    8764 00105$:
                           8765 ; genCmpLt
                           8766 ; AOP_STK for _displayMonsterInfo_i_1_1
   1DBE F8 0C              8767 	lda	hl,12(sp)
   1DC0 5E                 8768 	ld	e,(hl)
   1DC1 23                 8769 	inc	hl
   1DC2 7E                 8770 	ld	a,(hl)
   1DC3 EE 80              8771 	xor	a,#0x80
   1DC5 57                 8772 	ld	d,a
   1DC6 21 FE 7F           8773 	ld	hl,#0x7FFE
   1DC9 19                 8774 	add	hl,de
   1DCA DA 9C 1E           8775 	jp	c,00108$
                           8776 ;	Navigation/../MonsterSelect/monsterSelect.c 110
                           8777 ; genPlus
                           8778 ; AOP_STK for _displayMonsterInfo_i_1_1
                           8779 ; genPlusIncr
                           8780 ;	genPlusIncr failed
   1DCD F8 0C              8781 	lda	hl,12(sp)
   1DCF 5E                 8782 	ld	e,(hl)
   1DD0 23                 8783 	inc	hl
   1DD1 56                 8784 	ld	d,(hl)
   1DD2 21 09 00           8785 	ld	hl,#0x0009
   1DD5 19                 8786 	add	hl,de
   1DD6 4D                 8787 	ld	c,l
   1DD7 44                 8788 	ld	b,h
                           8789 ; genCast
                           8790 ; Removed redundent load
                           8791 ; genIpush
   1DD8 79                 8792 	ld	a,c
   1DD9 F5                 8793 	push	af
   1DDA 33                 8794 	inc	sp
                           8795 ; genIpush
   1DDB 3E 0D              8796 	ld	a,#0x0D
   1DDD F5                 8797 	push	af
   1DDE 33                 8798 	inc	sp
                           8799 ; genCall
   1DDF CD 00 00           8800 	call	_gotoxy
   1DE2 E8 02              8801 	lda	sp,2(sp)
                           8802 ;	Navigation/../MonsterSelect/monsterSelect.c 111
                           8803 ; genCmpEq
                           8804 ; AOP_STK for _displayMonsterInfo_i_1_1
   1DE4 F8 0C              8805 	lda	hl,12(sp)
   1DE6 7E                 8806 	ld	a,(hl) ; 2
   1DE7 FE 01              8807 	cp	a,#0x01
   1DE9 C2 F4 1D           8808 	jp	nz,00115$
   1DEC 23                 8809 	inc	hl
   1DED 7E                 8810 	ld	a,(hl) ; 2
                           8811 ; Rule 3
   1DEE B7                 8812 	or	a,a
   1DEF C2 F4 1D           8813 	jp	nz,00115$
   1DF2 18 03              8814 	jr	00116$
   1DF4                    8815 00115$:
   1DF4 C3 34 1E           8816 	jp	00102$
   1DF7                    8817 00116$:
                           8818 ; genPointerGet
                           8819 ; AOP_STK for _displayMonsterInfo_sloc1_1_0
                           8820 ; AOP_STK for _displayMonsterInfo_sloc4_1_0
   1DF7 F8 08              8821 	lda	hl,8(sp)
   1DF9 5E                 8822 	ld	e,(hl)
   1DFA 23                 8823 	inc	hl
   1DFB 56                 8824 	ld	d,(hl)
   1DFC 1A                 8825 	ld	a,(de)
   1DFD F8 02              8826 	lda	hl,2(sp)
   1DFF 77                 8827 	ld	(hl),a
   1E00 13                 8828 	inc	de
   1E01 1A                 8829 	ld	a,(de)
   1E02 23                 8830 	inc	hl
   1E03 77                 8831 	ld	(hl),a
                           8832 ; genPointerGet
                           8833 ; AOP_STK for _displayMonsterInfo_sloc0_1_0
                           8834 ; AOP_STK for _displayMonsterInfo_sloc5_1_0
   1E04 F8 0A              8835 	lda	hl,10(sp)
   1E06 5E                 8836 	ld	e,(hl)
   1E07 23                 8837 	inc	hl
   1E08 56                 8838 	ld	d,(hl)
   1E09 1A                 8839 	ld	a,(de)
   1E0A F8 00              8840 	lda	hl,0(sp)
   1E0C 77                 8841 	ld	(hl),a
   1E0D 13                 8842 	inc	de
   1E0E 1A                 8843 	ld	a,(de)
   1E0F 23                 8844 	inc	hl
                           8845 ; genCmpEq
                           8846 ; AOP_STK for _displayMonsterInfo_sloc5_1_0
                           8847 ; AOP_STK for _displayMonsterInfo_sloc4_1_0
   1E10 22                 8848 	ld	(hl+),a
   1E11 7E                 8849 	ld	a,(hl)
   1E12 2B                 8850 	dec	hl
   1E13 2B                 8851 	dec	hl
   1E14 BE                 8852 	cp	(hl) ; 5
   1E15 20 0A              8853 	jr	nz,00117$
   1E17 F8 03              8854 	lda	hl,3(sp)
   1E19 7E                 8855 	ld	a,(hl)
   1E1A 2B                 8856 	dec	hl
   1E1B 2B                 8857 	dec	hl
   1E1C BE                 8858 	cp	(hl) ; 5
   1E1D 20 02              8859 	jr	nz,00117$
   1E1F 18 03              8860 	jr	00118$
   1E21                    8861 00117$:
   1E21 C3 34 1E           8862 	jp	00102$
   1E24                    8863 00118$:
                           8864 ;	Navigation/../MonsterSelect/monsterSelect.c 112
                           8865 ; genIpush
   1E24 21 06 00           8866 	ld	hl,#0x0006
   1E27 E5                 8867 	push	hl
                           8868 ; genIpush
   1E28 21 5C 1F           8869 	ld	hl,#__str_45 + 0
   1E2B E5                 8870 	push	hl
                           8871 ; genCall
   1E2C CD 18 1D           8872 	call	_printPaddedString
   1E2F E8 04              8873 	lda	sp,4(sp)
                           8874 ; genGoto
   1E31 C3 92 1E           8875 	jp	00107$
                           8876 ; genLabel
   1E34                    8877 00102$:
                           8878 ;	Navigation/../MonsterSelect/monsterSelect.c 114
                           8879 ; genLeftShift
                           8880 ; AOP_STK for _displayMonsterInfo_i_1_1
                           8881 ; AOP_STK for _displayMonsterInfo_sloc5_1_0
   1E34 F8 0C              8882 	lda	hl,12(sp)
   1E36 7E                 8883 	ld	a,(hl)
   1E37 F8 00              8884 	lda	hl,0(sp)
   1E39 77                 8885 	ld	(hl),a
   1E3A F8 0D              8886 	lda	hl,13(sp)
   1E3C 7E                 8887 	ld	a,(hl)
   1E3D F8 01              8888 	lda	hl,1(sp)
   1E3F 77                 8889 	ld	(hl),a
   1E40 B7                 8890 	or	a,a
   1E41 2B                 8891 	dec	hl
   1E42 CB 16              8892 	rl	(hl)
   1E44 23                 8893 	inc	hl
   1E45 CB 16              8894 	rl	(hl)
                           8895 ; genPlus
                           8896 ; AOP_STK for _displayMonsterInfo_sloc2_1_0
                           8897 ; AOP_STK for _displayMonsterInfo_sloc5_1_0
                           8898 ;	genPlusIncr failed
   1E47 F8 06              8899 	lda	hl,6(sp)
   1E49 5E                 8900 	ld	e,(hl)
   1E4A 23                 8901 	inc	hl
   1E4B 56                 8902 	ld	d,(hl)
   1E4C F8 00              8903 	lda	hl,0(sp)
   1E4E 2A                 8904 	ld	a,(hl+)
   1E4F 66                 8905 	ld	h,(hl)
   1E50 6F                 8906 	ld	l,a
   1E51 19                 8907 	add	hl,de
   1E52 5D                 8908 	ld	e,l
   1E53 54                 8909 	ld	d,h
                           8910 ; genPointerGet
                           8911 ; AOP_STK for _displayMonsterInfo_sloc5_1_0
                           8912 ; Removed redundent load
                           8913 ; Removed redundent load
   1E54 1A                 8914 	ld	a,(de)
   1E55 F8 00              8915 	lda	hl,0(sp)
   1E57 77                 8916 	ld	(hl),a
   1E58 13                 8917 	inc	de
   1E59 1A                 8918 	ld	a,(de)
   1E5A 23                 8919 	inc	hl
   1E5B 77                 8920 	ld	(hl),a
                           8921 ; genIpush
   1E5C 21 23 00           8922 	ld	hl,#0x0023
   1E5F E5                 8923 	push	hl
                           8924 ; genIpush
                           8925 ; AOP_STK for _displayMonsterInfo_sloc5_1_0
   1E60 F8 02              8926 	lda	hl,2(sp)
   1E62 2A                 8927 	ld	a,(hl+)
   1E63 66                 8928 	ld	h,(hl)
   1E64 6F                 8929 	ld	l,a
   1E65 E5                 8930 	push	hl
                           8931 ; genCall
   1E66 CD 00 00           8932 	call	__mulsint
                           8933 ; AOP_STK for _displayMonsterInfo_sloc5_1_0
   1E69 F8 05              8934 	lda	hl,5(sp)
   1E6B 72                 8935 	ld	(hl),d
   1E6C 2B                 8936 	dec	hl
   1E6D 73                 8937 	ld	(hl),e
   1E6E E8 04              8938 	lda	sp,4(sp)
                           8939 ; genPlus
                           8940 ; AOP_STK for _displayMonsterInfo_sloc5_1_0
                           8941 ;	genPlusIncr failed
   1E70 11 BA 12           8942 	ld	de,#_ElementalTypes + 0
   1E73 2A                 8943 	ld	a,(hl+)
   1E74 66                 8944 	ld	h,(hl)
   1E75 6F                 8945 	ld	l,a
   1E76 19                 8946 	add	hl,de
   1E77 7D                 8947 	ld	a,l
   1E78 54                 8948 	ld	d,h
   1E79 F8 00              8949 	lda	hl,0(sp)
   1E7B 22                 8950 	ld	(hl+),a
   1E7C 72                 8951 	ld	(hl),d
                           8952 ; genPlus
                           8953 ; AOP_STK for _displayMonsterInfo_sloc5_1_0
                           8954 ; genPlusIncr
   1E7D 2B                 8955 	dec	hl
   1E7E 34                 8956 	inc	(hl)
   1E7F 20 02              8957 	jr	nz,00121$
   1E81 23                 8958 	inc	hl
   1E82 34                 8959 	inc	(hl)
   1E83                    8960 00121$:
                           8961 ; genCast
                           8962 ; AOP_STK for _displayMonsterInfo_sloc5_1_0
                           8963 ; genIpush
   1E83 21 06 00           8964 	ld	hl,#0x0006
   1E86 E5                 8965 	push	hl
                           8966 ; genIpush
                           8967 ; AOP_STK for _displayMonsterInfo_sloc5_1_0
   1E87 F8 02              8968 	lda	hl,2(sp)
   1E89 2A                 8969 	ld	a,(hl+)
   1E8A 66                 8970 	ld	h,(hl)
   1E8B 6F                 8971 	ld	l,a
   1E8C E5                 8972 	push	hl
                           8973 ; genCall
   1E8D CD 18 1D           8974 	call	_printPaddedString
   1E90 E8 04              8975 	lda	sp,4(sp)
                           8976 ; genLabel
   1E92                    8977 00107$:
                           8978 ;	Navigation/../MonsterSelect/monsterSelect.c 109
                           8979 ; genPlus
                           8980 ; AOP_STK for _displayMonsterInfo_i_1_1
                           8981 ; genPlusIncr
   1E92 F8 0C              8982 	lda	hl,12(sp)
   1E94 34                 8983 	inc	(hl)
   1E95 20 02              8984 	jr	nz,00122$
   1E97 23                 8985 	inc	hl
   1E98 34                 8986 	inc	(hl)
   1E99                    8987 00122$:
                           8988 ; genGoto
   1E99 C3 BE 1D           8989 	jp	00105$
                           8990 ; genLabel
   1E9C                    8991 00108$:
                           8992 ;	Navigation/../MonsterSelect/monsterSelect.c 118
                           8993 ; genIpush
   1E9C 3E 0C              8994 	ld	a,#0x0C
   1E9E F5                 8995 	push	af
   1E9F 33                 8996 	inc	sp
                           8997 ; genIpush
   1EA0 3E 10              8998 	ld	a,#0x10
   1EA2 F5                 8999 	push	af
   1EA3 33                 9000 	inc	sp
                           9001 ; genCall
   1EA4 CD 00 00           9002 	call	_gotoxy
   1EA7 E8 02              9003 	lda	sp,2(sp)
                           9004 ;	Navigation/../MonsterSelect/monsterSelect.c 119
                           9005 ; genPlus
                           9006 ; AOP_STK for _displayMonsterInfo_sloc3_1_0
                           9007 ; genPlusIncr
                           9008 ;	genPlusIncr failed
   1EA9 F8 04              9009 	lda	hl,4(sp)
   1EAB 5E                 9010 	ld	e,(hl)
   1EAC 23                 9011 	inc	hl
   1EAD 56                 9012 	ld	d,(hl)
   1EAE 21 1D 00           9013 	ld	hl,#0x001D
   1EB1 19                 9014 	add	hl,de
   1EB2 5D                 9015 	ld	e,l
   1EB3 54                 9016 	ld	d,h
                           9017 ; genPointerGet
                           9018 ; AOP_STK for _displayMonsterInfo_sloc5_1_0
                           9019 ; Removed redundent load
                           9020 ; Removed redundent load
   1EB4 1A                 9021 	ld	a,(de)
   1EB5 F8 00              9022 	lda	hl,0(sp)
   1EB7 77                 9023 	ld	(hl),a
   1EB8 13                 9024 	inc	de
   1EB9 1A                 9025 	ld	a,(de)
   1EBA 23                 9026 	inc	hl
   1EBB 77                 9027 	ld	(hl),a
                           9028 ; genIpush
   1EBC 21 03 00           9029 	ld	hl,#0x0003
   1EBF E5                 9030 	push	hl
                           9031 ; genIpush
                           9032 ; AOP_STK for _displayMonsterInfo_sloc5_1_0
   1EC0 F8 02              9033 	lda	hl,2(sp)
   1EC2 2A                 9034 	ld	a,(hl+)
   1EC3 66                 9035 	ld	h,(hl)
   1EC4 6F                 9036 	ld	l,a
   1EC5 E5                 9037 	push	hl
                           9038 ; genCall
   1EC6 CD 93 1C           9039 	call	_printPaddedNumber
   1EC9 E8 04              9040 	lda	sp,4(sp)
                           9041 ;	Navigation/../MonsterSelect/monsterSelect.c 120
                           9042 ; genIpush
   1ECB 3E 0D              9043 	ld	a,#0x0D
   1ECD F5                 9044 	push	af
   1ECE 33                 9045 	inc	sp
                           9046 ; genIpush
   1ECF 3E 10              9047 	ld	a,#0x10
   1ED1 F5                 9048 	push	af
   1ED2 33                 9049 	inc	sp
                           9050 ; genCall
   1ED3 CD 00 00           9051 	call	_gotoxy
   1ED6 E8 02              9052 	lda	sp,2(sp)
                           9053 ;	Navigation/../MonsterSelect/monsterSelect.c 121
                           9054 ; genPlus
                           9055 ; AOP_STK for _displayMonsterInfo_sloc3_1_0
                           9056 ; genPlusIncr
                           9057 ;	genPlusIncr failed
   1ED8 F8 04              9058 	lda	hl,4(sp)
   1EDA 5E                 9059 	ld	e,(hl)
   1EDB 23                 9060 	inc	hl
   1EDC 56                 9061 	ld	d,(hl)
   1EDD 21 1F 00           9062 	ld	hl,#0x001F
   1EE0 19                 9063 	add	hl,de
   1EE1 5D                 9064 	ld	e,l
   1EE2 54                 9065 	ld	d,h
                           9066 ; genPointerGet
                           9067 ; AOP_STK for _displayMonsterInfo_sloc5_1_0
                           9068 ; Removed redundent load
                           9069 ; Removed redundent load
   1EE3 1A                 9070 	ld	a,(de)
   1EE4 F8 00              9071 	lda	hl,0(sp)
   1EE6 77                 9072 	ld	(hl),a
   1EE7 13                 9073 	inc	de
   1EE8 1A                 9074 	ld	a,(de)
   1EE9 23                 9075 	inc	hl
   1EEA 77                 9076 	ld	(hl),a
                           9077 ; genIpush
   1EEB 21 03 00           9078 	ld	hl,#0x0003
   1EEE E5                 9079 	push	hl
                           9080 ; genIpush
                           9081 ; AOP_STK for _displayMonsterInfo_sloc5_1_0
   1EEF F8 02              9082 	lda	hl,2(sp)
   1EF1 2A                 9083 	ld	a,(hl+)
   1EF2 66                 9084 	ld	h,(hl)
   1EF3 6F                 9085 	ld	l,a
   1EF4 E5                 9086 	push	hl
                           9087 ; genCall
   1EF5 CD 93 1C           9088 	call	_printPaddedNumber
   1EF8 E8 04              9089 	lda	sp,4(sp)
                           9090 ;	Navigation/../MonsterSelect/monsterSelect.c 122
                           9091 ; genIpush
   1EFA 3E 0E              9092 	ld	a,#0x0E
   1EFC F5                 9093 	push	af
   1EFD 33                 9094 	inc	sp
                           9095 ; genIpush
   1EFE 3E 10              9096 	ld	a,#0x10
   1F00 F5                 9097 	push	af
   1F01 33                 9098 	inc	sp
                           9099 ; genCall
   1F02 CD 00 00           9100 	call	_gotoxy
   1F05 E8 02              9101 	lda	sp,2(sp)
                           9102 ;	Navigation/../MonsterSelect/monsterSelect.c 123
                           9103 ; genPlus
                           9104 ; AOP_STK for _displayMonsterInfo_sloc3_1_0
                           9105 ; genPlusIncr
                           9106 ;	genPlusIncr failed
   1F07 F8 04              9107 	lda	hl,4(sp)
   1F09 5E                 9108 	ld	e,(hl)
   1F0A 23                 9109 	inc	hl
   1F0B 56                 9110 	ld	d,(hl)
   1F0C 21 21 00           9111 	ld	hl,#0x0021
   1F0F 19                 9112 	add	hl,de
   1F10 5D                 9113 	ld	e,l
   1F11 54                 9114 	ld	d,h
                           9115 ; genPointerGet
                           9116 ; AOP_STK for _displayMonsterInfo_sloc5_1_0
                           9117 ; Removed redundent load
                           9118 ; Removed redundent load
   1F12 1A                 9119 	ld	a,(de)
   1F13 F8 00              9120 	lda	hl,0(sp)
   1F15 77                 9121 	ld	(hl),a
   1F16 13                 9122 	inc	de
   1F17 1A                 9123 	ld	a,(de)
   1F18 23                 9124 	inc	hl
   1F19 77                 9125 	ld	(hl),a
                           9126 ; genIpush
   1F1A 21 03 00           9127 	ld	hl,#0x0003
   1F1D E5                 9128 	push	hl
                           9129 ; genIpush
                           9130 ; AOP_STK for _displayMonsterInfo_sloc5_1_0
   1F1E F8 02              9131 	lda	hl,2(sp)
   1F20 2A                 9132 	ld	a,(hl+)
   1F21 66                 9133 	ld	h,(hl)
   1F22 6F                 9134 	ld	l,a
   1F23 E5                 9135 	push	hl
                           9136 ; genCall
   1F24 CD 93 1C           9137 	call	_printPaddedNumber
   1F27 E8 04              9138 	lda	sp,4(sp)
                           9139 ;	Navigation/../MonsterSelect/monsterSelect.c 124
                           9140 ; genIpush
   1F29 3E 0F              9141 	ld	a,#0x0F
   1F2B F5                 9142 	push	af
   1F2C 33                 9143 	inc	sp
                           9144 ; genIpush
   1F2D 3E 11              9145 	ld	a,#0x11
   1F2F F5                 9146 	push	af
   1F30 33                 9147 	inc	sp
                           9148 ; genCall
   1F31 CD 00 00           9149 	call	_gotoxy
   1F34 E8 02              9150 	lda	sp,2(sp)
                           9151 ;	Navigation/../MonsterSelect/monsterSelect.c 125
                           9152 ; genPlus
                           9153 ; AOP_STK for _displayMonsterInfo_sloc3_1_0
                           9154 ; genPlusIncr
                           9155 ;	genPlusIncr failed
   1F36 F8 04              9156 	lda	hl,4(sp)
   1F38 5E                 9157 	ld	e,(hl)
   1F39 23                 9158 	inc	hl
   1F3A 56                 9159 	ld	d,(hl)
   1F3B 21 23 00           9160 	ld	hl,#0x0023
   1F3E 19                 9161 	add	hl,de
   1F3F 5D                 9162 	ld	e,l
   1F40 54                 9163 	ld	d,h
                           9164 ; genPointerGet
                           9165 ; AOP_STK for _displayMonsterInfo_sloc5_1_0
                           9166 ; Removed redundent load
                           9167 ; Removed redundent load
   1F41 1A                 9168 	ld	a,(de)
   1F42 F8 00              9169 	lda	hl,0(sp)
   1F44 77                 9170 	ld	(hl),a
   1F45 13                 9171 	inc	de
   1F46 1A                 9172 	ld	a,(de)
   1F47 23                 9173 	inc	hl
   1F48 77                 9174 	ld	(hl),a
                           9175 ; genIpush
   1F49 21 02 00           9176 	ld	hl,#0x0002
   1F4C E5                 9177 	push	hl
                           9178 ; genIpush
                           9179 ; AOP_STK for _displayMonsterInfo_sloc5_1_0
   1F4D F8 02              9180 	lda	hl,2(sp)
   1F4F 2A                 9181 	ld	a,(hl+)
   1F50 66                 9182 	ld	h,(hl)
   1F51 6F                 9183 	ld	l,a
   1F52 E5                 9184 	push	hl
                           9185 ; genCall
   1F53 CD 93 1C           9186 	call	_printPaddedNumber
   1F56 E8 04              9187 	lda	sp,4(sp)
                           9188 ; genLabel
   1F58                    9189 00109$:
                           9190 ; genEndFunction
   1F58 E8 0E              9191 	lda	sp,14(sp)
   1F5A C1                 9192 	pop	bc
   1F5B C9                 9193 	ret
   1F5C                    9194 ___displayMonsterInfo_end:
   1F5C                    9195 __str_45:
   1F5C 20                 9196 	.ascii " "
   1F5D 00                 9197 	.db 0x00
                           9198 ;	Navigation/../MonsterSelect/monsterSelect.c 128
                           9199 ; genLabel
                           9200 ; genFunction
                           9201 ;	---------------------------------
                           9202 ; Function setBackgound
                           9203 ; ---------------------------------
   1F5E                    9204 ___setBackgound_start:
   1F5E                    9205 _setBackgound:
   1F5E C5                 9206 	push	bc
                           9207 	
                           9208 ;	Navigation/../MonsterSelect/monsterSelect.c 129
                           9209 ; genCall
   1F5F CD 83 2F           9210 	call	_clearScreen
                           9211 ;	Navigation/../MonsterSelect/monsterSelect.c 130
                           9212 ; genIpush
   1F62 21 AD 19           9213 	ld	hl,#_Select_Screen_map + 0
   1F65 E5                 9214 	push	hl
                           9215 ; genIpush
   1F66 3E 12              9216 	ld	a,#0x12
   1F68 F5                 9217 	push	af
   1F69 33                 9218 	inc	sp
                           9219 ; genIpush
   1F6A 3E 14              9220 	ld	a,#0x14
   1F6C F5                 9221 	push	af
   1F6D 33                 9222 	inc	sp
                           9223 ; genIpush
   1F6E 3E 00              9224 	ld	a,#0x00
   1F70 F5                 9225 	push	af
   1F71 33                 9226 	inc	sp
                           9227 ; genIpush
   1F72 3E 00              9228 	ld	a,#0x00
   1F74 F5                 9229 	push	af
   1F75 33                 9230 	inc	sp
                           9231 ; genCall
   1F76 CD 00 00           9232 	call	_set_bkg_tiles
   1F79 E8 06              9233 	lda	sp,6(sp)
                           9234 ;	Navigation/../MonsterSelect/monsterSelect.c 131
                           9235 ; genIpush
   1F7B 3E 00              9236 	ld	a,#0x00
   1F7D F5                 9237 	push	af
   1F7E 33                 9238 	inc	sp
                           9239 ; genIpush
   1F7F 3E 00              9240 	ld	a,#0x00
   1F81 F5                 9241 	push	af
   1F82 33                 9242 	inc	sp
                           9243 ; genCall
   1F83 CD 00 00           9244 	call	_gotoxy
   1F86 E8 02              9245 	lda	sp,2(sp)
                           9246 ;	Navigation/../MonsterSelect/monsterSelect.c 132
                           9247 ; genIpush
   1F88 21 39 20           9248 	ld	hl,#__str_46 + 0
   1F8B E5                 9249 	push	hl
                           9250 ; genCall
   1F8C CD 00 00           9251 	call	_printf
   1F8F E8 02              9252 	lda	sp,2(sp)
                           9253 ;	Navigation/../MonsterSelect/monsterSelect.c 133
                           9254 ; genIpush
   1F91 3E 08              9255 	ld	a,#0x08
   1F93 F5                 9256 	push	af
   1F94 33                 9257 	inc	sp
                           9258 ; genIpush
   1F95 3E 0D              9259 	ld	a,#0x0D
   1F97 F5                 9260 	push	af
   1F98 33                 9261 	inc	sp
                           9262 ; genCall
   1F99 CD 00 00           9263 	call	_gotoxy
   1F9C E8 02              9264 	lda	sp,2(sp)
                           9265 ;	Navigation/../MonsterSelect/monsterSelect.c 134
                           9266 ; genIpush
   1F9E 21 4E 20           9267 	ld	hl,#__str_47 + 0
   1FA1 E5                 9268 	push	hl
                           9269 ; genCall
   1FA2 CD 00 00           9270 	call	_printf
   1FA5 E8 02              9271 	lda	sp,2(sp)
                           9272 ;	Navigation/../MonsterSelect/monsterSelect.c 135
                           9273 ; genIpush
   1FA7 3E 0C              9274 	ld	a,#0x0C
   1FA9 F5                 9275 	push	af
   1FAA 33                 9276 	inc	sp
                           9277 ; genIpush
   1FAB 3E 0D              9278 	ld	a,#0x0D
   1FAD F5                 9279 	push	af
   1FAE 33                 9280 	inc	sp
                           9281 ; genCall
   1FAF CD 00 00           9282 	call	_gotoxy
   1FB2 E8 02              9283 	lda	sp,2(sp)
                           9284 ;	Navigation/../MonsterSelect/monsterSelect.c 136
                           9285 ; genIpush
   1FB4 21 55 20           9286 	ld	hl,#__str_48 + 0
   1FB7 E5                 9287 	push	hl
                           9288 ; genCall
   1FB8 CD 00 00           9289 	call	_printf
   1FBB E8 02              9290 	lda	sp,2(sp)
                           9291 ;	Navigation/../MonsterSelect/monsterSelect.c 137
                           9292 ; genIpush
   1FBD 3E 0D              9293 	ld	a,#0x0D
   1FBF F5                 9294 	push	af
   1FC0 33                 9295 	inc	sp
                           9296 ; genIpush
   1FC1 3E 0D              9297 	ld	a,#0x0D
   1FC3 F5                 9298 	push	af
   1FC4 33                 9299 	inc	sp
                           9300 ; genCall
   1FC5 CD 00 00           9301 	call	_gotoxy
   1FC8 E8 02              9302 	lda	sp,2(sp)
                           9303 ;	Navigation/../MonsterSelect/monsterSelect.c 138
                           9304 ; genIpush
   1FCA 21 58 20           9305 	ld	hl,#__str_49 + 0
   1FCD E5                 9306 	push	hl
                           9307 ; genCall
   1FCE CD 00 00           9308 	call	_printf
   1FD1 E8 02              9309 	lda	sp,2(sp)
                           9310 ;	Navigation/../MonsterSelect/monsterSelect.c 139
                           9311 ; genIpush
   1FD3 3E 0E              9312 	ld	a,#0x0E
   1FD5 F5                 9313 	push	af
   1FD6 33                 9314 	inc	sp
                           9315 ; genIpush
   1FD7 3E 0D              9316 	ld	a,#0x0D
   1FD9 F5                 9317 	push	af
   1FDA 33                 9318 	inc	sp
                           9319 ; genCall
   1FDB CD 00 00           9320 	call	_gotoxy
   1FDE E8 02              9321 	lda	sp,2(sp)
                           9322 ;	Navigation/../MonsterSelect/monsterSelect.c 140
                           9323 ; genIpush
   1FE0 21 5C 20           9324 	ld	hl,#__str_50 + 0
   1FE3 E5                 9325 	push	hl
                           9326 ; genCall
   1FE4 CD 00 00           9327 	call	_printf
   1FE7 E8 02              9328 	lda	sp,2(sp)
                           9329 ;	Navigation/../MonsterSelect/monsterSelect.c 141
                           9330 ; genIpush
   1FE9 3E 0F              9331 	ld	a,#0x0F
   1FEB F5                 9332 	push	af
   1FEC 33                 9333 	inc	sp
                           9334 ; genIpush
   1FED 3E 0D              9335 	ld	a,#0x0D
   1FEF F5                 9336 	push	af
   1FF0 33                 9337 	inc	sp
                           9338 ; genCall
   1FF1 CD 00 00           9339 	call	_gotoxy
   1FF4 E8 02              9340 	lda	sp,2(sp)
                           9341 ;	Navigation/../MonsterSelect/monsterSelect.c 142
                           9342 ; genIpush
   1FF6 21 5F 20           9343 	ld	hl,#__str_51 + 0
   1FF9 E5                 9344 	push	hl
                           9345 ; genCall
   1FFA CD 00 00           9346 	call	_printf
   1FFD E8 02              9347 	lda	sp,2(sp)
                           9348 ;	Navigation/../MonsterSelect/monsterSelect.c 143
                           9349 ; genIpush
   1FFF 3E 11              9350 	ld	a,#0x11
   2001 F5                 9351 	push	af
   2002 33                 9352 	inc	sp
                           9353 ; genIpush
   2003 3E 03              9354 	ld	a,#0x03
   2005 F5                 9355 	push	af
   2006 33                 9356 	inc	sp
                           9357 ; genCall
   2007 CD 00 00           9358 	call	_gotoxy
   200A E8 02              9359 	lda	sp,2(sp)
                           9360 ;	Navigation/../MonsterSelect/monsterSelect.c 144
                           9361 ; genIpush
   200C 21 63 20           9362 	ld	hl,#__str_52 + 0
   200F E5                 9363 	push	hl
                           9364 ; genCall
   2010 CD 00 00           9365 	call	_printf
   2013 E8 02              9366 	lda	sp,2(sp)
                           9367 ;	Navigation/../MonsterSelect/monsterSelect.c 145
                           9368 ; genIpush
   2015 3E 11              9369 	ld	a,#0x11
   2017 F5                 9370 	push	af
   2018 33                 9371 	inc	sp
                           9372 ; genIpush
   2019 3E 0C              9373 	ld	a,#0x0C
   201B F5                 9374 	push	af
   201C 33                 9375 	inc	sp
                           9376 ; genCall
   201D CD 00 00           9377 	call	_gotoxy
   2020 E8 02              9378 	lda	sp,2(sp)
                           9379 ;	Navigation/../MonsterSelect/monsterSelect.c 146
                           9380 ; genIpush
   2022 21 B3 00           9381 	ld	hl,#_s + 0
   2025 E5                 9382 	push	hl
                           9383 ; genCall
   2026 CD 7B 1C           9384 	call	_get_size
   2029 42                 9385 	ld	b,d
   202A 4B                 9386 	ld	c,e
   202B E8 02              9387 	lda	sp,2(sp)
                           9388 ; genIpush
   202D C5                 9389 	push	bc
                           9390 ; genIpush
   202E 21 6D 20           9391 	ld	hl,#__str_53 + 0
   2031 E5                 9392 	push	hl
                           9393 ; genCall
   2032 CD 00 00           9394 	call	_printf
   2035 E8 04              9395 	lda	sp,4(sp)
                           9396 ; genLabel
   2037                    9397 00101$:
                           9398 ; genEndFunction
                           9399 	
   2037 C1                 9400 	pop	bc
   2038 C9                 9401 	ret
   2039                    9402 ___setBackgound_end:
   2039                    9403 __str_46:
   2039 53 65 6C 65 63 74  9404 	.ascii "Select Your Monsters"
        20 59 6F 75 72 20
        4D 6F 6E 73 74 65
        72 73
   204D 00                 9405 	.db 0x00
   204E                    9406 __str_47:
   204E 53 74 61 74 73 3A  9407 	.ascii "Stats:"
   2054 00                 9408 	.db 0x00
   2055                    9409 __str_48:
   2055 48 50              9410 	.ascii "HP"
   2057 00                 9411 	.db 0x00
   2058                    9412 __str_49:
   2058 41 74 6B           9413 	.ascii "Atk"
   205B 00                 9414 	.db 0x00
   205C                    9415 __str_50:
   205C 53 70              9416 	.ascii "Sp"
   205E 00                 9417 	.db 0x00
   205F                    9418 __str_51:
   205F 44 65 66           9419 	.ascii "Def"
   2062 00                 9420 	.db 0x00
   2063                    9421 __str_52:
   2063 53 65 6C 65 63 74  9422 	.ascii "Selected:"
        65 64 3A
   206C 00                 9423 	.db 0x00
   206D                    9424 __str_53:
   206D 25 64              9425 	.ascii "%d"
   206F 00                 9426 	.db 0x00
                           9427 ;	Navigation/../MonsterSelect/monsterSelect.c 151
                           9428 ; genLabel
                           9429 ; genFunction
                           9430 ;	---------------------------------
                           9431 ; Function displayMonsterList
                           9432 ; ---------------------------------
   2070                    9433 ___displayMonsterList_start:
   2070                    9434 _displayMonsterList:
   2070 C5                 9435 	push	bc
   2071 E8 FA              9436 	lda	sp,-6(sp)
                           9437 ;	Navigation/../MonsterSelect/monsterSelect.c 156
                           9438 ; genMinus
                           9439 ; AOP_STK for 
   2073 F8 0A              9440 	lda	hl,10(sp)
   2075 4E                 9441 	ld	c,(hl)
   2076 23                 9442 	inc	hl
   2077 46                 9443 	ld	b,(hl)
   2078 0B                 9444 	dec	bc
                           9445 ; genIpush
   2079 21 0D 00           9446 	ld	hl,#0x000D
   207C E5                 9447 	push	hl
                           9448 ; genIpush
   207D C5                 9449 	push	bc
                           9450 ; genCall
   207E CD 00 00           9451 	call	__mulsint
                           9452 ; AOP_STK for _displayMonsterList_i_1_1
   2081 F8 09              9453 	lda	hl,9(sp)
   2083 72                 9454 	ld	(hl),d
   2084 2B                 9455 	dec	hl
   2085 73                 9456 	ld	(hl),e
   2086 E8 04              9457 	lda	sp,4(sp)
                           9458 ; genIpush
   2088 21 0D 00           9459 	ld	hl,#0x000D
   208B E5                 9460 	push	hl
                           9461 ; genIpush
                           9462 ; AOP_STK for 
   208C F8 0C              9463 	lda	hl,12(sp)
   208E 2A                 9464 	ld	a,(hl+)
   208F 66                 9465 	ld	h,(hl)
   2090 6F                 9466 	ld	l,a
   2091 E5                 9467 	push	hl
                           9468 ; genCall
   2092 CD 00 00           9469 	call	__mulsint
                           9470 ; AOP_STK for _displayMonsterList_sloc0_1_0
   2095 F8 07              9471 	lda	hl,7(sp)
   2097 72                 9472 	ld	(hl),d
   2098 2B                 9473 	dec	hl
   2099 73                 9474 	ld	(hl),e
   209A E8 04              9475 	lda	sp,4(sp)
                           9476 ; genLabel
   209C                    9477 00103$:
                           9478 ; genCmpLt
                           9479 ; AOP_STK for _displayMonsterList_i_1_1
                           9480 ; AOP_STK for _displayMonsterList_sloc0_1_0
   209C F8 05              9481 	lda	hl,5(sp)
   209E 7E                 9482 	ld	a,(hl)
   209F EE 80              9483 	xor	a,#0x80
   20A1 5F                 9484 	ld	e,a
   20A2 2B                 9485 	dec	hl
   20A3 2B                 9486 	dec	hl
   20A4 7E                 9487 	ld	a,(hl)
   20A5 EE 80              9488 	xor	a,#0x80
   20A7 57                 9489 	ld	d,a
   20A8 23                 9490 	inc	hl
   20A9 7E                 9491 	ld	a,(hl)
   20AA 2B                 9492 	dec	hl
   20AB 2B                 9493 	dec	hl
   20AC 9E                 9494 	sbc	a,(hl) ; 2
   20AD 7B                 9495 	ld	a,e
   20AE 9A                 9496 	sbc	a,d
   20AF D2 21 21           9497 	jp	nc,00107$
                           9498 ;	Navigation/../MonsterSelect/monsterSelect.c 157
                           9499 ; genCmpLt
                           9500 ; AOP_STK for _displayMonsterList_i_1_1
   20B2 23                 9501 	inc	hl
   20B3 23                 9502 	inc	hl
   20B4 5E                 9503 	ld	e,(hl)
   20B5 23                 9504 	inc	hl
   20B6 7E                 9505 	ld	a,(hl)
   20B7 EE 80              9506 	xor	a,#0x80
   20B9 57                 9507 	ld	d,a
   20BA 21 E6 7F           9508 	ld	hl,#0x7FE6
   20BD 19                 9509 	add	hl,de
   20BE DA 17 21           9510 	jp	c,00105$
                           9511 ;	Navigation/../MonsterSelect/monsterSelect.c 158
                           9512 ; genIpush
   20C1 21 0D 00           9513 	ld	hl,#0x000D
   20C4 E5                 9514 	push	hl
                           9515 ; genIpush
                           9516 ; AOP_STK for _displayMonsterList_i_1_1
   20C5 F8 06              9517 	lda	hl,6(sp)
   20C7 2A                 9518 	ld	a,(hl+)
   20C8 66                 9519 	ld	h,(hl)
   20C9 6F                 9520 	ld	l,a
   20CA E5                 9521 	push	hl
                           9522 ; genCall
   20CB CD 00 00           9523 	call	__modsint
   20CE 42                 9524 	ld	b,d
   20CF 4B                 9525 	ld	c,e
   20D0 E8 04              9526 	lda	sp,4(sp)
                           9527 ; genPlus
                           9528 ; genPlusIncr
   20D2 03                 9529 	inc	bc
   20D3 03                 9530 	inc	bc
   20D4 03                 9531 	inc	bc
                           9532 ; genCast
                           9533 ; Removed redundent load
                           9534 ; genIpush
   20D5 79                 9535 	ld	a,c
   20D6 F5                 9536 	push	af
   20D7 33                 9537 	inc	sp
                           9538 ; genIpush
   20D8 3E 01              9539 	ld	a,#0x01
   20DA F5                 9540 	push	af
   20DB 33                 9541 	inc	sp
                           9542 ; genCall
   20DC CD 00 00           9543 	call	_gotoxy
   20DF E8 02              9544 	lda	sp,2(sp)
                           9545 ;	Navigation/../MonsterSelect/monsterSelect.c 159
                           9546 ; genIpush
   20E1 21 25 00           9547 	ld	hl,#0x0025
   20E4 E5                 9548 	push	hl
                           9549 ; genIpush
                           9550 ; AOP_STK for _displayMonsterList_i_1_1
   20E5 F8 06              9551 	lda	hl,6(sp)
   20E7 2A                 9552 	ld	a,(hl+)
   20E8 66                 9553 	ld	h,(hl)
   20E9 6F                 9554 	ld	l,a
   20EA E5                 9555 	push	hl
                           9556 ; genCall
   20EB CD 00 00           9557 	call	__mulsint
                           9558 ; AOP_STK for _displayMonsterList_sloc1_1_0
   20EE F8 05              9559 	lda	hl,5(sp)
   20F0 72                 9560 	ld	(hl),d
   20F1 2B                 9561 	dec	hl
   20F2 73                 9562 	ld	(hl),e
   20F3 E8 04              9563 	lda	sp,4(sp)
                           9564 ; genPlus
                           9565 ; AOP_STK for _displayMonsterList_sloc1_1_0
                           9566 ;	genPlusIncr failed
   20F5 11 FB 14           9567 	ld	de,#_monsters + 0
   20F8 2A                 9568 	ld	a,(hl+)
   20F9 66                 9569 	ld	h,(hl)
   20FA 6F                 9570 	ld	l,a
   20FB 19                 9571 	add	hl,de
   20FC 7D                 9572 	ld	a,l
   20FD 54                 9573 	ld	d,h
   20FE F8 00              9574 	lda	hl,0(sp)
   2100 22                 9575 	ld	(hl+),a
   2101 72                 9576 	ld	(hl),d
                           9577 ; genPlus
                           9578 ; AOP_STK for _displayMonsterList_sloc1_1_0
                           9579 ; genPlusIncr
   2102 2B                 9580 	dec	hl
   2103 34                 9581 	inc	(hl)
   2104 20 02              9582 	jr	nz,00112$
   2106 23                 9583 	inc	hl
   2107 34                 9584 	inc	(hl)
   2108                    9585 00112$:
                           9586 ; genIpush
                           9587 ; AOP_STK for _displayMonsterList_sloc1_1_0
   2108 F8 00              9588 	lda	hl,0(sp)
   210A 2A                 9589 	ld	a,(hl+)
   210B 66                 9590 	ld	h,(hl)
   210C 6F                 9591 	ld	l,a
   210D E5                 9592 	push	hl
                           9593 ; genIpush
   210E 21 25 21           9594 	ld	hl,#__str_54 + 0
   2111 E5                 9595 	push	hl
                           9596 ; genCall
   2112 CD 00 00           9597 	call	_printf
   2115 E8 04              9598 	lda	sp,4(sp)
                           9599 ; genLabel
   2117                    9600 00105$:
                           9601 ;	Navigation/../MonsterSelect/monsterSelect.c 156
                           9602 ; genPlus
                           9603 ; AOP_STK for _displayMonsterList_i_1_1
                           9604 ; genPlusIncr
   2117 F8 04              9605 	lda	hl,4(sp)
   2119 34                 9606 	inc	(hl)
   211A 20 02              9607 	jr	nz,00113$
   211C 23                 9608 	inc	hl
   211D 34                 9609 	inc	(hl)
   211E                    9610 00113$:
                           9611 ; genGoto
   211E C3 9C 20           9612 	jp	00103$
                           9613 ; genLabel
   2121                    9614 00107$:
                           9615 ; genEndFunction
   2121 E8 06              9616 	lda	sp,6(sp)
   2123 C1                 9617 	pop	bc
   2124 C9                 9618 	ret
   2125                    9619 ___displayMonsterList_end:
   2125                    9620 __str_54:
   2125 25 73              9621 	.ascii "%s"
   2127 0A                 9622 	.db 0x0A
   2128 00                 9623 	.db 0x00
                           9624 ;	Navigation/../MonsterSelect/monsterSelect.c 164
                           9625 ; genLabel
                           9626 ; genFunction
                           9627 ;	---------------------------------
                           9628 ; Function selectInput
                           9629 ; ---------------------------------
   2129                    9630 ___selectInput_start:
   2129                    9631 _selectInput:
   2129 C5                 9632 	push	bc
   212A E8 F7              9633 	lda	sp,-9(sp)
                           9634 ;	Navigation/../MonsterSelect/monsterSelect.c 170
                           9635 ; genAssign
                           9636 ; AOP_STK for _selectInput_i_1_1
   212C F8 07              9637 	lda	hl,7(sp)
   212E 36 00              9638 	ld	(hl),#0x00
   2130 23                 9639 	inc	hl
   2131 36 00              9640 	ld	(hl),#0x00
                           9641 ;	Navigation/../MonsterSelect/monsterSelect.c 171
                           9642 ; genIpush
   2133 21 B3 00           9643 	ld	hl,#_s + 0
   2136 E5                 9644 	push	hl
                           9645 ; genCall
   2137 CD E4 14           9646 	call	_init_stack
   213A E8 02              9647 	lda	sp,2(sp)
                           9648 ;	Navigation/../MonsterSelect/monsterSelect.c 173
                           9649 ; genAssign
                           9650 ; AOP_HL for _startCursor
                           9651 ; AOP_STK for _selectInput_cursor_loc_1_1
   213C 21 15 1B           9652 	ld	hl,#_startCursor + 0
   213F 7E                 9653 	ld	a,(hl)
   2140 F8 06              9654 	lda	hl,6(sp)
   2142 77                 9655 	ld	(hl),a
                           9656 ;	Navigation/../MonsterSelect/monsterSelect.c 175
                           9657 ; genIpush
   2143 21 A2 00           9658 	ld	hl,#_Cursors + 0
   2146 E5                 9659 	push	hl
                           9660 ; genIpush
   2147 3E 01              9661 	ld	a,#0x01
   2149 F5                 9662 	push	af
   214A 33                 9663 	inc	sp
                           9664 ; genIpush
   214B 3E 00              9665 	ld	a,#0x00
   214D F5                 9666 	push	af
   214E 33                 9667 	inc	sp
                           9668 ; genCall
   214F CD 00 00           9669 	call	_set_sprite_data
   2152 E8 04              9670 	lda	sp,4(sp)
                           9671 ;	Navigation/../MonsterSelect/monsterSelect.c 176
                           9672 ; genIpush
   2154 3E 50              9673 	ld	a,#0x50
   2156 F5                 9674 	push	af
   2157 33                 9675 	inc	sp
                           9676 ; genIpush
   2158 3E 00              9677 	ld	a,#0x00
   215A F5                 9678 	push	af
   215B 33                 9679 	inc	sp
                           9680 ; genCall
   215C CD 00 00           9681 	call	_set_sprite_tile
   215F E8 02              9682 	lda	sp,2(sp)
                           9683 ;	Navigation/../MonsterSelect/monsterSelect.c 177
                           9684 ; genIpush
                           9685 ; AOP_STK for _selectInput_cursor_loc_1_1
   2161 F8 06              9686 	lda	hl,6(sp)
   2163 7E                 9687 	ld	a,(hl)
   2164 F5                 9688 	push	af
   2165 33                 9689 	inc	sp
                           9690 ; genIpush
   2166 3E 09              9691 	ld	a,#0x09
   2168 F5                 9692 	push	af
   2169 33                 9693 	inc	sp
                           9694 ; genIpush
   216A 3E 50              9695 	ld	a,#0x50
   216C F5                 9696 	push	af
   216D 33                 9697 	inc	sp
                           9698 ; genCall
   216E CD 00 00           9699 	call	_move_sprite
   2171 E8 03              9700 	lda	sp,3(sp)
                           9701 ;	Navigation/../MonsterSelect/monsterSelect.c 180
                           9702 ; genCast
                           9703 ; AOP_HL for _currentList
   2173 21 B2 00           9704 	ld	hl,#_currentList + 0
   2176 4E                 9705 	ld	c,(hl)
   2177 7E                 9706 	ld	a,(hl)
                           9707 ; genCast: sign extend untested.
   2178 17                 9708 	rla	
   2179 9F                 9709 	sbc	a,a
   217A 47                 9710 	ld	b,a
                           9711 ; genIpush
   217B C5                 9712 	push	bc
                           9713 ; genCall
   217C CD 70 20           9714 	call	_displayMonsterList
   217F E8 02              9715 	lda	sp,2(sp)
                           9716 ;	Navigation/../MonsterSelect/monsterSelect.c 183
                           9717 ; genIpush
   2181 21 FB 14           9718 	ld	hl,#_monsters + 0
   2184 E5                 9719 	push	hl
                           9720 ; genCall
   2185 CD 80 1D           9721 	call	_displayMonsterInfo
   2188 E8 02              9722 	lda	sp,2(sp)
                           9723 ;	Navigation/../MonsterSelect/monsterSelect.c 185
                           9724 ; genAssign
                           9725 ; AOP_STK for _selectInput_exit_loop_1_1
   218A F8 05              9726 	lda	hl,5(sp)
   218C 36 00              9727 	ld	(hl),#0x00
                           9728 ;	Navigation/../MonsterSelect/monsterSelect.c 186
                           9729 ; genAssign
                           9730 ; AOP_STK for _selectInput_sloc0_1_0
   218E 2B                 9731 	dec	hl
   218F 2B                 9732 	dec	hl
   2190 36 28              9733 	ld	(hl),#0x28
   2192 23                 9734 	inc	hl
   2193 36 00              9735 	ld	(hl),#0x00
                           9736 ; genLabel
   2195                    9737 00124$:
                           9738 ; genIfx
                           9739 ; AOP_STK for _selectInput_exit_loop_1_1
   2195 AF                 9740 	xor	a,a
   2196 F8 05              9741 	lda	hl,5(sp)
   2198 B6                 9742 	or	a,(hl)
   2199 B7                 9743 	or	a,a
   219A C2 72 24           9744 	jp	nz,00126$
                           9745 ;	Navigation/../MonsterSelect/monsterSelect.c 187
                           9746 ; genCall
   219D CD 00 00           9747 	call	_joypad
   21A0 4B                 9748 	ld	c,e
                           9749 ; genCmpEq
   21A1 79                 9750 	ld	a,c ; 2
   21A2 FE 04              9751 	cp	a,#0x04
                           9752 ; Rule 5
   21A4 CA C2 21           9753 	jp	z,00104$
   21A7                    9754 00157$:
                           9755 ; genCmpEq
   21A7 79                 9756 	ld	a,c ; 2
   21A8 FE 08              9757 	cp	a,#0x08
                           9758 ; Rule 5
   21AA CA E4 22           9759 	jp	z,00115$
   21AD                    9760 00158$:
                           9761 ; genCmpEq
   21AD 79                 9762 	ld	a,c ; 2
   21AE FE 10              9763 	cp	a,#0x10
                           9764 ; Rule 5
   21B0 CA CB 23           9765 	jp	z,00119$
   21B3                    9766 00159$:
                           9767 ; genCmpEq
   21B3 79                 9768 	ld	a,c ; 2
   21B4 FE 20              9769 	cp	a,#0x20
                           9770 ; Rule 5
   21B6 CA 2B 24           9771 	jp	z,00122$
   21B9                    9772 00160$:
                           9773 ; genCmpEq
   21B9 79                 9774 	ld	a,c ; 2
   21BA FE 80              9775 	cp	a,#0x80
                           9776 ; Rule 5
   21BC CA C4 23           9777 	jp	z,00116$
   21BF                    9778 00161$:
                           9779 ; genGoto
   21BF C3 66 24           9780 	jp	00123$
                           9781 ;	Navigation/../MonsterSelect/monsterSelect.c 194
                           9782 ; genLabel
   21C2                    9783 00104$:
                           9784 ;	Navigation/../MonsterSelect/monsterSelect.c 189
                           9785 ; genCmpEq
                           9786 ; AOP_HL for _currentList
                           9787 ; AOP_STK for _selectInput_sloc1_1_0
   21C2 21 B2 00           9788 	ld	hl,#_currentList + 0
   21C5 7E                 9789 	ld	a,(hl) ; 2
   21C6 FE 01              9790 	cp	a,#0x01
   21C8 C2 CF 21           9791 	jp	nz,00162$
   21CB 3E 01              9792 	ld	a,#0x01
   21CD 18 01              9793 	jr	00163$
   21CF                    9794 00162$:
   21CF AF                 9795 	xor	a,a
   21D0                    9796 00163$:
   21D0 F8 02              9797 	lda	hl,2(sp)
   21D2 77                 9798 	ld	(hl),a
                           9799 ; genIfx
                           9800 ; AOP_STK for _selectInput_sloc1_1_0
                           9801 ; Removed redundent or a,a
   21D3 AF                 9802 	xor	a,a
   21D4 B6                 9803 	or	a,(hl)
   21D5 CA F3 21           9804 	jp	z,00102$
                           9805 ; genCmpEq
                           9806 ; AOP_STK for _selectInput_i_1_1
   21D8 F8 07              9807 	lda	hl,7(sp)
   21DA 2A                 9808 	ld	a,(hl+)
   21DB B6                 9809 	or	a,(hl)
   21DC C2 E1 21           9810 	jp	nz,00164$
   21DF 18 03              9811 	jr	00165$
   21E1                    9812 00164$:
   21E1 C3 F3 21           9813 	jp	00102$
   21E4                    9814 00165$:
                           9815 ;	Navigation/../MonsterSelect/monsterSelect.c 190
                           9816 ; genCall
   21E4 CD E4 0A           9817 	call	_playCollisionSound
                           9818 ;	Navigation/../MonsterSelect/monsterSelect.c 191
                           9819 ; genIpush
   21E7 3E 02              9820 	ld	a,#0x02
   21E9 F5                 9821 	push	af
   21EA 33                 9822 	inc	sp
                           9823 ; genCall
   21EB CD DD 2F           9824 	call	_performantdelay
   21EE E8 01              9825 	lda	sp,1(sp)
                           9826 ;	Navigation/../MonsterSelect/monsterSelect.c 192
                           9827 ; genGoto
   21F0 C3 66 24           9828 	jp	00123$
                           9829 ; genLabel
   21F3                    9830 00102$:
                           9831 ;	Navigation/../MonsterSelect/monsterSelect.c 194
                           9832 ; genCast
                           9833 ; AOP_STK for _selectInput_cursor_loc_1_1
   21F3 F8 06              9834 	lda	hl,6(sp)
   21F5 46                 9835 	ld	b,(hl)
   21F6 0E 00              9836 	ld	c,#0x00
                           9837 ; genCmpGt
   21F8 58                 9838 	ld	e,b
   21F9 51                 9839 	ld	d,c
   21FA 21 D8 FF           9840 	ld	hl,#0xFFD8
   21FD 19                 9841 	add	hl,de
   21FE D2 66 24           9842 	jp	nc,00123$
                           9843 ;	Navigation/../MonsterSelect/monsterSelect.c 195
                           9844 ; genMinus
                           9845 ; AOP_STK for _selectInput_cursor_loc_1_1
   2201 F8 06              9846 	lda	hl,6(sp)
   2203 7E                 9847 	ld	a,(hl)
   2204 C6 F8              9848 	add	a,#0xF8
   2206 77                 9849 	ld	(hl),a
                           9850 ;	Navigation/../MonsterSelect/monsterSelect.c 196
                           9851 ; genIpush
                           9852 ; AOP_STK for _selectInput_cursor_loc_1_1
   2207 7E                 9853 	ld	a,(hl)
   2208 F5                 9854 	push	af
   2209 33                 9855 	inc	sp
                           9856 ; genIpush
   220A 3E 09              9857 	ld	a,#0x09
   220C F5                 9858 	push	af
   220D 33                 9859 	inc	sp
                           9860 ; genIpush
   220E 3E 50              9861 	ld	a,#0x50
   2210 F5                 9862 	push	af
   2211 33                 9863 	inc	sp
                           9864 ; genCall
   2212 CD 00 00           9865 	call	_move_sprite
   2215 E8 03              9866 	lda	sp,3(sp)
                           9867 ;	Navigation/../MonsterSelect/monsterSelect.c 197
                           9868 ; genMinus
                           9869 ; AOP_STK for _selectInput_i_1_1
   2217 F8 07              9870 	lda	hl,7(sp)
   2219 5E                 9871 	ld	e,(hl)
   221A 23                 9872 	inc	hl
   221B 56                 9873 	ld	d,(hl)
   221C 21 01 00           9874 	ld	hl,#0x0001
   221F 7B                 9875 	ld	a,e
   2220 95                 9876 	sub	a,l
   2221 5F                 9877 	ld	e,a
   2222 7A                 9878 	ld	a,d
   2223 9C                 9879 	sbc	a,h
   2224 F8 08              9880 	lda	hl,8(sp)
   2226 77                 9881 	ld	(hl),a
   2227 2B                 9882 	dec	hl
   2228 73                 9883 	ld	(hl),e
                           9884 ;	Navigation/../MonsterSelect/monsterSelect.c 198
                           9885 ; genCmpLt
                           9886 ; AOP_STK for _selectInput_i_1_1
   2229 5E                 9887 	ld	e,(hl)
   222A 23                 9888 	inc	hl
   222B 7E                 9889 	ld	a,(hl)
   222C EE 80              9890 	xor	a,#0x80
   222E 57                 9891 	ld	d,a
   222F 21 00 80           9892 	ld	hl,#0x8000
   2232 19                 9893 	add	hl,de
   2233 DA A0 22           9894 	jp	c,00106$
                           9895 ;	Navigation/../MonsterSelect/monsterSelect.c 199
                           9896 ; genIfx
                           9897 ; AOP_STK for _selectInput_sloc1_1_0
   2236 AF                 9898 	xor	a,a
   2237 F8 02              9899 	lda	hl,2(sp)
   2239 B6                 9900 	or	a,(hl)
   223A B7                 9901 	or	a,a
   223B CA 43 22           9902 	jp	z,00129$
                           9903 ; genAssign
   223E 0E 02              9904 	ld	c,#0x02
                           9905 ; genGoto
   2240 C3 45 22           9906 	jp	00130$
                           9907 ; genLabel
   2243                    9908 00129$:
                           9909 ; genAssign
   2243 0E 01              9910 	ld	c,#0x01
                           9911 ; genLabel
   2245                    9912 00130$:
                           9913 ; genAssign
                           9914 ; AOP_HL for _currentList
   2245 21 B2 00           9915 	ld	hl,#_currentList + 0
   2248 71                 9916 	ld	(hl),c
                           9917 ;	Navigation/../MonsterSelect/monsterSelect.c 200
                           9918 ; genCmpEq
                           9919 ; AOP_HL for _currentList
   2249 7E                 9920 	ld	a,(hl) ; 2
   224A FE 01              9921 	cp	a,#0x01
   224C C2 51 22           9922 	jp	nz,00166$
   224F 18 03              9923 	jr	00167$
   2251                    9924 00166$:
   2251 C3 59 22           9925 	jp	00131$
   2254                    9926 00167$:
                           9927 ; genAssign
   2254 0E 0C              9928 	ld	c,#0x0C
                           9929 ; genGoto
   2256 C3 5B 22           9930 	jp	00132$
                           9931 ; genLabel
   2259                    9932 00131$:
                           9933 ; genAssign
   2259 0E 0D              9934 	ld	c,#0x0D
                           9935 ; genLabel
   225B                    9936 00132$:
                           9937 ; genCast
                           9938 ; AOP_STK for _selectInput_i_1_1
   225B F8 07              9939 	lda	hl,7(sp)
   225D 71                 9940 	ld	(hl),c
   225E 79                 9941 	ld	a,c
                           9942 ; genCast: sign extend untested.
   225F 17                 9943 	rla	
   2260 9F                 9944 	sbc	a,a
   2261 23                 9945 	inc	hl
   2262 77                 9946 	ld	(hl),a
                           9947 ;	Navigation/../MonsterSelect/monsterSelect.c 201
                           9948 ; genCall
   2263 CD 5E 1F           9949 	call	_setBackgound
                           9950 ;	Navigation/../MonsterSelect/monsterSelect.c 202
                           9951 ; genCast
                           9952 ; AOP_HL for _currentList
   2266 21 B2 00           9953 	ld	hl,#_currentList + 0
   2269 4E                 9954 	ld	c,(hl)
   226A 7E                 9955 	ld	a,(hl)
                           9956 ; genCast: sign extend untested.
   226B 17                 9957 	rla	
   226C 9F                 9958 	sbc	a,a
   226D 47                 9959 	ld	b,a
                           9960 ; genIpush
   226E C5                 9961 	push	bc
                           9962 ; genCall
   226F CD 70 20           9963 	call	_displayMonsterList
   2272 E8 02              9964 	lda	sp,2(sp)
                           9965 ;	Navigation/../MonsterSelect/monsterSelect.c 203
                           9966 ; genLeftShift
                           9967 ; AOP_STK for _selectInput_i_1_1
   2274 F8 07              9968 	lda	hl,7(sp)
   2276 4E                 9969 	ld	c,(hl)
   2277 23                 9970 	inc	hl
   2278 46                 9971 	ld	b,(hl)
   2279 3E 04              9972 	ld	a,#0x03+1
   227B 18 05              9973 	jr	00169$
   227D                    9974 00168$:
   227D B7                 9975 	or	a,a
   227E CB 11              9976 	rl	c
   2280 CB 10              9977 	rl	b
   2282                    9978 00169$:
   2282 3D                 9979 	dec	a
   2283 20 F8              9980 	jr	nz,00168$
                           9981 ; genPlus
                           9982 ; AOP_STK for _selectInput_sloc0_1_0
                           9983 ;	genPlusIncr failed
   2285 F8 03              9984 	lda	hl,3(sp)
   2287 2A                 9985 	ld	a,(hl+)
   2288 66                 9986 	ld	h,(hl)
   2289 6F                 9987 	ld	l,a
   228A 09                 9988 	add	hl,bc
   228B 4D                 9989 	ld	c,l
   228C 44                 9990 	ld	b,h
                           9991 ; genCast
                           9992 ; AOP_STK for _selectInput_cursor_loc_1_1
   228D F8 06              9993 	lda	hl,6(sp)
   228F 71                 9994 	ld	(hl),c
                           9995 ;	Navigation/../MonsterSelect/monsterSelect.c 204
                           9996 ; genIpush
                           9997 ; AOP_STK for _selectInput_cursor_loc_1_1
   2290 7E                 9998 	ld	a,(hl)
   2291 F5                 9999 	push	af
   2292 33                10000 	inc	sp
                          10001 ; genIpush
   2293 3E 09             10002 	ld	a,#0x09
   2295 F5                10003 	push	af
   2296 33                10004 	inc	sp
                          10005 ; genIpush
   2297 3E 50             10006 	ld	a,#0x50
   2299 F5                10007 	push	af
   229A 33                10008 	inc	sp
                          10009 ; genCall
   229B CD 00 00          10010 	call	_move_sprite
   229E E8 03             10011 	lda	sp,3(sp)
                          10012 ; genLabel
   22A0                   10013 00106$:
                          10014 ;	Navigation/../MonsterSelect/monsterSelect.c 208
                          10015 ; genMinus
                          10016 ; AOP_HL for _currentList
   22A0 21 B2 00          10017 	ld	hl,#_currentList + 0
   22A3 7E                10018 	ld	a,(hl)
   22A4 C6 FF             10019 	add	a,#0xFF
   22A6 4F                10020 	ld	c,a
                          10021 ; genIpush
   22A7 3E 0D             10022 	ld	a,#0x0D
   22A9 F5                10023 	push	af
   22AA 33                10024 	inc	sp
                          10025 ; genIpush
   22AB 79                10026 	ld	a,c
   22AC F5                10027 	push	af
   22AD 33                10028 	inc	sp
                          10029 ; genCall
   22AE CD 00 00          10030 	call	__muluchar
   22B1 4B                10031 	ld	c,e
   22B2 E8 02             10032 	lda	sp,2(sp)
                          10033 ; genCast
                          10034 ; AOP_STK for _selectInput_sloc2_1_0
   22B4 F8 00             10035 	lda	hl,0(sp)
   22B6 71                10036 	ld	(hl),c
   22B7 23                10037 	inc	hl
   22B8 36 00             10038 	ld	(hl),#0x00
                          10039 ; genAssign
                          10040 ; AOP_STK for _selectInput_i_1_1
   22BA F8 07             10041 	lda	hl,7(sp)
   22BC 4E                10042 	ld	c,(hl)
   22BD 23                10043 	inc	hl
   22BE 46                10044 	ld	b,(hl)
                          10045 ; genPlus
                          10046 ; AOP_STK for _selectInput_sloc2_1_0
                          10047 ;	genPlusIncr failed
   22BF F8 00             10048 	lda	hl,0(sp)
   22C1 2A                10049 	ld	a,(hl+)
   22C2 66                10050 	ld	h,(hl)
   22C3 6F                10051 	ld	l,a
   22C4 09                10052 	add	hl,bc
   22C5 4D                10053 	ld	c,l
   22C6 44                10054 	ld	b,h
                          10055 ; genIpush
   22C7 21 25 00          10056 	ld	hl,#0x0025
   22CA E5                10057 	push	hl
                          10058 ; genIpush
   22CB C5                10059 	push	bc
                          10060 ; genCall
   22CC CD 00 00          10061 	call	__muluint
   22CF 42                10062 	ld	b,d
   22D0 4B                10063 	ld	c,e
   22D1 E8 04             10064 	lda	sp,4(sp)
                          10065 ; genPlus
                          10066 ;	genPlusIncr failed
   22D3 3E FB             10067 	ld	a,#<_monsters
   22D5 81                10068 	add	a,c
   22D6 4F                10069 	ld	c,a
   22D7 3E 14             10070 	ld	a,#>_monsters
   22D9 88                10071 	adc	a,b
   22DA 47                10072 	ld	b,a
                          10073 ; genIpush
   22DB C5                10074 	push	bc
                          10075 ; genCall
   22DC CD 80 1D          10076 	call	_displayMonsterInfo
   22DF E8 02             10077 	lda	sp,2(sp)
                          10078 ;	Navigation/../MonsterSelect/monsterSelect.c 210
                          10079 ; genGoto
   22E1 C3 66 24          10080 	jp	00123$
                          10081 ;	Navigation/../MonsterSelect/monsterSelect.c 229
                          10082 ; genLabel
   22E4                   10083 00115$:
                          10084 ;	Navigation/../MonsterSelect/monsterSelect.c 212
                          10085 ; genCast
                          10086 ; AOP_STK for _selectInput_cursor_loc_1_1
   22E4 F8 06             10087 	lda	hl,6(sp)
   22E6 4E                10088 	ld	c,(hl)
   22E7 06 00             10089 	ld	b,#0x00
                          10090 ; genCmpLt
   22E9 21 70 FF          10091 	ld	hl,#0xFF70
   22EC 09                10092 	add	hl,bc
   22ED DA 66 24          10093 	jp	c,00123$
                          10094 ;	Navigation/../MonsterSelect/monsterSelect.c 213
                          10095 ; genPlus
                          10096 ; AOP_STK for _selectInput_cursor_loc_1_1
                          10097 ; genPlusIncr
                          10098 ;	genPlusIncr failed
   22F0 F8 06             10099 	lda	hl,6(sp)
   22F2 7E                10100 	ld	a,(hl)
   22F3 C6 08             10101 	add	a,#0x08
   22F5 77                10102 	ld	(hl),a
                          10103 ;	Navigation/../MonsterSelect/monsterSelect.c 214
                          10104 ; genIpush
                          10105 ; AOP_STK for _selectInput_cursor_loc_1_1
   22F6 7E                10106 	ld	a,(hl)
   22F7 F5                10107 	push	af
   22F8 33                10108 	inc	sp
                          10109 ; genIpush
   22F9 3E 09             10110 	ld	a,#0x09
   22FB F5                10111 	push	af
   22FC 33                10112 	inc	sp
                          10113 ; genIpush
   22FD 3E 50             10114 	ld	a,#0x50
   22FF F5                10115 	push	af
   2300 33                10116 	inc	sp
                          10117 ; genCall
   2301 CD 00 00          10118 	call	_move_sprite
   2304 E8 03             10119 	lda	sp,3(sp)
                          10120 ;	Navigation/../MonsterSelect/monsterSelect.c 215
                          10121 ; genPlus
                          10122 ; AOP_STK for _selectInput_i_1_1
                          10123 ; genPlusIncr
   2306 F8 07             10124 	lda	hl,7(sp)
   2308 34                10125 	inc	(hl)
   2309 20 02             10126 	jr	nz,00170$
   230B 23                10127 	inc	hl
   230C 34                10128 	inc	(hl)
   230D                   10129 00170$:
                          10130 ;	Navigation/../MonsterSelect/monsterSelect.c 216
                          10131 ; genCmpGt
                          10132 ; AOP_STK for _selectInput_i_1_1
   230D F8 07             10133 	lda	hl,7(sp)
   230F 5E                10134 	ld	e,(hl)
   2310 23                10135 	inc	hl
   2311 7E                10136 	ld	a,(hl)
   2312 EE 80             10137 	xor	a,#0x80
   2314 57                10138 	ld	d,a
   2315 21 F3 7F          10139 	ld	hl,#0x7FF3
   2318 19                10140 	add	hl,de
   2319 DA 39 23          10141 	jp	c,00109$
                          10142 ; genCmpEq
                          10143 ; AOP_HL for _currentList
   231C 21 B2 00          10144 	ld	hl,#_currentList + 0
   231F 7E                10145 	ld	a,(hl) ; 2
   2320 FE 02             10146 	cp	a,#0x02
   2322 C2 27 23          10147 	jp	nz,00171$
   2325 18 03             10148 	jr	00172$
   2327                   10149 00171$:
   2327 C3 80 23          10150 	jp	00110$
   232A                   10151 00172$:
                          10152 ; genCmpLt
                          10153 ; AOP_STK for _selectInput_i_1_1
   232A F8 07             10154 	lda	hl,7(sp)
   232C 5E                10155 	ld	e,(hl)
   232D 23                10156 	inc	hl
   232E 7E                10157 	ld	a,(hl)
   232F EE 80             10158 	xor	a,#0x80
   2331 57                10159 	ld	d,a
   2332 21 F3 7F          10160 	ld	hl,#0x7FF3
   2335 19                10161 	add	hl,de
   2336 D2 80 23          10162 	jp	nc,00110$
                          10163 ; genLabel
   2339                   10164 00109$:
                          10165 ;	Navigation/../MonsterSelect/monsterSelect.c 217
                          10166 ; genCmpEq
                          10167 ; AOP_HL for _currentList
   2339 21 B2 00          10168 	ld	hl,#_currentList + 0
   233C 7E                10169 	ld	a,(hl) ; 2
   233D FE 01             10170 	cp	a,#0x01
   233F C2 44 23          10171 	jp	nz,00173$
   2342 18 03             10172 	jr	00174$
   2344                   10173 00173$:
   2344 C3 4C 23          10174 	jp	00133$
   2347                   10175 00174$:
                          10176 ; genAssign
   2347 0E 02             10177 	ld	c,#0x02
                          10178 ; genGoto
   2349 C3 4E 23          10179 	jp	00134$
                          10180 ; genLabel
   234C                   10181 00133$:
                          10182 ; genAssign
   234C 0E 01             10183 	ld	c,#0x01
                          10184 ; genLabel
   234E                   10185 00134$:
                          10186 ; genAssign
                          10187 ; AOP_HL for _currentList
   234E 21 B2 00          10188 	ld	hl,#_currentList + 0
   2351 71                10189 	ld	(hl),c
                          10190 ;	Navigation/../MonsterSelect/monsterSelect.c 218
                          10191 ; genAssign
                          10192 ; AOP_STK for _selectInput_i_1_1
   2352 F8 07             10193 	lda	hl,7(sp)
   2354 36 00             10194 	ld	(hl),#0x00
   2356 23                10195 	inc	hl
   2357 36 00             10196 	ld	(hl),#0x00
                          10197 ;	Navigation/../MonsterSelect/monsterSelect.c 219
                          10198 ; genCall
   2359 CD 5E 1F          10199 	call	_setBackgound
                          10200 ;	Navigation/../MonsterSelect/monsterSelect.c 220
                          10201 ; genCast
                          10202 ; AOP_HL for _currentList
   235C 21 B2 00          10203 	ld	hl,#_currentList + 0
   235F 4E                10204 	ld	c,(hl)
   2360 7E                10205 	ld	a,(hl)
                          10206 ; genCast: sign extend untested.
   2361 17                10207 	rla	
   2362 9F                10208 	sbc	a,a
   2363 47                10209 	ld	b,a
                          10210 ; genIpush
   2364 C5                10211 	push	bc
                          10212 ; genCall
   2365 CD 70 20          10213 	call	_displayMonsterList
   2368 E8 02             10214 	lda	sp,2(sp)
                          10215 ;	Navigation/../MonsterSelect/monsterSelect.c 221
                          10216 ; genCast
                          10217 ; AOP_STK for _selectInput_sloc0_1_0
                          10218 ; AOP_STK for _selectInput_cursor_loc_1_1
   236A F8 03             10219 	lda	hl,3(sp)
   236C 7E                10220 	ld	a,(hl)
   236D F8 06             10221 	lda	hl,6(sp)
   236F 77                10222 	ld	(hl),a
                          10223 ;	Navigation/../MonsterSelect/monsterSelect.c 222
                          10224 ; genIpush
                          10225 ; AOP_STK for _selectInput_cursor_loc_1_1
   2370 7E                10226 	ld	a,(hl)
   2371 F5                10227 	push	af
   2372 33                10228 	inc	sp
                          10229 ; genIpush
   2373 3E 09             10230 	ld	a,#0x09
   2375 F5                10231 	push	af
   2376 33                10232 	inc	sp
                          10233 ; genIpush
   2377 3E 50             10234 	ld	a,#0x50
   2379 F5                10235 	push	af
   237A 33                10236 	inc	sp
                          10237 ; genCall
   237B CD 00 00          10238 	call	_move_sprite
   237E E8 03             10239 	lda	sp,3(sp)
                          10240 ; genLabel
   2380                   10241 00110$:
                          10242 ;	Navigation/../MonsterSelect/monsterSelect.c 227
                          10243 ; genMinus
                          10244 ; AOP_HL for _currentList
   2380 21 B2 00          10245 	ld	hl,#_currentList + 0
   2383 7E                10246 	ld	a,(hl)
   2384 C6 FF             10247 	add	a,#0xFF
   2386 4F                10248 	ld	c,a
                          10249 ; genIpush
   2387 3E 0D             10250 	ld	a,#0x0D
   2389 F5                10251 	push	af
   238A 33                10252 	inc	sp
                          10253 ; genIpush
   238B 79                10254 	ld	a,c
   238C F5                10255 	push	af
   238D 33                10256 	inc	sp
                          10257 ; genCall
   238E CD 00 00          10258 	call	__muluchar
   2391 4B                10259 	ld	c,e
   2392 E8 02             10260 	lda	sp,2(sp)
                          10261 ; genCast
                          10262 ; AOP_STK for _selectInput_sloc2_1_0
   2394 F8 00             10263 	lda	hl,0(sp)
   2396 71                10264 	ld	(hl),c
   2397 23                10265 	inc	hl
   2398 36 00             10266 	ld	(hl),#0x00
                          10267 ; genAssign
                          10268 ; AOP_STK for _selectInput_i_1_1
   239A F8 07             10269 	lda	hl,7(sp)
   239C 4E                10270 	ld	c,(hl)
   239D 23                10271 	inc	hl
   239E 46                10272 	ld	b,(hl)
                          10273 ; genPlus
                          10274 ; AOP_STK for _selectInput_sloc2_1_0
                          10275 ;	genPlusIncr failed
   239F F8 00             10276 	lda	hl,0(sp)
   23A1 2A                10277 	ld	a,(hl+)
   23A2 66                10278 	ld	h,(hl)
   23A3 6F                10279 	ld	l,a
   23A4 09                10280 	add	hl,bc
   23A5 4D                10281 	ld	c,l
   23A6 44                10282 	ld	b,h
                          10283 ; genIpush
   23A7 21 25 00          10284 	ld	hl,#0x0025
   23AA E5                10285 	push	hl
                          10286 ; genIpush
   23AB C5                10287 	push	bc
                          10288 ; genCall
   23AC CD 00 00          10289 	call	__muluint
   23AF 42                10290 	ld	b,d
   23B0 4B                10291 	ld	c,e
   23B1 E8 04             10292 	lda	sp,4(sp)
                          10293 ; genPlus
                          10294 ;	genPlusIncr failed
   23B3 3E FB             10295 	ld	a,#<_monsters
   23B5 81                10296 	add	a,c
   23B6 4F                10297 	ld	c,a
   23B7 3E 14             10298 	ld	a,#>_monsters
   23B9 88                10299 	adc	a,b
   23BA 47                10300 	ld	b,a
                          10301 ; genIpush
   23BB C5                10302 	push	bc
                          10303 ; genCall
   23BC CD 80 1D          10304 	call	_displayMonsterInfo
   23BF E8 02             10305 	lda	sp,2(sp)
                          10306 ;	Navigation/../MonsterSelect/monsterSelect.c 229
                          10307 ; genGoto
   23C1 C3 66 24          10308 	jp	00123$
                          10309 ;	Navigation/../MonsterSelect/monsterSelect.c 231
                          10310 ; genLabel
   23C4                   10311 00116$:
                          10312 ; genAssign
                          10313 ; AOP_STK for _selectInput_exit_loop_1_1
   23C4 F8 05             10314 	lda	hl,5(sp)
   23C6 36 01             10315 	ld	(hl),#0x01
                          10316 ;	Navigation/../MonsterSelect/monsterSelect.c 232
                          10317 ; genGoto
   23C8 C3 66 24          10318 	jp	00123$
                          10319 ;	Navigation/../MonsterSelect/monsterSelect.c 239
                          10320 ; genLabel
   23CB                   10321 00119$:
                          10322 ;	Navigation/../MonsterSelect/monsterSelect.c 234
                          10323 ; genIpush
   23CB 21 B3 00          10324 	ld	hl,#_s + 0
   23CE E5                10325 	push	hl
                          10326 ; genCall
   23CF CD 4D 1B          10327 	call	_is_full
   23D2 42                10328 	ld	b,d
   23D3 4B                10329 	ld	c,e
   23D4 E8 02             10330 	lda	sp,2(sp)
                          10331 ; genIfx
                          10332 ; Rule 8
   23D6 79                10333 	ld	a,c
   23D7 B0                10334 	or	a,b
   23D8 C2 66 24          10335 	jp	nz,00123$
                          10336 ;	Navigation/../MonsterSelect/monsterSelect.c 239
                          10337 ; genCmpEq
                          10338 ; AOP_HL for _currentList
   23DB 21 B2 00          10339 	ld	hl,#_currentList + 0
   23DE 7E                10340 	ld	a,(hl) ; 2
   23DF FE 01             10341 	cp	a,#0x01
   23E1 C2 E6 23          10342 	jp	nz,00175$
   23E4 18 03             10343 	jr	00176$
   23E6                   10344 00175$:
   23E6 C3 EE 23          10345 	jp	00135$
   23E9                   10346 00176$:
                          10347 ; genAssign
   23E9 0E 00             10348 	ld	c,#0x00
                          10349 ; genGoto
   23EB C3 F0 23          10350 	jp	00136$
                          10351 ; genLabel
   23EE                   10352 00135$:
                          10353 ; genAssign
   23EE 0E 0D             10354 	ld	c,#0x0D
                          10355 ; genLabel
   23F0                   10356 00136$:
                          10357 ; genCast
                          10358 ; Removed redundent load
   23F0 79                10359 	ld	a,c
                          10360 ; genCast: sign extend untested.
   23F1 17                10361 	rla	
   23F2 9F                10362 	sbc	a,a
   23F3 47                10363 	ld	b,a
                          10364 ; genPlus
                          10365 ; AOP_STK for _selectInput_i_1_1
                          10366 ;	genPlusIncr failed
   23F4 F8 07             10367 	lda	hl,7(sp)
   23F6 2A                10368 	ld	a,(hl+)
   23F7 66                10369 	ld	h,(hl)
   23F8 6F                10370 	ld	l,a
   23F9 09                10371 	add	hl,bc
   23FA 4D                10372 	ld	c,l
   23FB 44                10373 	ld	b,h
                          10374 ; genIpush
   23FC C5                10375 	push	bc
                          10376 ; genIpush
   23FD 21 B3 00          10377 	ld	hl,#_s + 0
   2400 E5                10378 	push	hl
                          10379 ; genCall
   2401 CD 83 1B          10380 	call	_push
   2404 E8 04             10381 	lda	sp,4(sp)
                          10382 ;	Navigation/../MonsterSelect/monsterSelect.c 240
                          10383 ; genIpush
   2406 3E 11             10384 	ld	a,#0x11
   2408 F5                10385 	push	af
   2409 33                10386 	inc	sp
                          10387 ; genIpush
   240A 3E 0C             10388 	ld	a,#0x0C
   240C F5                10389 	push	af
   240D 33                10390 	inc	sp
                          10391 ; genCall
   240E CD 00 00          10392 	call	_gotoxy
   2411 E8 02             10393 	lda	sp,2(sp)
                          10394 ;	Navigation/../MonsterSelect/monsterSelect.c 241
                          10395 ; genIpush
   2413 21 B3 00          10396 	ld	hl,#_s + 0
   2416 E5                10397 	push	hl
                          10398 ; genCall
   2417 CD 7B 1C          10399 	call	_get_size
   241A 42                10400 	ld	b,d
   241B 4B                10401 	ld	c,e
   241C E8 02             10402 	lda	sp,2(sp)
                          10403 ; genIpush
   241E C5                10404 	push	bc
                          10405 ; genIpush
   241F 21 7A 24          10406 	ld	hl,#__str_55 + 0
   2422 E5                10407 	push	hl
                          10408 ; genCall
   2423 CD 00 00          10409 	call	_printf
   2426 E8 04             10410 	lda	sp,4(sp)
                          10411 ;	Navigation/../MonsterSelect/monsterSelect.c 242
                          10412 ; genGoto
   2428 C3 66 24          10413 	jp	00123$
                          10414 ;	Navigation/../MonsterSelect/monsterSelect.c 247
                          10415 ; genLabel
   242B                   10416 00122$:
                          10417 ;	Navigation/../MonsterSelect/monsterSelect.c 244
                          10418 ; genIpush
   242B 21 B3 00          10419 	ld	hl,#_s + 0
   242E E5                10420 	push	hl
                          10421 ; genCall
   242F CD 16 1B          10422 	call	_is_empty
   2432 42                10423 	ld	b,d
   2433 4B                10424 	ld	c,e
   2434 E8 02             10425 	lda	sp,2(sp)
                          10426 ; genIfx
                          10427 ; Rule 8
   2436 79                10428 	ld	a,c
   2437 B0                10429 	or	a,b
   2438 C2 66 24          10430 	jp	nz,00123$
                          10431 ;	Navigation/../MonsterSelect/monsterSelect.c 247
                          10432 ; genIpush
   243B 21 B3 00          10433 	ld	hl,#_s + 0
   243E E5                10434 	push	hl
                          10435 ; genCall
   243F CD F5 1B          10436 	call	_pop
   2442 E8 02             10437 	lda	sp,2(sp)
                          10438 ;	Navigation/../MonsterSelect/monsterSelect.c 248
                          10439 ; genIpush
   2444 3E 11             10440 	ld	a,#0x11
   2446 F5                10441 	push	af
   2447 33                10442 	inc	sp
                          10443 ; genIpush
   2448 3E 0C             10444 	ld	a,#0x0C
   244A F5                10445 	push	af
   244B 33                10446 	inc	sp
                          10447 ; genCall
   244C CD 00 00          10448 	call	_gotoxy
   244F E8 02             10449 	lda	sp,2(sp)
                          10450 ;	Navigation/../MonsterSelect/monsterSelect.c 249
                          10451 ; genIpush
   2451 21 B3 00          10452 	ld	hl,#_s + 0
   2454 E5                10453 	push	hl
                          10454 ; genCall
   2455 CD 7B 1C          10455 	call	_get_size
   2458 42                10456 	ld	b,d
   2459 4B                10457 	ld	c,e
   245A E8 02             10458 	lda	sp,2(sp)
                          10459 ; genIpush
   245C C5                10460 	push	bc
                          10461 ; genIpush
   245D 21 7D 24          10462 	ld	hl,#__str_56 + 0
   2460 E5                10463 	push	hl
                          10464 ; genCall
   2461 CD 00 00          10465 	call	_printf
   2464 E8 04             10466 	lda	sp,4(sp)
                          10467 ;	Navigation/../MonsterSelect/monsterSelect.c 251
                          10468 ; genLabel
   2466                   10469 00123$:
                          10470 ;	Navigation/../MonsterSelect/monsterSelect.c 252
                          10471 ; genIpush
   2466 3E 0A             10472 	ld	a,#0x0A
   2468 F5                10473 	push	af
   2469 33                10474 	inc	sp
                          10475 ; genCall
   246A CD DD 2F          10476 	call	_performantdelay
   246D E8 01             10477 	lda	sp,1(sp)
                          10478 ; genGoto
   246F C3 95 21          10479 	jp	00124$
                          10480 ; genLabel
   2472                   10481 00126$:
                          10482 ;	Navigation/../MonsterSelect/monsterSelect.c 254
                          10483 ; genCast
                          10484 ; AOP_STK for _selectInput_i_1_1
   2472 F8 07             10485 	lda	hl,7(sp)
   2474 4E                10486 	ld	c,(hl)
                          10487 ; genRet
   2475 59                10488 	ld	e,c
                          10489 ; genLabel
   2476                   10490 00127$:
                          10491 ; genEndFunction
   2476 E8 09             10492 	lda	sp,9(sp)
   2478 C1                10493 	pop	bc
   2479 C9                10494 	ret
   247A                   10495 ___selectInput_end:
   247A                   10496 __str_55:
   247A 25 64             10497 	.ascii "%d"
   247C 00                10498 	.db 0x00
   247D                   10499 __str_56:
   247D 25 64             10500 	.ascii "%d"
   247F 00                10501 	.db 0x00
                          10502 ;	Navigation/../MonsterSelect/monsterSelect.c 265
                          10503 ; genLabel
                          10504 ; genFunction
                          10505 ;	---------------------------------
                          10506 ; Function selectMonsters
                          10507 ; ---------------------------------
   2480                   10508 ___selectMonsters_start:
   2480                   10509 _selectMonsters:
                          10510 	
                          10511 ;	Navigation/../MonsterSelect/monsterSelect.c 266
                          10512 ; genOr
                          10513 ; AOP_SFR for _LCDC_REG
                          10514 ; Type res[4] = l[4]&r[1]
                          10515 ; Size res[1] = l[1]&r[1]
   2480 F0 00             10516 	ldh	a,(_LCDC_REG+0) ; x
   2482 F6 02             10517 	or	a,#0x02
   2484 E0 00             10518 	ldh	(_LCDC_REG+0),a
                          10519 ;	Navigation/../MonsterSelect/monsterSelect.c 267
                          10520 ; genIpush
   2486 21 BD 18          10521 	ld	hl,#_Select_Screen_data + 0
   2489 E5                10522 	push	hl
                          10523 ; genIpush
   248A 3E 0F             10524 	ld	a,#0x0F
   248C F5                10525 	push	af
   248D 33                10526 	inc	sp
                          10527 ; genIpush
   248E 3E 00             10528 	ld	a,#0x00
   2490 F5                10529 	push	af
   2491 33                10530 	inc	sp
                          10531 ; genCall
   2492 CD 00 00          10532 	call	_set_bkg_data
   2495 E8 04             10533 	lda	sp,4(sp)
                          10534 ;	Navigation/../MonsterSelect/monsterSelect.c 268
                          10535 ; genCall
   2497 CD 5E 1F          10536 	call	_setBackgound
                          10537 ;	Navigation/../MonsterSelect/monsterSelect.c 270
                          10538 ; genCall
   249A CD 29 21          10539 	call	_selectInput
                          10540 ;	Navigation/../MonsterSelect/monsterSelect.c 272
                          10541 ; genIpush
   249D 3E 80             10542 	ld	a,#0x80
   249F F5                10543 	push	af
   24A0 33                10544 	inc	sp
                          10545 ; genCall
   24A1 CD 00 00          10546 	call	_waitpad
   24A4 E8 01             10547 	lda	sp,1(sp)
                          10548 ; genLabel
   24A6                   10549 00101$:
                          10550 ; genEndFunction
                          10551 	
   24A6 C9                10552 	ret
   24A7                   10553 ___selectMonsters_end:
                          10554 ;	Navigation/navigation.c 21
                          10555 ; genLabel
                          10556 ; genFunction
                          10557 ;	---------------------------------
                          10558 ; Function setNavi
                          10559 ; ---------------------------------
   24A7                   10560 ___setNavi_start:
   24A7                   10561 _setNavi:
                          10562 	
                          10563 ;	Navigation/navigation.c 22
                          10564 ; genCall
   24A7 CD B1 24          10565 	call	_setUpPlayer
                          10566 ;	Navigation/navigation.c 23
                          10567 ; genCall
   24AA CD F5 2A          10568 	call	_Navigation
                          10569 ;	Navigation/navigation.c 24
                          10570 ; genRet
   24AD 11 00 00          10571 	ld	de,#0x0000
                          10572 ; genLabel
   24B0                   10573 00101$:
                          10574 ; genEndFunction
                          10575 	
   24B0 C9                10576 	ret
   24B1                   10577 ___setNavi_end:
                          10578 ;	Navigation/navigation.c 28
                          10579 ; genLabel
                          10580 ; genFunction
                          10581 ;	---------------------------------
                          10582 ; Function setUpPlayer
                          10583 ; ---------------------------------
   24B1                   10584 ___setUpPlayer_start:
   24B1                   10585 _setUpPlayer:
                          10586 	
                          10587 ;	Navigation/navigation.c 29
                          10588 ; genIpush
   24B1 21 21 00          10589 	ld	hl,#_Female_Player + 0
   24B4 E5                10590 	push	hl
                          10591 ; genIpush
   24B5 3E 08             10592 	ld	a,#0x08
   24B7 F5                10593 	push	af
   24B8 33                10594 	inc	sp
                          10595 ; genIpush
   24B9 3E 00             10596 	ld	a,#0x00
   24BB F5                10597 	push	af
   24BC 33                10598 	inc	sp
                          10599 ; genCall
   24BD CD 00 00          10600 	call	_set_sprite_data
   24C0 E8 04             10601 	lda	sp,4(sp)
                          10602 ;	Navigation/navigation.c 30
                          10603 ; genPlus
                          10604 ; genPlusIncr
   24C2 11 C5 00          10605 	ld	de,#_player + 0 + 4
                          10606 ; genAssign (pointer)
   24C5 3E 50             10607 	ld	a,#0x50
   24C7 12                10608 	ld	(de),a
                          10609 ;	Navigation/navigation.c 31
                          10610 ; genPlus
                          10611 ; genPlusIncr
   24C8 11 C6 00          10612 	ld	de,#_player + 0 + 5
                          10613 ; genAssign (pointer)
   24CB 3E 4E             10614 	ld	a,#0x4E
   24CD 12                10615 	ld	(de),a
                          10616 ;	Navigation/navigation.c 32
                          10617 ; genPlus
                          10618 ; genPlusIncr
   24CE 11 C9 00          10619 	ld	de,#_player + 0 + 8
                          10620 ; genAssign (pointer)
   24D1 3E 01             10621 	ld	a,#0x01
   24D3 12                10622 	ld	(de),a
                          10623 ;	Navigation/navigation.c 34
                          10624 ; genIpush
   24D4 3E 00             10625 	ld	a,#0x00
   24D6 F5                10626 	push	af
   24D7 33                10627 	inc	sp
                          10628 ; genIpush
   24D8 3E 00             10629 	ld	a,#0x00
   24DA F5                10630 	push	af
   24DB 33                10631 	inc	sp
                          10632 ; genCall
   24DC CD 00 00          10633 	call	_set_sprite_tile
   24DF E8 02             10634 	lda	sp,2(sp)
                          10635 ;	Navigation/navigation.c 35
                          10636 ; genAssign (pointer)
   24E1 11 C1 00          10637 	ld	de,#_player + 0
   24E4 3E 00             10638 	ld	a,#0x00
   24E6 12                10639 	ld	(de),a
                          10640 ;	Navigation/navigation.c 36
                          10641 ; genIpush
   24E7 3E 01             10642 	ld	a,#0x01
   24E9 F5                10643 	push	af
   24EA 33                10644 	inc	sp
                          10645 ; genIpush
   24EB 3E 01             10646 	ld	a,#0x01
   24ED F5                10647 	push	af
   24EE 33                10648 	inc	sp
                          10649 ; genCall
   24EF CD 00 00          10650 	call	_set_sprite_tile
   24F2 E8 02             10651 	lda	sp,2(sp)
                          10652 ;	Navigation/navigation.c 37
                          10653 ; genPlus
                          10654 ; genPlusIncr
   24F4 11 C2 00          10655 	ld	de,#_player + 0 + 1
                          10656 ; genAssign (pointer)
   24F7 3E 01             10657 	ld	a,#0x01
   24F9 12                10658 	ld	(de),a
                          10659 ;	Navigation/navigation.c 38
                          10660 ; genIpush
   24FA 3E 02             10661 	ld	a,#0x02
   24FC F5                10662 	push	af
   24FD 33                10663 	inc	sp
                          10664 ; genIpush
   24FE 3E 02             10665 	ld	a,#0x02
   2500 F5                10666 	push	af
   2501 33                10667 	inc	sp
                          10668 ; genCall
   2502 CD 00 00          10669 	call	_set_sprite_tile
   2505 E8 02             10670 	lda	sp,2(sp)
                          10671 ;	Navigation/navigation.c 39
                          10672 ; genPlus
                          10673 ; genPlusIncr
   2507 11 C3 00          10674 	ld	de,#_player + 0 + 2
                          10675 ; genAssign (pointer)
   250A 3E 02             10676 	ld	a,#0x02
   250C 12                10677 	ld	(de),a
                          10678 ;	Navigation/navigation.c 40
                          10679 ; genIpush
   250D 3E 03             10680 	ld	a,#0x03
   250F F5                10681 	push	af
   2510 33                10682 	inc	sp
                          10683 ; genIpush
   2511 3E 03             10684 	ld	a,#0x03
   2513 F5                10685 	push	af
   2514 33                10686 	inc	sp
                          10687 ; genCall
   2515 CD 00 00          10688 	call	_set_sprite_tile
   2518 E8 02             10689 	lda	sp,2(sp)
                          10690 ;	Navigation/navigation.c 41
                          10691 ; genPlus
                          10692 ; genPlusIncr
   251A 11 C4 00          10693 	ld	de,#_player + 0 + 3
                          10694 ; genAssign (pointer)
   251D 3E 03             10695 	ld	a,#0x03
   251F 12                10696 	ld	(de),a
                          10697 ; genLabel
   2520                   10698 00101$:
                          10699 ; genEndFunction
                          10700 	
   2520 C9                10701 	ret
   2521                   10702 ___setUpPlayer_end:
                          10703 ;	Navigation/navigation.c 44
                          10704 ; genLabel
                          10705 ; genFunction
                          10706 ;	---------------------------------
                          10707 ; Function displayRoom
                          10708 ; ---------------------------------
   2521                   10709 ___displayRoom_start:
   2521                   10710 _displayRoom:
   2521 C5                10711 	push	bc
   2522 E8 FC             10712 	lda	sp,-4(sp)
                          10713 ;	Navigation/navigation.c 45
                          10714 ; genIpush
   2524 3E 07             10715 	ld	a,#0x07
   2526 F5                10716 	push	af
   2527 33                10717 	inc	sp
                          10718 ; genIpush
                          10719 ; AOP_HL for _roomType
   2528 21 DD 00          10720 	ld	hl,#_roomType + 0
   252B 7E                10721 	ld	a,(hl)
   252C F5                10722 	push	af
   252D 33                10723 	inc	sp
                          10724 ; genCall
   252E CD 00 00          10725 	call	__muluchar
   2531 4B                10726 	ld	c,e
   2532 E8 02             10727 	lda	sp,2(sp)
                          10728 ; genPlus
                          10729 ; AOP_STK for _displayRoom_sloc1_1_0
                          10730 ;	genPlusIncr failed
   2534 11 A5 12          10731 	ld	de,#_rooms + 0
   2537 69                10732 	ld	l,c
   2538 26 00             10733 	ld	h,#0x00
   253A 19                10734 	add	hl,de
   253B 7D                10735 	ld	a,l
   253C 54                10736 	ld	d,h
   253D F8 00             10737 	lda	hl,0(sp)
   253F 22                10738 	ld	(hl+),a
   2540 72                10739 	ld	(hl),d
                          10740 ; genPointerGet
                          10741 ; AOP_STK for _displayRoom_sloc1_1_0
                          10742 ; AOP_STK for _displayRoom_sloc0_1_0
   2541 2B                10743 	dec	hl
   2542 5E                10744 	ld	e,(hl)
   2543 23                10745 	inc	hl
   2544 56                10746 	ld	d,(hl)
   2545 1A                10747 	ld	a,(de)
   2546 23                10748 	inc	hl
   2547 77                10749 	ld	(hl),a
   2548 13                10750 	inc	de
   2549 1A                10751 	ld	a,(de)
   254A 23                10752 	inc	hl
   254B 77                10753 	ld	(hl),a
                          10754 ; genPlus
                          10755 ; AOP_STK for _displayRoom_sloc1_1_0
                          10756 ; genPlusIncr
                          10757 ;	genPlusIncr failed
   254C F8 00             10758 	lda	hl,0(sp)
   254E 5E                10759 	ld	e,(hl)
   254F 23                10760 	inc	hl
   2550 56                10761 	ld	d,(hl)
   2551 21 04 00          10762 	ld	hl,#0x0004
   2554 19                10763 	add	hl,de
   2555 5D                10764 	ld	e,l
   2556 54                10765 	ld	d,h
                          10766 ; genPointerGet
   2557 1A                10767 	ld	a,(de)
   2558 4F                10768 	ld	c,a
                          10769 ; genIpush
                          10770 ; AOP_STK for _displayRoom_sloc0_1_0
   2559 F8 02             10771 	lda	hl,2(sp)
   255B 2A                10772 	ld	a,(hl+)
   255C 66                10773 	ld	h,(hl)
   255D 6F                10774 	ld	l,a
   255E E5                10775 	push	hl
                          10776 ; genIpush
   255F 79                10777 	ld	a,c
   2560 F5                10778 	push	af
   2561 33                10779 	inc	sp
                          10780 ; genIpush
   2562 3E 00             10781 	ld	a,#0x00
   2564 F5                10782 	push	af
   2565 33                10783 	inc	sp
                          10784 ; genCall
   2566 CD 00 00          10785 	call	_set_bkg_data
   2569 E8 04             10786 	lda	sp,4(sp)
                          10787 ;	Navigation/navigation.c 46
                          10788 ; genPlus
                          10789 ; AOP_STK for _displayRoom_sloc1_1_0
                          10790 ; genPlusIncr
   256B F8 00             10791 	lda	hl,0(sp)
   256D 5E                10792 	ld	e,(hl)
   256E 23                10793 	inc	hl
   256F 56                10794 	ld	d,(hl)
   2570 13                10795 	inc	de
   2571 13                10796 	inc	de
                          10797 ; genPointerGet
                          10798 ; Removed redundent load
                          10799 ; Removed redundent load
   2572 1A                10800 	ld	a,(de)
   2573 4F                10801 	ld	c,a
   2574 13                10802 	inc	de
   2575 1A                10803 	ld	a,(de)
   2576 47                10804 	ld	b,a
                          10805 ; genIpush
   2577 C5                10806 	push	bc
                          10807 ; genIpush
   2578 3E 12             10808 	ld	a,#0x12
   257A F5                10809 	push	af
   257B 33                10810 	inc	sp
                          10811 ; genIpush
   257C 3E 14             10812 	ld	a,#0x14
   257E F5                10813 	push	af
   257F 33                10814 	inc	sp
                          10815 ; genIpush
   2580 3E 00             10816 	ld	a,#0x00
   2582 F5                10817 	push	af
   2583 33                10818 	inc	sp
                          10819 ; genIpush
   2584 3E 00             10820 	ld	a,#0x00
   2586 F5                10821 	push	af
   2587 33                10822 	inc	sp
                          10823 ; genCall
   2588 CD 00 00          10824 	call	_set_bkg_tiles
   258B E8 06             10825 	lda	sp,6(sp)
                          10826 ; genLabel
   258D                   10827 00101$:
                          10828 ; genEndFunction
   258D E8 04             10829 	lda	sp,4(sp)
   258F C1                10830 	pop	bc
   2590 C9                10831 	ret
   2591                   10832 ___displayRoom_end:
                          10833 ;	Navigation/navigation.c 49
                          10834 ; genLabel
                          10835 ; genFunction
                          10836 ;	---------------------------------
                          10837 ; Function NavgateCurrentRoom
                          10838 ; ---------------------------------
   2591                   10839 ___NavgateCurrentRoom_start:
   2591                   10840 _NavgateCurrentRoom:
   2591 C5                10841 	push	bc
                          10842 	
                          10843 ;	Navigation/navigation.c 50
                          10844 ; genCall
   2592 CD 73 2E          10845 	call	_changeCPU
                          10846 ;	Navigation/navigation.c 51
                          10847 ; genCall
   2595 CD 21 25          10848 	call	_displayRoom
                          10849 ;	Navigation/navigation.c 52
                          10850 ; genPlus
                          10851 ; genPlusIncr
   2598 11 C6 00          10852 	ld	de,#_player + 0 + 5
                          10853 ; genPointerGet
   259B 1A                10854 	ld	a,(de)
   259C 4F                10855 	ld	c,a
                          10856 ; genPlus
                          10857 ; genPlusIncr
   259D 11 C5 00          10858 	ld	de,#_player + 0 + 4
                          10859 ; genPointerGet
   25A0 1A                10860 	ld	a,(de)
   25A1 47                10861 	ld	b,a
                          10862 ; genIpush
   25A2 79                10863 	ld	a,c
   25A3 F5                10864 	push	af
   25A4 33                10865 	inc	sp
                          10866 ; genIpush
   25A5 78                10867 	ld	a,b
   25A6 F5                10868 	push	af
   25A7 33                10869 	inc	sp
                          10870 ; genIpush
   25A8 21 C1 00          10871 	ld	hl,#_player + 0
   25AB E5                10872 	push	hl
                          10873 ; genCall
   25AC CD 60 2D          10874 	call	_movegamecharacter
   25AF E8 04             10875 	lda	sp,4(sp)
                          10876 ;	Navigation/navigation.c 53
                          10877 ; genIpush
   25B1 3E 05             10878 	ld	a,#0x05
   25B3 F5                10879 	push	af
   25B4 33                10880 	inc	sp
                          10881 ; genCall
   25B5 CD 3E 0A          10882 	call	_fadein
   25B8 E8 01             10883 	lda	sp,1(sp)
                          10884 ;	Navigation/navigation.c 54
                          10885 ; genCall
   25BA CD BF 25          10886 	call	_moveInput
                          10887 ; genLabel
   25BD                   10888 00101$:
                          10889 ; genEndFunction
                          10890 	
   25BD C1                10891 	pop	bc
   25BE C9                10892 	ret
   25BF                   10893 ___NavgateCurrentRoom_end:
                          10894 ;	Navigation/navigation.c 60
                          10895 ; genLabel
                          10896 ; genFunction
                          10897 ;	---------------------------------
                          10898 ; Function moveInput
                          10899 ; ---------------------------------
   25BF                   10900 ___moveInput_start:
   25BF                   10901 _moveInput:
   25BF C5                10902 	push	bc
   25C0 E8 E6             10903 	lda	sp,-26(sp)
                          10904 ;	Navigation/navigation.c 61
                          10905 ; genPlus
                          10906 ; AOP_STK for _moveInput_sloc0_1_0
                          10907 ; genPlusIncr
                          10908 ;	genPlusIncr failed
   25C2 11 C1 00          10909 	ld	de,#_player + 0
   25C5 21 08 00          10910 	ld	hl,#0x0008
   25C8 19                10911 	add	hl,de
   25C9 7D                10912 	ld	a,l
   25CA 54                10913 	ld	d,h
   25CB F8 12             10914 	lda	hl,18(sp)
   25CD 22                10915 	ld	(hl+),a
   25CE 72                10916 	ld	(hl),d
                          10917 ; genPlus
                          10918 ; AOP_STK for _moveInput_sloc1_1_0
                          10919 ; genPlusIncr
                          10920 ;	genPlusIncr failed
   25CF 11 C1 00          10921 	ld	de,#_player + 0
   25D2 21 05 00          10922 	ld	hl,#0x0005
   25D5 19                10923 	add	hl,de
   25D6 7D                10924 	ld	a,l
   25D7 54                10925 	ld	d,h
   25D8 F8 10             10926 	lda	hl,16(sp)
   25DA 22                10927 	ld	(hl+),a
   25DB 72                10928 	ld	(hl),d
                          10929 ; genPlus
                          10930 ; AOP_STK for _moveInput_sloc2_1_0
                          10931 ; genPlusIncr
                          10932 ;	genPlusIncr failed
   25DC 11 C1 00          10933 	ld	de,#_player + 0
   25DF 21 04 00          10934 	ld	hl,#0x0004
   25E2 19                10935 	add	hl,de
   25E3 7D                10936 	ld	a,l
   25E4 54                10937 	ld	d,h
   25E5 F8 0E             10938 	lda	hl,14(sp)
   25E7 22                10939 	ld	(hl+),a
   25E8 72                10940 	ld	(hl),d
                          10941 ; genPlus
                          10942 ; AOP_STK for _moveInput_sloc3_1_0
                          10943 ; genPlusIncr
                          10944 ;	genPlusIncr failed
   25E9 11 D1 00          10945 	ld	de,#_cpu + 0
   25EC 21 09 00          10946 	ld	hl,#0x0009
   25EF 19                10947 	add	hl,de
   25F0 7D                10948 	ld	a,l
   25F1 54                10949 	ld	d,h
   25F2 F8 0C             10950 	lda	hl,12(sp)
   25F4 22                10951 	ld	(hl+),a
   25F5 72                10952 	ld	(hl),d
                          10953 ; genPlus
                          10954 ; AOP_STK for _moveInput_sloc4_1_0
                          10955 ; genPlusIncr
                          10956 ;	genPlusIncr failed
   25F6 11 D1 00          10957 	ld	de,#_cpu + 0
   25F9 21 0B 00          10958 	ld	hl,#0x000B
   25FC 19                10959 	add	hl,de
   25FD 7D                10960 	ld	a,l
   25FE 54                10961 	ld	d,h
   25FF F8 0A             10962 	lda	hl,10(sp)
   2601 22                10963 	ld	(hl+),a
   2602 72                10964 	ld	(hl),d
                          10965 ; genLabel
   2603                   10966 00127$:
                          10967 ;	Navigation/navigation.c 62
                          10968 ; genAssign
                          10969 ; AOP_STK for _moveInput_results_2_2
   2603 F8 19             10970 	lda	hl,25(sp)
   2605 36 00             10971 	ld	(hl),#0x00
                          10972 ;	Navigation/navigation.c 64
                          10973 ; genCall
   2607 CD 00 00          10974 	call	_joypad
   260A 43                10975 	ld	b,e
                          10976 ; genCmpEq
   260B 78                10977 	ld	a,b ; 2
   260C FE 01             10978 	cp	a,#0x01
                          10979 ; Rule 5
   260E CA 95 26          10980 	jp	z,00108$
   2611                   10981 00154$:
                          10982 ; genCmpEq
   2611 78                10983 	ld	a,b ; 2
   2612 FE 02             10984 	cp	a,#0x02
                          10985 ; Rule 5
   2614 CA 2C 26          10986 	jp	z,00104$
   2617                   10987 00155$:
                          10988 ; genCmpEq
   2617 78                10989 	ld	a,b ; 2
   2618 FE 04             10990 	cp	a,#0x04
                          10991 ; Rule 5
   261A CA 0B 27          10992 	jp	z,00112$
   261D                   10993 00156$:
                          10994 ; genCmpEq
   261D 78                10995 	ld	a,b ; 2
   261E FE 08             10996 	cp	a,#0x08
                          10997 ; Rule 5
   2620 CA 9C 27          10998 	jp	z,00116$
   2623                   10999 00157$:
                          11000 ; genCmpEq
   2623 78                11001 	ld	a,b ; 2
   2624 FE 10             11002 	cp	a,#0x10
                          11003 ; Rule 5
   2626 CA 17 28          11004 	jp	z,00122$
   2629                   11005 00158$:
                          11006 ; genGoto
   2629 C3 A0 29          11007 	jp	00123$
                          11008 ;	Navigation/navigation.c 70
                          11009 ; genLabel
   262C                   11010 00104$:
                          11011 ;	Navigation/navigation.c 66
                          11012 ; genPointerGet
                          11013 ; AOP_STK for _moveInput_sloc0_1_0
   262C F8 12             11014 	lda	hl,18(sp)
   262E 5E                11015 	ld	e,(hl)
   262F 23                11016 	inc	hl
   2630 56                11017 	ld	d,(hl)
   2631 1A                11018 	ld	a,(de)
   2632 47                11019 	ld	b,a
                          11020 ; genCmpEq
   2633 78                11021 	ld	a,b ; 2
   2634 FE 02             11022 	cp	a,#0x02
   2636 C2 3B 26          11023 	jp	nz,00159$
   2639 18 03             11024 	jr	00160$
   263B                   11025 00159$:
   263B C3 8A 26          11026 	jp	00102$
   263E                   11027 00160$:
                          11028 ; genPointerGet
                          11029 ; AOP_STK for _moveInput_sloc1_1_0
                          11030 ; AOP_STK for _moveInput_sloc5_1_0
   263E F8 10             11031 	lda	hl,16(sp)
   2640 5E                11032 	ld	e,(hl)
   2641 23                11033 	inc	hl
   2642 56                11034 	ld	d,(hl)
   2643 1A                11035 	ld	a,(de)
   2644 F8 09             11036 	lda	hl,9(sp)
   2646 77                11037 	ld	(hl),a
                          11038 ; genPointerGet
                          11039 ; AOP_STK for _moveInput_sloc2_1_0
   2647 F8 0E             11040 	lda	hl,14(sp)
   2649 5E                11041 	ld	e,(hl)
   264A 23                11042 	inc	hl
   264B 56                11043 	ld	d,(hl)
   264C 1A                11044 	ld	a,(de)
   264D 4F                11045 	ld	c,a
                          11046 ; genMinus
                          11047 ; AOP_STK for _moveInput_sloc6_1_0
   264E 79                11048 	ld	a,c
   264F C6 FC             11049 	add	a,#0xFC
   2651 F8 08             11050 	lda	hl,8(sp)
   2653 77                11051 	ld	(hl),a
                          11052 ; genCast
                          11053 ; Removed redundent load
   2654 06 00             11054 	ld	b,#0x00
                          11055 ; genMinus
   2656 79                11056 	ld	a,c
   2657 C6 F8             11057 	add	a,#0xF8
   2659 4F                11058 	ld	c,a
   265A 78                11059 	ld	a,b
   265B CE FF             11060 	adc	a,#0xFF
   265D 47                11061 	ld	b,a
                          11062 ; genCast
                          11063 ; Removed redundent load
                          11064 ; genIpush
                          11065 ; AOP_STK for _moveInput_sloc5_1_0
   265E 23                11066 	inc	hl
   265F 7E                11067 	ld	a,(hl)
   2660 F5                11068 	push	af
   2661 33                11069 	inc	sp
                          11070 ; genIpush
                          11071 ; AOP_STK for _moveInput_sloc6_1_0
   2662 2B                11072 	dec	hl
   2663 7E                11073 	ld	a,(hl)
   2664 F5                11074 	push	af
   2665 33                11075 	inc	sp
                          11076 ; genIpush
                          11077 ; AOP_STK for _moveInput_sloc5_1_0
   2666 23                11078 	inc	hl
   2667 7E                11079 	ld	a,(hl)
   2668 F5                11080 	push	af
   2669 33                11081 	inc	sp
                          11082 ; genIpush
   266A 79                11083 	ld	a,c
   266B F5                11084 	push	af
   266C 33                11085 	inc	sp
                          11086 ; genCall
   266D CD 23 2C          11087 	call	_canplayermove
   2670 4B                11088 	ld	c,e
   2671 E8 04             11089 	lda	sp,4(sp)
                          11090 ; genIfx
                          11091 ; Removed redundent or a,a
   2673 AF                11092 	xor	a,a
   2674 B1                11093 	or	a,c
   2675 CA 8A 26          11094 	jp	z,00102$
                          11095 ;	Navigation/navigation.c 67
                          11096 ; genIpush
                          11097 ; AOP_STK for _moveInput_sloc5_1_0
   2678 F8 09             11098 	lda	hl,9(sp)
   267A 7E                11099 	ld	a,(hl)
   267B F5                11100 	push	af
   267C 33                11101 	inc	sp
                          11102 ; genIpush
                          11103 ; AOP_STK for _moveInput_sloc6_1_0
   267D 2B                11104 	dec	hl
   267E 7E                11105 	ld	a,(hl)
   267F F5                11106 	push	af
   2680 33                11107 	inc	sp
                          11108 ; genIpush
   2681 21 C1 00          11109 	ld	hl,#_player + 0
   2684 E5                11110 	push	hl
                          11111 ; genCall
   2685 CD 60 2D          11112 	call	_movegamecharacter
   2688 E8 04             11113 	lda	sp,4(sp)
                          11114 ; genLabel
   268A                   11115 00102$:
                          11116 ;	Navigation/navigation.c 70
                          11117 ; genAssign (pointer)
                          11118 ; AOP_STK for _moveInput_sloc0_1_0
   268A F8 12             11119 	lda	hl,18(sp)
   268C 5E                11120 	ld	e,(hl)
   268D 23                11121 	inc	hl
   268E 56                11122 	ld	d,(hl)
   268F 3E 02             11123 	ld	a,#0x02
   2691 12                11124 	ld	(de),a
                          11125 ;	Navigation/navigation.c 71
                          11126 ; genGoto
   2692 C3 A0 29          11127 	jp	00123$
                          11128 ;	Navigation/navigation.c 77
                          11129 ; genLabel
   2695                   11130 00108$:
                          11131 ;	Navigation/navigation.c 73
                          11132 ; genPointerGet
                          11133 ; AOP_STK for _moveInput_sloc0_1_0
   2695 F8 12             11134 	lda	hl,18(sp)
   2697 5E                11135 	ld	e,(hl)
   2698 23                11136 	inc	hl
   2699 56                11137 	ld	d,(hl)
   269A 1A                11138 	ld	a,(de)
   269B 4F                11139 	ld	c,a
                          11140 ; genCmpEq
   269C 79                11141 	ld	a,c ; 2
   269D FE 03             11142 	cp	a,#0x03
   269F C2 A4 26          11143 	jp	nz,00161$
   26A2 18 03             11144 	jr	00162$
   26A4                   11145 00161$:
   26A4 C3 00 27          11146 	jp	00106$
   26A7                   11147 00162$:
                          11148 ; genPointerGet
                          11149 ; AOP_STK for _moveInput_sloc1_1_0
                          11150 ; AOP_STK for _moveInput_sloc6_1_0
   26A7 F8 10             11151 	lda	hl,16(sp)
   26A9 5E                11152 	ld	e,(hl)
   26AA 23                11153 	inc	hl
   26AB 56                11154 	ld	d,(hl)
   26AC 1A                11155 	ld	a,(de)
   26AD F8 08             11156 	lda	hl,8(sp)
   26AF 77                11157 	ld	(hl),a
                          11158 ; genPointerGet
                          11159 ; AOP_STK for _moveInput_sloc2_1_0
   26B0 F8 0E             11160 	lda	hl,14(sp)
   26B2 5E                11161 	ld	e,(hl)
   26B3 23                11162 	inc	hl
   26B4 56                11163 	ld	d,(hl)
   26B5 1A                11164 	ld	a,(de)
   26B6 4F                11165 	ld	c,a
                          11166 ; genPlus
                          11167 ; AOP_STK for _moveInput_sloc5_1_0
                          11168 ; genPlusIncr
                          11169 ;	genPlusIncr failed
   26B7 79                11170 	ld	a,c
   26B8 C6 04             11171 	add	a,#0x04
   26BA F8 09             11172 	lda	hl,9(sp)
   26BC 77                11173 	ld	(hl),a
                          11174 ; genCast
                          11175 ; AOP_STK for _moveInput_sloc7_1_0
   26BD F8 06             11176 	lda	hl,6(sp)
   26BF 71                11177 	ld	(hl),c
   26C0 23                11178 	inc	hl
   26C1 36 00             11179 	ld	(hl),#0x00
                          11180 ; genPlus
                          11181 ; AOP_STK for _moveInput_sloc7_1_0
                          11182 ; genPlusIncr
                          11183 ;	genPlusIncr failed
   26C3 2B                11184 	dec	hl
   26C4 5E                11185 	ld	e,(hl)
   26C5 23                11186 	inc	hl
   26C6 56                11187 	ld	d,(hl)
   26C7 21 18 00          11188 	ld	hl,#0x0018
   26CA 19                11189 	add	hl,de
   26CB 7D                11190 	ld	a,l
   26CC 54                11191 	ld	d,h
   26CD F8 06             11192 	lda	hl,6(sp)
   26CF 22                11193 	ld	(hl+),a
   26D0 72                11194 	ld	(hl),d
                          11195 ; genCast
                          11196 ; AOP_STK for _moveInput_sloc7_1_0
   26D1 2B                11197 	dec	hl
   26D2 4E                11198 	ld	c,(hl)
                          11199 ; genIpush
                          11200 ; AOP_STK for _moveInput_sloc6_1_0
   26D3 23                11201 	inc	hl
   26D4 23                11202 	inc	hl
   26D5 7E                11203 	ld	a,(hl)
   26D6 F5                11204 	push	af
   26D7 33                11205 	inc	sp
                          11206 ; genIpush
                          11207 ; AOP_STK for _moveInput_sloc5_1_0
   26D8 23                11208 	inc	hl
   26D9 7E                11209 	ld	a,(hl)
   26DA F5                11210 	push	af
   26DB 33                11211 	inc	sp
                          11212 ; genIpush
                          11213 ; AOP_STK for _moveInput_sloc6_1_0
   26DC 2B                11214 	dec	hl
   26DD 7E                11215 	ld	a,(hl)
   26DE F5                11216 	push	af
   26DF 33                11217 	inc	sp
                          11218 ; genIpush
   26E0 79                11219 	ld	a,c
   26E1 F5                11220 	push	af
   26E2 33                11221 	inc	sp
                          11222 ; genCall
   26E3 CD 23 2C          11223 	call	_canplayermove
   26E6 4B                11224 	ld	c,e
   26E7 E8 04             11225 	lda	sp,4(sp)
                          11226 ; genIfx
                          11227 ; Removed redundent or a,a
   26E9 AF                11228 	xor	a,a
   26EA B1                11229 	or	a,c
   26EB CA 00 27          11230 	jp	z,00106$
                          11231 ;	Navigation/navigation.c 74
                          11232 ; genIpush
                          11233 ; AOP_STK for _moveInput_sloc6_1_0
   26EE F8 08             11234 	lda	hl,8(sp)
   26F0 7E                11235 	ld	a,(hl)
   26F1 F5                11236 	push	af
   26F2 33                11237 	inc	sp
                          11238 ; genIpush
                          11239 ; AOP_STK for _moveInput_sloc5_1_0
   26F3 23                11240 	inc	hl
   26F4 7E                11241 	ld	a,(hl)
   26F5 F5                11242 	push	af
   26F6 33                11243 	inc	sp
                          11244 ; genIpush
   26F7 21 C1 00          11245 	ld	hl,#_player + 0
   26FA E5                11246 	push	hl
                          11247 ; genCall
   26FB CD 60 2D          11248 	call	_movegamecharacter
   26FE E8 04             11249 	lda	sp,4(sp)
                          11250 ; genLabel
   2700                   11251 00106$:
                          11252 ;	Navigation/navigation.c 77
                          11253 ; genAssign (pointer)
                          11254 ; AOP_STK for _moveInput_sloc0_1_0
   2700 F8 12             11255 	lda	hl,18(sp)
   2702 5E                11256 	ld	e,(hl)
   2703 23                11257 	inc	hl
   2704 56                11258 	ld	d,(hl)
   2705 3E 03             11259 	ld	a,#0x03
   2707 12                11260 	ld	(de),a
                          11261 ;	Navigation/navigation.c 78
                          11262 ; genGoto
   2708 C3 A0 29          11263 	jp	00123$
                          11264 ;	Navigation/navigation.c 83
                          11265 ; genLabel
   270B                   11266 00112$:
                          11267 ;	Navigation/navigation.c 80
                          11268 ; genPointerGet
                          11269 ; AOP_STK for _moveInput_sloc0_1_0
   270B F8 12             11270 	lda	hl,18(sp)
   270D 5E                11271 	ld	e,(hl)
   270E 23                11272 	inc	hl
   270F 56                11273 	ld	d,(hl)
   2710 1A                11274 	ld	a,(de)
   2711 4F                11275 	ld	c,a
                          11276 ; genCmpEq
   2712 79                11277 	ld	a,c
   2713 B7                11278 	or	a,a
   2714 C2 19 27          11279 	jp	nz,00163$
   2717 18 03             11280 	jr	00164$
   2719                   11281 00163$:
   2719 C3 7B 27          11282 	jp	00110$
   271C                   11283 00164$:
                          11284 ; genPointerGet
                          11285 ; AOP_STK for _moveInput_sloc1_1_0
                          11286 ; AOP_STK for _moveInput_sloc6_1_0
   271C F8 10             11287 	lda	hl,16(sp)
   271E 5E                11288 	ld	e,(hl)
   271F 23                11289 	inc	hl
   2720 56                11290 	ld	d,(hl)
   2721 1A                11291 	ld	a,(de)
   2722 F8 08             11292 	lda	hl,8(sp)
   2724 77                11293 	ld	(hl),a
                          11294 ; genMinus
                          11295 ; AOP_STK for _moveInput_sloc6_1_0
                          11296 ; AOP_STK for _moveInput_sloc7_1_0
   2725 7E                11297 	ld	a,(hl)
   2726 C6 FC             11298 	add	a,#0xFC
   2728 2B                11299 	dec	hl
   2729 2B                11300 	dec	hl
   272A 77                11301 	ld	(hl),a
                          11302 ; genPointerGet
                          11303 ; AOP_STK for _moveInput_sloc2_1_0
                          11304 ; AOP_STK for _moveInput_sloc5_1_0
   272B F8 0E             11305 	lda	hl,14(sp)
   272D 5E                11306 	ld	e,(hl)
   272E 23                11307 	inc	hl
   272F 56                11308 	ld	d,(hl)
   2730 1A                11309 	ld	a,(de)
   2731 F8 09             11310 	lda	hl,9(sp)
   2733 77                11311 	ld	(hl),a
                          11312 ; genCast
                          11313 ; AOP_STK for _moveInput_sloc6_1_0
                          11314 ; AOP_STK for _moveInput_sloc8_1_0
   2734 2B                11315 	dec	hl
   2735 7E                11316 	ld	a,(hl)
   2736 F8 04             11317 	lda	hl,4(sp)
   2738 22                11318 	ld	(hl+),a
   2739 36 00             11319 	ld	(hl),#0x00
                          11320 ; genMinus
                          11321 ; AOP_STK for _moveInput_sloc8_1_0
   273B 2B                11322 	dec	hl
   273C 5E                11323 	ld	e,(hl)
   273D 23                11324 	inc	hl
   273E 56                11325 	ld	d,(hl)
   273F 21 08 00          11326 	ld	hl,#0x0008
   2742 7B                11327 	ld	a,e
   2743 95                11328 	sub	a,l
   2744 5F                11329 	ld	e,a
   2745 7A                11330 	ld	a,d
   2746 9C                11331 	sbc	a,h
   2747 F8 05             11332 	lda	hl,5(sp)
   2749 77                11333 	ld	(hl),a
   274A 2B                11334 	dec	hl
   274B 73                11335 	ld	(hl),e
                          11336 ; genCast
                          11337 ; AOP_STK for _moveInput_sloc8_1_0
   274C 4E                11338 	ld	c,(hl)
                          11339 ; genIpush
                          11340 ; AOP_STK for _moveInput_sloc7_1_0
   274D 23                11341 	inc	hl
   274E 23                11342 	inc	hl
   274F 7E                11343 	ld	a,(hl)
   2750 F5                11344 	push	af
   2751 33                11345 	inc	sp
                          11346 ; genIpush
                          11347 ; AOP_STK for _moveInput_sloc5_1_0
   2752 F8 0A             11348 	lda	hl,10(sp)
   2754 7E                11349 	ld	a,(hl)
   2755 F5                11350 	push	af
   2756 33                11351 	inc	sp
                          11352 ; genIpush
   2757 79                11353 	ld	a,c
   2758 F5                11354 	push	af
   2759 33                11355 	inc	sp
                          11356 ; genIpush
                          11357 ; AOP_STK for _moveInput_sloc5_1_0
   275A 7E                11358 	ld	a,(hl)
   275B F5                11359 	push	af
   275C 33                11360 	inc	sp
                          11361 ; genCall
   275D CD 23 2C          11362 	call	_canplayermove
   2760 4B                11363 	ld	c,e
   2761 E8 04             11364 	lda	sp,4(sp)
                          11365 ; genIfx
                          11366 ; Removed redundent or a,a
   2763 AF                11367 	xor	a,a
   2764 B1                11368 	or	a,c
   2765 CA 7B 27          11369 	jp	z,00110$
                          11370 ;	Navigation/navigation.c 81
                          11371 ; genIpush
                          11372 ; AOP_STK for _moveInput_sloc7_1_0
   2768 F8 06             11373 	lda	hl,6(sp)
   276A 7E                11374 	ld	a,(hl)
   276B F5                11375 	push	af
   276C 33                11376 	inc	sp
                          11377 ; genIpush
                          11378 ; AOP_STK for _moveInput_sloc5_1_0
   276D F8 0A             11379 	lda	hl,10(sp)
   276F 7E                11380 	ld	a,(hl)
   2770 F5                11381 	push	af
   2771 33                11382 	inc	sp
                          11383 ; genIpush
   2772 21 C1 00          11384 	ld	hl,#_player + 0
   2775 E5                11385 	push	hl
                          11386 ; genCall
   2776 CD 60 2D          11387 	call	_movegamecharacter
   2779 E8 04             11388 	lda	sp,4(sp)
                          11389 ; genLabel
   277B                   11390 00110$:
                          11391 ;	Navigation/navigation.c 83
                          11392 ; genPointerGet
                          11393 ; AOP_STK for _moveInput_sloc1_1_0
   277B F8 10             11394 	lda	hl,16(sp)
   277D 5E                11395 	ld	e,(hl)
   277E 23                11396 	inc	hl
   277F 56                11397 	ld	d,(hl)
   2780 1A                11398 	ld	a,(de)
   2781 4F                11399 	ld	c,a
                          11400 ; genMinus
   2782 79                11401 	ld	a,c
   2783 C6 FC             11402 	add	a,#0xFC
   2785 4F                11403 	ld	c,a
                          11404 ; genIpush
   2786 79                11405 	ld	a,c
   2787 F5                11406 	push	af
   2788 33                11407 	inc	sp
                          11408 ; genCall
   2789 CD DD 29          11409 	call	_onDoor
                          11410 ; AOP_STK for _moveInput_results_2_2
   278C F8 1A             11411 	lda	hl,26(sp)
   278E 73                11412 	ld	(hl),e
   278F E8 01             11413 	lda	sp,1(sp)
                          11414 ;	Navigation/navigation.c 85
                          11415 ; genAssign (pointer)
                          11416 ; AOP_STK for _moveInput_sloc0_1_0
   2791 F8 12             11417 	lda	hl,18(sp)
   2793 5E                11418 	ld	e,(hl)
   2794 23                11419 	inc	hl
   2795 56                11420 	ld	d,(hl)
   2796 3E 00             11421 	ld	a,#0x00
   2798 12                11422 	ld	(de),a
                          11423 ;	Navigation/navigation.c 86
                          11424 ; genGoto
   2799 C3 A0 29          11425 	jp	00123$
                          11426 ;	Navigation/navigation.c 91
                          11427 ; genLabel
   279C                   11428 00116$:
                          11429 ;	Navigation/navigation.c 88
                          11430 ; genPointerGet
                          11431 ; AOP_STK for _moveInput_sloc0_1_0
   279C F8 12             11432 	lda	hl,18(sp)
   279E 5E                11433 	ld	e,(hl)
   279F 23                11434 	inc	hl
   27A0 56                11435 	ld	d,(hl)
   27A1 1A                11436 	ld	a,(de)
   27A2 4F                11437 	ld	c,a
                          11438 ; genCmpEq
   27A3 79                11439 	ld	a,c ; 2
   27A4 FE 01             11440 	cp	a,#0x01
   27A6 C2 AB 27          11441 	jp	nz,00165$
   27A9 18 03             11442 	jr	00166$
   27AB                   11443 00165$:
   27AB C3 F6 27          11444 	jp	00114$
   27AE                   11445 00166$:
                          11446 ; genPointerGet
                          11447 ; AOP_STK for _moveInput_sloc1_1_0
   27AE F8 10             11448 	lda	hl,16(sp)
   27B0 5E                11449 	ld	e,(hl)
   27B1 23                11450 	inc	hl
   27B2 56                11451 	ld	d,(hl)
   27B3 1A                11452 	ld	a,(de)
   27B4 4F                11453 	ld	c,a
                          11454 ; genPlus
                          11455 ; AOP_STK for _moveInput_sloc8_1_0
                          11456 ; genPlusIncr
                          11457 ;	genPlusIncr failed
   27B5 79                11458 	ld	a,c
   27B6 C6 04             11459 	add	a,#0x04
   27B8 F8 04             11460 	lda	hl,4(sp)
   27BA 77                11461 	ld	(hl),a
                          11462 ; genPointerGet
                          11463 ; AOP_STK for _moveInput_sloc2_1_0
                          11464 ; AOP_STK for _moveInput_sloc7_1_0
   27BB F8 0E             11465 	lda	hl,14(sp)
   27BD 5E                11466 	ld	e,(hl)
   27BE 23                11467 	inc	hl
   27BF 56                11468 	ld	d,(hl)
   27C0 1A                11469 	ld	a,(de)
   27C1 F8 06             11470 	lda	hl,6(sp)
   27C3 77                11471 	ld	(hl),a
                          11472 ; genIpush
                          11473 ; AOP_STK for _moveInput_sloc8_1_0
   27C4 2B                11474 	dec	hl
   27C5 2B                11475 	dec	hl
   27C6 7E                11476 	ld	a,(hl)
   27C7 F5                11477 	push	af
   27C8 33                11478 	inc	sp
                          11479 ; genIpush
                          11480 ; AOP_STK for _moveInput_sloc7_1_0
   27C9 23                11481 	inc	hl
   27CA 23                11482 	inc	hl
   27CB 7E                11483 	ld	a,(hl)
   27CC F5                11484 	push	af
   27CD 33                11485 	inc	sp
                          11486 ; genIpush
                          11487 ; AOP_STK for _moveInput_sloc8_1_0
   27CE 2B                11488 	dec	hl
   27CF 2B                11489 	dec	hl
   27D0 7E                11490 	ld	a,(hl)
   27D1 F5                11491 	push	af
   27D2 33                11492 	inc	sp
                          11493 ; genIpush
                          11494 ; AOP_STK for _moveInput_sloc7_1_0
   27D3 23                11495 	inc	hl
   27D4 23                11496 	inc	hl
   27D5 7E                11497 	ld	a,(hl)
   27D6 F5                11498 	push	af
   27D7 33                11499 	inc	sp
                          11500 ; genCall
   27D8 CD 23 2C          11501 	call	_canplayermove
   27DB 4B                11502 	ld	c,e
   27DC E8 04             11503 	lda	sp,4(sp)
                          11504 ; genIfx
                          11505 ; Removed redundent or a,a
   27DE AF                11506 	xor	a,a
   27DF B1                11507 	or	a,c
   27E0 CA F6 27          11508 	jp	z,00114$
                          11509 ;	Navigation/navigation.c 89
                          11510 ; genIpush
                          11511 ; AOP_STK for _moveInput_sloc8_1_0
   27E3 F8 04             11512 	lda	hl,4(sp)
   27E5 7E                11513 	ld	a,(hl)
   27E6 F5                11514 	push	af
   27E7 33                11515 	inc	sp
                          11516 ; genIpush
                          11517 ; AOP_STK for _moveInput_sloc7_1_0
   27E8 23                11518 	inc	hl
   27E9 23                11519 	inc	hl
   27EA 7E                11520 	ld	a,(hl)
   27EB F5                11521 	push	af
   27EC 33                11522 	inc	sp
                          11523 ; genIpush
   27ED 21 C1 00          11524 	ld	hl,#_player + 0
   27F0 E5                11525 	push	hl
                          11526 ; genCall
   27F1 CD 60 2D          11527 	call	_movegamecharacter
   27F4 E8 04             11528 	lda	sp,4(sp)
                          11529 ; genLabel
   27F6                   11530 00114$:
                          11531 ;	Navigation/navigation.c 91
                          11532 ; genPointerGet
                          11533 ; AOP_STK for _moveInput_sloc1_1_0
   27F6 F8 10             11534 	lda	hl,16(sp)
   27F8 5E                11535 	ld	e,(hl)
   27F9 23                11536 	inc	hl
   27FA 56                11537 	ld	d,(hl)
   27FB 1A                11538 	ld	a,(de)
   27FC 4F                11539 	ld	c,a
                          11540 ; genPlus
                          11541 ; genPlusIncr
   27FD 0C                11542 	inc	c
   27FE 0C                11543 	inc	c
   27FF 0C                11544 	inc	c
   2800 0C                11545 	inc	c
                          11546 ; genIpush
   2801 79                11547 	ld	a,c
   2802 F5                11548 	push	af
   2803 33                11549 	inc	sp
                          11550 ; genCall
   2804 CD DD 29          11551 	call	_onDoor
                          11552 ; AOP_STK for _moveInput_results_2_2
   2807 F8 1A             11553 	lda	hl,26(sp)
   2809 73                11554 	ld	(hl),e
   280A E8 01             11555 	lda	sp,1(sp)
                          11556 ;	Navigation/navigation.c 92
                          11557 ; genAssign (pointer)
                          11558 ; AOP_STK for _moveInput_sloc0_1_0
   280C F8 12             11559 	lda	hl,18(sp)
   280E 5E                11560 	ld	e,(hl)
   280F 23                11561 	inc	hl
   2810 56                11562 	ld	d,(hl)
   2811 3E 01             11563 	ld	a,#0x01
   2813 12                11564 	ld	(de),a
                          11565 ;	Navigation/navigation.c 94
                          11566 ; genGoto
   2814 C3 A0 29          11567 	jp	00123$
                          11568 ;	Navigation/navigation.c 125
                          11569 ; genLabel
   2817                   11570 00122$:
                          11571 ;	Navigation/navigation.c 96
                          11572 ; genCall
   2817 CD F3 2C          11573 	call	_isLookingAtCPU
   281A 4B                11574 	ld	c,e
                          11575 ; genIfx
                          11576 ; Removed redundent or a,a
   281B AF                11577 	xor	a,a
   281C B1                11578 	or	a,c
   281D CA A0 29          11579 	jp	z,00123$
                          11580 ;	Navigation/navigation.c 97
                          11581 ; genCast
                          11582 ; AOP_HL for _currentRoom
                          11583 ; AOP_STK for _moveInput_sloc8_1_0
   2820 21 DE 00          11584 	ld	hl,#_currentRoom + 0
   2823 7E                11585 	ld	a,(hl)
   2824 F8 04             11586 	lda	hl,4(sp)
   2826 22                11587 	ld	(hl+),a
   2827 36 00             11588 	ld	(hl),#0x00
                          11589 ; genRightShift
                          11590 ; AOP_STK for _moveInput_sloc8_1_0
                          11591 ; AOP_STK for _moveInput_sloc7_1_0
                          11592 ; shift right 	result 2, left 2
   2829 2A                11593 	ld	a,(hl+)
   282A 22                11594 	ld	(hl+),a
   282B 36 00             11595 	ld	(hl),#0x00
                          11596 ; genLeftShift
                          11597 ; AOP_STK for _moveInput_sloc7_1_0
   282D 2B                11598 	dec	hl
   282E 2A                11599 	ld	a,(hl+)
   282F 77                11600 	ld	(hl),a
   2830 2B                11601 	dec	hl
   2831 36 00             11602 	ld	(hl),#0x00
                          11603 ; genMinus
                          11604 ; AOP_STK for _moveInput_sloc8_1_0
                          11605 ; AOP_STK for _moveInput_sloc7_1_0
   2833 2B                11606 	dec	hl
   2834 2B                11607 	dec	hl
   2835 5E                11608 	ld	e,(hl)
   2836 23                11609 	inc	hl
   2837 56                11610 	ld	d,(hl)
   2838 23                11611 	inc	hl
   2839 2A                11612 	ld	a,(hl+)
   283A 66                11613 	ld	h,(hl)
   283B 6F                11614 	ld	l,a
   283C 7B                11615 	ld	a,e
   283D 95                11616 	sub	a,l
   283E 5F                11617 	ld	e,a
   283F 7A                11618 	ld	a,d
   2840 9C                11619 	sbc	a,h
   2841 F8 05             11620 	lda	hl,5(sp)
   2843 77                11621 	ld	(hl),a
   2844 2B                11622 	dec	hl
   2845 73                11623 	ld	(hl),e
                          11624 ; genIpush
                          11625 ; AOP_STK for _moveInput_sloc8_1_0
   2846 2A                11626 	ld	a,(hl+)
   2847 66                11627 	ld	h,(hl)
   2848 6F                11628 	ld	l,a
   2849 E5                11629 	push	hl
                          11630 ; genIpush
   284A 21 B8 29          11631 	ld	hl,#__str_57 + 0
   284D E5                11632 	push	hl
                          11633 ; genCall
   284E CD 00 00          11634 	call	_printf
   2851 E8 04             11635 	lda	sp,4(sp)
                          11636 ;	Navigation/navigation.c 98
                          11637 ; genPointerGet
                          11638 ; AOP_STK for _moveInput_sloc3_1_0
                          11639 ; AOP_STK for _moveInput_sloc8_1_0
   2853 F8 0C             11640 	lda	hl,12(sp)
   2855 5E                11641 	ld	e,(hl)
   2856 23                11642 	inc	hl
   2857 56                11643 	ld	d,(hl)
   2858 1A                11644 	ld	a,(de)
   2859 F8 04             11645 	lda	hl,4(sp)
   285B 77                11646 	ld	(hl),a
   285C 13                11647 	inc	de
   285D 1A                11648 	ld	a,(de)
   285E 23                11649 	inc	hl
   285F 77                11650 	ld	(hl),a
                          11651 ; genIpush
                          11652 ; AOP_STK for _moveInput_sloc8_1_0
   2860 2B                11653 	dec	hl
   2861 2A                11654 	ld	a,(hl+)
   2862 66                11655 	ld	h,(hl)
   2863 6F                11656 	ld	l,a
   2864 E5                11657 	push	hl
                          11658 ; genCall
   2865 CD 00 00          11659 	call	_printf
   2868 E8 02             11660 	lda	sp,2(sp)
                          11661 ;	Navigation/navigation.c 99
                          11662 ; genIpush
   286A 3E 10             11663 	ld	a,#0x10
   286C F5                11664 	push	af
   286D 33                11665 	inc	sp
                          11666 ; genCall
   286E CD 00 00          11667 	call	_waitpad
   2871 E8 01             11668 	lda	sp,1(sp)
                          11669 ;	Navigation/navigation.c 100
                          11670 ; genAnd
                          11671 ; AOP_SFR for _LCDC_REG
   2873 F0 00             11672 	ldh	a,(_LCDC_REG+0) ; x
   2875 E6 FD             11673 	and	a,#0xFD
   2877 E0 00             11674 	ldh	(_LCDC_REG+0),a
                          11675 ;	Navigation/navigation.c 101
                          11676 ; genPointerGet
                          11677 ; AOP_STK for _moveInput_sloc4_1_0
   2879 F8 0A             11678 	lda	hl,10(sp)
   287B 5E                11679 	ld	e,(hl)
   287C 23                11680 	inc	hl
   287D 56                11681 	ld	d,(hl)
   287E 1A                11682 	ld	a,(de)
   287F 4F                11683 	ld	c,a
                          11684 ; genIfx
                          11685 ; Removed redundent or a,a
   2880 AF                11686 	xor	a,a
   2881 B1                11687 	or	a,c
   2882 C2 F9 28          11688 	jp	nz,00118$
                          11689 ;	Navigation/navigation.c 102
                          11690 ; genIpush
   2885 3E C8             11691 	ld	a,#0xC8
   2887 F5                11692 	push	af
   2888 33                11693 	inc	sp
                          11694 ; genIpush
   2889 3E C8             11695 	ld	a,#0xC8
   288B F5                11696 	push	af
   288C 33                11697 	inc	sp
                          11698 ; genIpush
   288D 21 D1 00          11699 	ld	hl,#_cpu + 0
   2890 E5                11700 	push	hl
                          11701 ; genCall
   2891 CD 60 2D          11702 	call	_movegamecharacter
   2894 E8 04             11703 	lda	sp,4(sp)
                          11704 ;	Navigation/navigation.c 103
                          11705 ; genIpush
   2896 3E C8             11706 	ld	a,#0xC8
   2898 F5                11707 	push	af
   2899 33                11708 	inc	sp
                          11709 ; genIpush
   289A 3E C8             11710 	ld	a,#0xC8
   289C F5                11711 	push	af
   289D 33                11712 	inc	sp
                          11713 ; genIpush
   289E 21 C1 00          11714 	ld	hl,#_player + 0
   28A1 E5                11715 	push	hl
                          11716 ; genCall
   28A2 CD 60 2D          11717 	call	_movegamecharacter
   28A5 E8 04             11718 	lda	sp,4(sp)
                          11719 ;	Navigation/navigation.c 104
                          11720 ; genCall
   28A7 CD 80 24          11721 	call	_selectMonsters
                          11722 ;	Navigation/navigation.c 105
                          11723 ; genCall
   28AA CD A7 24          11724 	call	_setNavi
                          11725 ;	Navigation/navigation.c 110
                          11726 ; genIpush
   28AD 3E 0C             11727 	ld	a,#0x0C
   28AF F5                11728 	push	af
   28B0 33                11729 	inc	sp
                          11730 ; genIpush
                          11731 ; AOP_HL for _currentRoom
   28B1 21 DE 00          11732 	ld	hl,#_currentRoom + 0
   28B4 7E                11733 	ld	a,(hl)
   28B5 F5                11734 	push	af
   28B6 33                11735 	inc	sp
                          11736 ; genCall
   28B7 CD 00 00          11737 	call	__muluchar
   28BA 4B                11738 	ld	c,e
   28BB E8 02             11739 	lda	sp,2(sp)
                          11740 ; genPlus
                          11741 ; AOP_STK for _moveInput_sloc8_1_0
                          11742 ;	genPlusIncr failed
   28BD 11 AF 13          11743 	ld	de,#_CPU_info + 0
   28C0 69                11744 	ld	l,c
   28C1 26 00             11745 	ld	h,#0x00
   28C3 19                11746 	add	hl,de
   28C4 7D                11747 	ld	a,l
   28C5 54                11748 	ld	d,h
   28C6 F8 04             11749 	lda	hl,4(sp)
   28C8 22                11750 	ld	(hl+),a
   28C9 72                11751 	ld	(hl),d
                          11752 ; genPlus
                          11753 ; AOP_STK for _moveInput_sloc8_1_0
                          11754 ; genPlusIncr
                          11755 ;	genPlusIncr failed
   28CA 2B                11756 	dec	hl
   28CB 5E                11757 	ld	e,(hl)
   28CC 23                11758 	inc	hl
   28CD 56                11759 	ld	d,(hl)
   28CE 21 05 00          11760 	ld	hl,#0x0005
   28D1 19                11761 	add	hl,de
   28D2 5D                11762 	ld	e,l
   28D3 54                11763 	ld	d,h
                          11764 ; genPointerGet
                          11765 ; AOP_STK for _moveInput_sloc7_1_0
   28D4 1A                11766 	ld	a,(de)
   28D5 F8 06             11767 	lda	hl,6(sp)
   28D7 77                11768 	ld	(hl),a
                          11769 ; genPlus
                          11770 ; AOP_STK for _moveInput_sloc8_1_0
                          11771 ; genPlusIncr
                          11772 ;	genPlusIncr failed
   28D8 2B                11773 	dec	hl
   28D9 2B                11774 	dec	hl
   28DA 5E                11775 	ld	e,(hl)
   28DB 23                11776 	inc	hl
   28DC 56                11777 	ld	d,(hl)
   28DD 21 04 00          11778 	ld	hl,#0x0004
   28E0 19                11779 	add	hl,de
   28E1 5D                11780 	ld	e,l
   28E2 54                11781 	ld	d,h
                          11782 ; genPointerGet
   28E3 1A                11783 	ld	a,(de)
   28E4 4F                11784 	ld	c,a
                          11785 ; genIpush
                          11786 ; AOP_STK for _moveInput_sloc7_1_0
   28E5 F8 06             11787 	lda	hl,6(sp)
   28E7 7E                11788 	ld	a,(hl)
   28E8 F5                11789 	push	af
   28E9 33                11790 	inc	sp
                          11791 ; genIpush
   28EA 79                11792 	ld	a,c
   28EB F5                11793 	push	af
   28EC 33                11794 	inc	sp
                          11795 ; genIpush
   28ED 21 D1 00          11796 	ld	hl,#_cpu + 0
   28F0 E5                11797 	push	hl
                          11798 ; genCall
   28F1 CD 60 2D          11799 	call	_movegamecharacter
   28F4 E8 04             11800 	lda	sp,4(sp)
                          11801 ; genGoto
   28F6 C3 A0 29          11802 	jp	00123$
                          11803 ; genLabel
   28F9                   11804 00118$:
                          11805 ;	Navigation/navigation.c 118
                          11806 ; genCast
                          11807 ; AOP_HL for _currentRoom
                          11808 ; AOP_STK for _moveInput_sloc8_1_0
   28F9 21 DE 00          11809 	ld	hl,#_currentRoom + 0
   28FC 7E                11810 	ld	a,(hl)
   28FD F8 04             11811 	lda	hl,4(sp)
   28FF 77                11812 	ld	(hl),a
   2900 21 DE 00          11813 	ld	hl,#_currentRoom + 0
   2903 7E                11814 	ld	a,(hl)
                          11815 ; genCast: sign extend untested.
   2904 17                11816 	rla	
   2905 9F                11817 	sbc	a,a
   2906 F8 05             11818 	lda	hl,5(sp)
   2908 77                11819 	ld	(hl),a
                          11820 ; genIpush
                          11821 ; AOP_STK for _moveInput_sloc8_1_0
   2909 2B                11822 	dec	hl
   290A 2A                11823 	ld	a,(hl+)
   290B 66                11824 	ld	h,(hl)
   290C 6F                11825 	ld	l,a
   290D E5                11826 	push	hl
                          11827 ; genCall
   290E CD F9 0A          11828 	call	_getCPUMonsterTeam
                          11829 ; AOP_STK for _moveInput_team_5_10
   2911 F8 18             11830 	lda	hl,24(sp)
   2913 72                11831 	ld	(hl),d
   2914 2B                11832 	dec	hl
   2915 73                11833 	ld	(hl),e
   2916 E8 02             11834 	lda	sp,2(sp)
                          11835 ;	Navigation/navigation.c 119
                          11836 ; genAssign
                          11837 ; AOP_STK for _moveInput_i_5_10
   2918 23                11838 	inc	hl
   2919 23                11839 	inc	hl
   291A 36 00             11840 	ld	(hl),#0x00
   291C 23                11841 	inc	hl
   291D 36 00             11842 	ld	(hl),#0x00
                          11843 ; genLabel
   291F                   11844 00129$:
                          11845 ; genCmpLt
                          11846 ; AOP_STK for _moveInput_i_5_10
                          11847 ; AOP_STK for _moveInput_sloc8_1_0
   291F F8 17             11848 	lda	hl,23(sp)
   2921 5E                11849 	ld	e,(hl)
   2922 23                11850 	inc	hl
   2923 7E                11851 	ld	a,(hl)
   2924 EE 80             11852 	xor	a,#0x80
   2926 57                11853 	ld	d,a
   2927 21 FA 7F          11854 	ld	hl,#0x7FFA
   292A 19                11855 	add	hl,de
   292B 3E 00             11856 	ld	a,#0x00
   292D 17                11857 	rla
   292E EE 01             11858 	xor	a,#0x01
   2930 F8 04             11859 	lda	hl,4(sp)
   2932 77                11860 	ld	(hl),a
                          11861 ; genIfx
                          11862 ; AOP_STK for _moveInput_sloc8_1_0
                          11863 ; Removed redundent or a,a
   2933 AF                11864 	xor	a,a
   2934 B6                11865 	or	a,(hl)
   2935 CA A0 29          11866 	jp	z,00123$
                          11867 ;	Navigation/navigation.c 120
                          11868 ; genPlus
                          11869 ; AOP_STK for _moveInput_team_5_10
                          11870 ; AOP_STK for _moveInput_i_5_10
                          11871 ;	genPlusIncr failed
   2938 F8 15             11872 	lda	hl,21(sp)
   293A 5E                11873 	ld	e,(hl)
   293B 23                11874 	inc	hl
   293C 56                11875 	ld	d,(hl)
   293D 23                11876 	inc	hl
   293E 2A                11877 	ld	a,(hl+)
   293F 66                11878 	ld	h,(hl)
   2940 6F                11879 	ld	l,a
   2941 19                11880 	add	hl,de
   2942 5D                11881 	ld	e,l
   2943 54                11882 	ld	d,h
                          11883 ; genPointerGet
                          11884 ; AOP_STK for _moveInput_monster_index_6_11
   2944 1A                11885 	ld	a,(de)
   2945 F8 14             11886 	lda	hl,20(sp)
   2947 77                11887 	ld	(hl),a
                          11888 ; genAssign
                          11889 ; AOP_STK for _moveInput_monster_index_6_11
                          11890 ; (registers are the same)
                          11891 ;	Navigation/navigation.c 121
                          11892 ; genIpush
   2948 3E 25             11893 	ld	a,#0x25
   294A F5                11894 	push	af
   294B 33                11895 	inc	sp
                          11896 ; genIpush
                          11897 ; AOP_STK for _moveInput_monster_index_6_11
   294C 7E                11898 	ld	a,(hl)
   294D F5                11899 	push	af
   294E 33                11900 	inc	sp
                          11901 ; genCall
   294F CD 00 00          11902 	call	__mulschar
                          11903 ; AOP_STK for _moveInput_sloc6_1_0
   2952 F8 0A             11904 	lda	hl,10(sp)
   2954 73                11905 	ld	(hl),e
   2955 E8 02             11906 	lda	sp,2(sp)
                          11907 ; genPlus
                          11908 ; AOP_STK for _moveInput_sloc6_1_0
                          11909 ; AOP_STK for _moveInput_sloc7_1_0
                          11910 ;	genPlusIncr failed
   2957 11 FB 14          11911 	ld	de,#_monsters + 0
   295A 6E                11912 	ld	l,(hl)
   295B 26 00             11913 	ld	h,#0x00
   295D 19                11914 	add	hl,de
   295E 7D                11915 	ld	a,l
   295F 54                11916 	ld	d,h
   2960 F8 06             11917 	lda	hl,6(sp)
   2962 22                11918 	ld	(hl+),a
   2963 72                11919 	ld	(hl),d
                          11920 ; genPlus
                          11921 ; AOP_STK for _moveInput_sloc7_1_0
                          11922 ; AOP_STK for _moveInput_sloc9_1_0
                          11923 ; genPlusIncr
                          11924 ;	genPlusIncr failed
   2964 2B                11925 	dec	hl
   2965 5E                11926 	ld	e,(hl)
   2966 23                11927 	inc	hl
   2967 56                11928 	ld	d,(hl)
   2968 21 01 00          11929 	ld	hl,#0x0001
   296B 19                11930 	add	hl,de
   296C 7D                11931 	ld	a,l
   296D 54                11932 	ld	d,h
   296E F8 02             11933 	lda	hl,2(sp)
   2970 22                11934 	ld	(hl+),a
   2971 72                11935 	ld	(hl),d
                          11936 ; genPlus
                          11937 ; AOP_STK for _moveInput_i_5_10
                          11938 ; AOP_STK for _moveInput_sloc10_1_0
                          11939 ; genPlusIncr
                          11940 ;	genPlusIncr failed
   2972 F8 17             11941 	lda	hl,23(sp)
   2974 5E                11942 	ld	e,(hl)
   2975 23                11943 	inc	hl
   2976 56                11944 	ld	d,(hl)
   2977 21 01 00          11945 	ld	hl,#0x0001
   297A 19                11946 	add	hl,de
   297B 7D                11947 	ld	a,l
   297C 54                11948 	ld	d,h
   297D F8 00             11949 	lda	hl,0(sp)
   297F 22                11950 	ld	(hl+),a
   2980 72                11951 	ld	(hl),d
                          11952 ; genIpush
                          11953 ; AOP_STK for _moveInput_sloc9_1_0
   2981 23                11954 	inc	hl
   2982 2A                11955 	ld	a,(hl+)
   2983 66                11956 	ld	h,(hl)
   2984 6F                11957 	ld	l,a
   2985 E5                11958 	push	hl
                          11959 ; genIpush
                          11960 ; AOP_STK for _moveInput_sloc10_1_0
   2986 F8 02             11961 	lda	hl,2(sp)
   2988 2A                11962 	ld	a,(hl+)
   2989 66                11963 	ld	h,(hl)
   298A 6F                11964 	ld	l,a
   298B E5                11965 	push	hl
                          11966 ; genIpush
   298C 21 CC 29          11967 	ld	hl,#__str_58 + 0
   298F E5                11968 	push	hl
                          11969 ; genCall
   2990 CD 00 00          11970 	call	_printf
   2993 E8 06             11971 	lda	sp,6(sp)
                          11972 ;	Navigation/navigation.c 119
                          11973 ; genAssign
                          11974 ; AOP_STK for _moveInput_sloc10_1_0
                          11975 ; AOP_STK for _moveInput_i_5_10
   2995 F8 00             11976 	lda	hl,0(sp)
   2997 2A                11977 	ld	a,(hl+)
   2998 5E                11978 	ld	e,(hl)
   2999 F8 17             11979 	lda	hl,23(sp)
   299B 22                11980 	ld	(hl+),a
   299C 73                11981 	ld	(hl),e
                          11982 ; genGoto
   299D C3 1F 29          11983 	jp	00129$
                          11984 ;	Navigation/navigation.c 126
                          11985 ; genLabel
   29A0                   11986 00123$:
                          11987 ;	Navigation/navigation.c 128
                          11988 ; genIfx
                          11989 ; AOP_STK for _moveInput_results_2_2
   29A0 AF                11990 	xor	a,a
   29A1 F8 19             11991 	lda	hl,25(sp)
   29A3 B6                11992 	or	a,(hl)
   29A4 B7                11993 	or	a,a
   29A5 C2 B4 29          11994 	jp	nz,00133$
                          11995 ;	Navigation/navigation.c 131
                          11996 ; genIpush
   29A8 3E 06             11997 	ld	a,#0x06
   29AA F5                11998 	push	af
   29AB 33                11999 	inc	sp
                          12000 ; genCall
   29AC CD DD 2F          12001 	call	_performantdelay
   29AF E8 01             12002 	lda	sp,1(sp)
                          12003 ; genGoto
   29B1 C3 03 26          12004 	jp	00127$
                          12005 ; genLabel
   29B4                   12006 00133$:
                          12007 ; genEndFunction
   29B4 E8 1A             12008 	lda	sp,26(sp)
   29B6 C1                12009 	pop	bc
   29B7 C9                12010 	ret
   29B8                   12011 ___moveInput_end:
   29B8                   12012 __str_57:
   29B8 48 65 6C 6C 6F 2C 12013 	.ascii "Hello, I'M CPU: %d"
        20 49 27 4D 20 43
        50 55 3A 20 25 64
   29CA 0A                12014 	.db 0x0A
   29CB 00                12015 	.db 0x00
   29CC                   12016 __str_58:
   29CC 0A                12017 	.db 0x0A
   29CD 4D 6F 6E 73 74 65 12018 	.ascii "Monster %d: %s"
        72 20 25 64 3A 20
        25 73
   29DB 0A                12019 	.db 0x0A
   29DC 00                12020 	.db 0x00
                          12021 ;	Navigation/navigation.c 145
                          12022 ; genLabel
                          12023 ; genFunction
                          12024 ;	---------------------------------
                          12025 ; Function onDoor
                          12026 ; ---------------------------------
   29DD                   12027 ___onDoor_start:
   29DD                   12028 _onDoor:
   29DD C5                12029 	push	bc
   29DE E8 F5             12030 	lda	sp,-11(sp)
                          12031 ;	Navigation/navigation.c 146
                          12032 ; genPlus
                          12033 ; genPlusIncr
   29E0 11 C5 00          12034 	ld	de,#_player + 0 + 4
                          12035 ; genPointerGet
   29E3 1A                12036 	ld	a,(de)
   29E4 4F                12037 	ld	c,a
                          12038 ; genIpush
                          12039 ; AOP_STK for 
   29E5 F8 0F             12040 	lda	hl,15(sp)
   29E7 7E                12041 	ld	a,(hl)
   29E8 F5                12042 	push	af
   29E9 33                12043 	inc	sp
                          12044 ; genIpush
   29EA 79                12045 	ld	a,c
   29EB F5                12046 	push	af
   29EC 33                12047 	inc	sp
                          12048 ; genCall
   29ED CD 20 2F          12049 	call	_convertTileIndex
                          12050 ; AOP_STK for _onDoor_tile_1_1
   29F0 F8 0C             12051 	lda	hl,12(sp)
   29F2 72                12052 	ld	(hl),d
   29F3 2B                12053 	dec	hl
   29F4 73                12054 	ld	(hl),e
   29F5 E8 02             12055 	lda	sp,2(sp)
                          12056 ;	Navigation/navigation.c 147
                          12057 ; genCast
                          12058 ; Removed redundent load
   29F7 06 00             12059 	ld	b,#0x00
                          12060 ; genPlus
                          12061 ; genPlusIncr
                          12062 ;	genPlusIncr failed
   29F9 79                12063 	ld	a,c
   29FA C6 10             12064 	add	a,#0x10
   29FC 4F                12065 	ld	c,a
   29FD 78                12066 	ld	a,b
   29FE CE 00             12067 	adc	a,#0x00
   2A00 47                12068 	ld	b,a
                          12069 ; genCast
                          12070 ; Removed redundent load
                          12071 ; genIpush
                          12072 ; AOP_STK for 
   2A01 F8 0F             12073 	lda	hl,15(sp)
   2A03 7E                12074 	ld	a,(hl)
   2A04 F5                12075 	push	af
   2A05 33                12076 	inc	sp
                          12077 ; genIpush
   2A06 79                12078 	ld	a,c
   2A07 F5                12079 	push	af
   2A08 33                12080 	inc	sp
                          12081 ; genCall
   2A09 CD 20 2F          12082 	call	_convertTileIndex
                          12083 ; AOP_STK for _onDoor_tile2_1_1
   2A0C F8 0A             12084 	lda	hl,10(sp)
   2A0E 72                12085 	ld	(hl),d
   2A0F 2B                12086 	dec	hl
   2A10 73                12087 	ld	(hl),e
   2A11 E8 02             12088 	lda	sp,2(sp)
                          12089 ;	Navigation/navigation.c 149
                          12090 ; genIpush
   2A13 3E 07             12091 	ld	a,#0x07
   2A15 F5                12092 	push	af
   2A16 33                12093 	inc	sp
                          12094 ; genIpush
                          12095 ; AOP_HL for _roomType
   2A17 21 DD 00          12096 	ld	hl,#_roomType + 0
   2A1A 7E                12097 	ld	a,(hl)
   2A1B F5                12098 	push	af
   2A1C 33                12099 	inc	sp
                          12100 ; genCall
   2A1D CD 00 00          12101 	call	__muluchar
   2A20 4B                12102 	ld	c,e
   2A21 E8 02             12103 	lda	sp,2(sp)
                          12104 ; genPlus
                          12105 ; AOP_STK for _onDoor_sloc0_1_0
                          12106 ;	genPlusIncr failed
   2A23 11 A5 12          12107 	ld	de,#_rooms + 0
   2A26 69                12108 	ld	l,c
   2A27 26 00             12109 	ld	h,#0x00
   2A29 19                12110 	add	hl,de
   2A2A 7D                12111 	ld	a,l
   2A2B 54                12112 	ld	d,h
   2A2C F8 05             12113 	lda	hl,5(sp)
   2A2E 22                12114 	ld	(hl+),a
   2A2F 72                12115 	ld	(hl),d
                          12116 ; genPlus
                          12117 ; AOP_STK for _onDoor_sloc0_1_0
                          12118 ; genPlusIncr
   2A30 2B                12119 	dec	hl
   2A31 5E                12120 	ld	e,(hl)
   2A32 23                12121 	inc	hl
   2A33 56                12122 	ld	d,(hl)
   2A34 13                12123 	inc	de
   2A35 13                12124 	inc	de
                          12125 ; genPointerGet
                          12126 ; AOP_STK for _onDoor_sloc1_1_0
                          12127 ; Removed redundent load
                          12128 ; Removed redundent load
   2A36 1A                12129 	ld	a,(de)
   2A37 F8 03             12130 	lda	hl,3(sp)
   2A39 77                12131 	ld	(hl),a
   2A3A 13                12132 	inc	de
   2A3B 1A                12133 	ld	a,(de)
   2A3C 23                12134 	inc	hl
   2A3D 77                12135 	ld	(hl),a
                          12136 ; genPlus
                          12137 ; AOP_STK for _onDoor_sloc1_1_0
                          12138 ; AOP_STK for _onDoor_tile_1_1
                          12139 ;	genPlusIncr failed
   2A3E 2B                12140 	dec	hl
   2A3F 5E                12141 	ld	e,(hl)
   2A40 23                12142 	inc	hl
   2A41 56                12143 	ld	d,(hl)
   2A42 F8 09             12144 	lda	hl,9(sp)
   2A44 2A                12145 	ld	a,(hl+)
   2A45 66                12146 	ld	h,(hl)
   2A46 6F                12147 	ld	l,a
   2A47 19                12148 	add	hl,de
   2A48 5D                12149 	ld	e,l
   2A49 54                12150 	ld	d,h
                          12151 ; genPointerGet
                          12152 ; AOP_STK for _onDoor_sloc2_1_0
   2A4A 1A                12153 	ld	a,(de)
   2A4B F8 02             12154 	lda	hl,2(sp)
   2A4D 77                12155 	ld	(hl),a
                          12156 ; genPlus
                          12157 ; AOP_STK for _onDoor_sloc0_1_0
                          12158 ; genPlusIncr
                          12159 ;	genPlusIncr failed
   2A4E F8 05             12160 	lda	hl,5(sp)
   2A50 5E                12161 	ld	e,(hl)
   2A51 23                12162 	inc	hl
   2A52 56                12163 	ld	d,(hl)
   2A53 21 05 00          12164 	ld	hl,#0x0005
   2A56 19                12165 	add	hl,de
   2A57 5D                12166 	ld	e,l
   2A58 54                12167 	ld	d,h
                          12168 ; genPointerGet
                          12169 ; AOP_STK for _onDoor_sloc4_1_0
   2A59 1A                12170 	ld	a,(de)
   2A5A F8 00             12171 	lda	hl,0(sp)
   2A5C 77                12172 	ld	(hl),a
                          12173 ; genCmpEq
                          12174 ; AOP_STK for _onDoor_sloc2_1_0
                          12175 ; AOP_STK for _onDoor_sloc4_1_0
                          12176 ; AOP_STK for _onDoor_sloc3_1_0
   2A5D 2A                12177 	ld	a,(hl+)
   2A5E 23                12178 	inc	hl
   2A5F BE                12179 	cp	(hl) ; 5
   2A60 20 04             12180 	jr	nz,00106$
   2A62 3E 01             12181 	ld	a,#0x01
   2A64 18 01             12182 	jr	00107$
   2A66                   12183 00106$:
   2A66 AF                12184 	xor	a,a
   2A67                   12185 00107$:
   2A67 F8 01             12186 	lda	hl,1(sp)
   2A69 77                12187 	ld	(hl),a
                          12188 ; genPlus
                          12189 ; AOP_STK for _onDoor_sloc0_1_0
                          12190 ; genPlusIncr
                          12191 ;	genPlusIncr failed
   2A6A F8 05             12192 	lda	hl,5(sp)
   2A6C 5E                12193 	ld	e,(hl)
   2A6D 23                12194 	inc	hl
   2A6E 56                12195 	ld	d,(hl)
   2A6F 21 06 00          12196 	ld	hl,#0x0006
   2A72 19                12197 	add	hl,de
   2A73 5D                12198 	ld	e,l
   2A74 54                12199 	ld	d,h
                          12200 ; genPointerGet
                          12201 ; AOP_STK for _onDoor_sloc0_1_0
   2A75 1A                12202 	ld	a,(de)
   2A76 F8 05             12203 	lda	hl,5(sp)
   2A78 77                12204 	ld	(hl),a
                          12205 ; genCmpEq
                          12206 ; AOP_STK for _onDoor_sloc2_1_0
                          12207 ; AOP_STK for _onDoor_sloc0_1_0
   2A79 7E                12208 	ld	a,(hl)
   2A7A F8 02             12209 	lda	hl,2(sp)
   2A7C BE                12210 	cp	(hl) ; 5
   2A7D 20 04             12211 	jr	nz,00108$
   2A7F 3E 01             12212 	ld	a,#0x01
   2A81 18 01             12213 	jr	00109$
   2A83                   12214 00108$:
   2A83 AF                12215 	xor	a,a
   2A84                   12216 00109$:
   2A84 F8 02             12217 	lda	hl,2(sp)
   2A86 77                12218 	ld	(hl),a
                          12219 ; genOrOp
                          12220 ; AOP_STK for _onDoor_sloc3_1_0
                          12221 ; AOP_STK for _onDoor_sloc2_1_0
   2A87 AF                12222 	xor	a,a
   2A88 2B                12223 	dec	hl
   2A89 B6                12224 	or	a,(hl)
   2A8A 20 03             12225 	jr	nz,00110$
   2A8C AF                12226 	xor	a,a
   2A8D 23                12227 	inc	hl
   2A8E B6                12228 	or	a,(hl)
   2A8F                   12229 00110$:
   2A8F 28 02             12230 	jr	z,00111$
   2A91 3E 01             12231 	ld	a,#0x01
   2A93                   12232 00111$:
   2A93 F8 01             12233 	lda	hl,1(sp)
                          12234 ; genPlus
                          12235 ; AOP_STK for _onDoor_sloc1_1_0
                          12236 ; AOP_STK for _onDoor_tile2_1_1
                          12237 ;	genPlusIncr failed
   2A95 22                12238 	ld	(hl+),a
   2A96 23                12239 	inc	hl
   2A97 5E                12240 	ld	e,(hl)
   2A98 23                12241 	inc	hl
   2A99 56                12242 	ld	d,(hl)
   2A9A F8 07             12243 	lda	hl,7(sp)
   2A9C 2A                12244 	ld	a,(hl+)
   2A9D 66                12245 	ld	h,(hl)
   2A9E 6F                12246 	ld	l,a
   2A9F 19                12247 	add	hl,de
   2AA0 5D                12248 	ld	e,l
   2AA1 54                12249 	ld	d,h
                          12250 ; genPointerGet
                          12251 ; AOP_STK for _onDoor_sloc2_1_0
   2AA2 1A                12252 	ld	a,(de)
   2AA3 F8 02             12253 	lda	hl,2(sp)
   2AA5 77                12254 	ld	(hl),a
                          12255 ; genCmpEq
                          12256 ; AOP_STK for _onDoor_sloc2_1_0
                          12257 ; AOP_STK for _onDoor_sloc4_1_0
   2AA6 2B                12258 	dec	hl
   2AA7 2B                12259 	dec	hl
   2AA8 2A                12260 	ld	a,(hl+)
   2AA9 23                12261 	inc	hl
   2AAA BE                12262 	cp	(hl) ; 5
   2AAB 20 04             12263 	jr	nz,00112$
   2AAD 3E 01             12264 	ld	a,#0x01
   2AAF 18 01             12265 	jr	00113$
   2AB1                   12266 00112$:
   2AB1 AF                12267 	xor	a,a
   2AB2                   12268 00113$:
   2AB2 F8 00             12269 	lda	hl,0(sp)
   2AB4 77                12270 	ld	(hl),a
                          12271 ; genOrOp
                          12272 ; AOP_STK for _onDoor_sloc3_1_0
                          12273 ; AOP_STK for _onDoor_sloc4_1_0
   2AB5 AF                12274 	xor	a,a
   2AB6 23                12275 	inc	hl
   2AB7 B6                12276 	or	a,(hl)
   2AB8 20 03             12277 	jr	nz,00114$
   2ABA AF                12278 	xor	a,a
   2ABB 2B                12279 	dec	hl
   2ABC B6                12280 	or	a,(hl)
   2ABD                   12281 00114$:
   2ABD 28 02             12282 	jr	z,00115$
   2ABF 3E 01             12283 	ld	a,#0x01
   2AC1                   12284 00115$:
   2AC1 F8 00             12285 	lda	hl,0(sp)
   2AC3 77                12286 	ld	(hl),a
                          12287 ; genCmpEq
                          12288 ; AOP_STK for _onDoor_sloc2_1_0
                          12289 ; AOP_STK for _onDoor_sloc0_1_0
   2AC4 F8 05             12290 	lda	hl,5(sp)
   2AC6 7E                12291 	ld	a,(hl)
   2AC7 F8 02             12292 	lda	hl,2(sp)
   2AC9 BE                12293 	cp	(hl) ; 5
   2ACA 20 04             12294 	jr	nz,00116$
   2ACC 3E 01             12295 	ld	a,#0x01
   2ACE 18 01             12296 	jr	00117$
   2AD0                   12297 00116$:
   2AD0 AF                12298 	xor	a,a
   2AD1                   12299 00117$:
   2AD1 4F                12300 	ld	c,a
                          12301 ; genOrOp
                          12302 ; AOP_STK for _onDoor_sloc4_1_0
   2AD2 AF                12303 	xor	a,a
   2AD3 F8 00             12304 	lda	hl,0(sp)
   2AD5 B6                12305 	or	a,(hl)
   2AD6 20 02             12306 	jr	nz,00118$
   2AD8 AF                12307 	xor	a,a
   2AD9 B1                12308 	or	a,c
   2ADA                   12309 00118$:
   2ADA 28 02             12310 	jr	z,00119$
   2ADC 3E 01             12311 	ld	a,#0x01
   2ADE                   12312 00119$:
   2ADE 4F                12313 	ld	c,a
                          12314 ;	Navigation/navigation.c 156
                          12315 ; genIfx
                          12316 ; Removed redundent or a,a
   2ADF AF                12317 	xor	a,a
   2AE0 B1                12318 	or	a,c
   2AE1 CA F0 2A          12319 	jp	z,00102$
                          12320 ;	Navigation/navigation.c 157
                          12321 ; genCall
   2AE4 CD D3 0A          12322 	call	_playDoorSound
                          12323 ;	Navigation/navigation.c 158
                          12324 ; genIpush
   2AE7 21 2C 01          12325 	ld	hl,#0x012C
   2AEA E5                12326 	push	hl
                          12327 ; genCall
   2AEB CD 00 00          12328 	call	_delay
   2AEE E8 02             12329 	lda	sp,2(sp)
                          12330 ; genLabel
   2AF0                   12331 00102$:
                          12332 ;	Navigation/navigation.c 162
                          12333 ; genRet
   2AF0 59                12334 	ld	e,c
                          12335 ; genLabel
   2AF1                   12336 00103$:
                          12337 ; genEndFunction
   2AF1 E8 0B             12338 	lda	sp,11(sp)
   2AF3 C1                12339 	pop	bc
   2AF4 C9                12340 	ret
   2AF5                   12341 ___onDoor_end:
                          12342 ;	Navigation/navigation.c 167
                          12343 ; genLabel
                          12344 ; genFunction
                          12345 ;	---------------------------------
                          12346 ; Function Navigation
                          12347 ; ---------------------------------
   2AF5                   12348 ___Navigation_start:
   2AF5                   12349 _Navigation:
   2AF5 C5                12350 	push	bc
   2AF6 E8 FF             12351 	lda	sp,-1(sp)
                          12352 ;	Navigation/navigation.c 169
                          12353 ; genLabel
   2AF8                   12354 00106$:
                          12355 ;	Navigation/navigation.c 170
                          12356 ; genCall
   2AF8 CD 91 25          12357 	call	_NavgateCurrentRoom
                          12358 ;	Navigation/navigation.c 171
                          12359 ; genCmpEq
                          12360 ; AOP_HL for _roomType
   2AFB 21 DD 00          12361 	ld	hl,#_roomType + 0
   2AFE 7E                12362 	ld	a,(hl)
   2AFF B7                12363 	or	a,a
                          12364 ; Rule 5
   2B00 CA 18 2B          12365 	jp	z,00101$
   2B03                   12366 00126$:
                          12367 ; genCmpEq
                          12368 ; AOP_HL for _roomType
   2B03 21 DD 00          12369 	ld	hl,#_roomType + 0
   2B06 7E                12370 	ld	a,(hl) ; 2
   2B07 FE 01             12371 	cp	a,#0x01
                          12372 ; Rule 5
   2B09 CA 29 2B          12373 	jp	z,00102$
   2B0C                   12374 00127$:
                          12375 ; genCmpEq
                          12376 ; AOP_HL for _roomType
   2B0C 21 DD 00          12377 	ld	hl,#_roomType + 0
   2B0F 7E                12378 	ld	a,(hl) ; 2
   2B10 FE 02             12379 	cp	a,#0x02
                          12380 ; Rule 5
   2B12 CA 9C 2B          12381 	jp	z,00103$
   2B15                   12382 00128$:
                          12383 ; genGoto
   2B15 C3 A8 2B          12384 	jp	00104$
                          12385 ;	Navigation/navigation.c 173
                          12386 ; genLabel
   2B18                   12387 00101$:
                          12388 ; genAssign
                          12389 ; AOP_STK for _Navigation_Y_Location_1_1
   2B18 F8 00             12390 	lda	hl,0(sp)
   2B1A 36 78             12391 	ld	(hl),#0x78
                          12392 ;	Navigation/navigation.c 174
                          12393 ; genAssign
                          12394 ; AOP_HL for _roomType
   2B1C 21 DD 00          12395 	ld	hl,#_roomType + 0
   2B1F 36 01             12396 	ld	(hl),#0x01
                          12397 ;	Navigation/navigation.c 175
                          12398 ; genAssign
                          12399 ; AOP_HL for _currentRoom
   2B21 21 DE 00          12400 	ld	hl,#_currentRoom + 0
   2B24 36 01             12401 	ld	(hl),#0x01
                          12402 ;	Navigation/navigation.c 176
                          12403 ; genGoto
   2B26 C3 A8 2B          12404 	jp	00104$
                          12405 ;	Navigation/navigation.c 178
                          12406 ; genLabel
   2B29                   12407 00102$:
                          12408 ; genPlus
                          12409 ; genPlusIncr
   2B29 11 C7 00          12410 	ld	de,#_player + 0 + 6
                          12411 ; genPointerGet
                          12412 ; Removed redundent load
                          12413 ; Removed redundent load
   2B2C 1A                12414 	ld	a,(de)
   2B2D 47                12415 	ld	b,a
   2B2E 13                12416 	inc	de
   2B2F 1A                12417 	ld	a,(de)
   2B30 4F                12418 	ld	c,a
                          12419 ; genCmpGt
   2B31 58                12420 	ld	e,b
   2B32 51                12421 	ld	d,c
   2B33 21 B0 FF          12422 	ld	hl,#0xFFB0
   2B36 19                12423 	add	hl,de
   2B37 D2 3F 2B          12424 	jp	nc,00110$
                          12425 ; genAssign
   2B3A 0E 32             12426 	ld	c,#0x32
                          12427 ; genGoto
   2B3C C3 41 2B          12428 	jp	00111$
                          12429 ; genLabel
   2B3F                   12430 00110$:
                          12431 ; genAssign
   2B3F 0E 78             12432 	ld	c,#0x78
                          12433 ; genLabel
   2B41                   12434 00111$:
                          12435 ; genAssign
                          12436 ; AOP_STK for _Navigation_Y_Location_1_1
   2B41 F8 00             12437 	lda	hl,0(sp)
   2B43 71                12438 	ld	(hl),c
                          12439 ;	Navigation/navigation.c 179
                          12440 ; genCmpEq
                          12441 ; AOP_STK for _Navigation_Y_Location_1_1
   2B44 7E                12442 	ld	a,(hl) ; 2
   2B45 FE 78             12443 	cp	a,#0x78
   2B47 C2 4C 2B          12444 	jp	nz,00129$
   2B4A 18 03             12445 	jr	00130$
   2B4C                   12446 00129$:
   2B4C C3 54 2B          12447 	jp	00112$
   2B4F                   12448 00130$:
                          12449 ; genAssign
   2B4F 0E 01             12450 	ld	c,#0x01
                          12451 ; genGoto
   2B51 C3 56 2B          12452 	jp	00113$
                          12453 ; genLabel
   2B54                   12454 00112$:
                          12455 ; genAssign
   2B54 0E FF             12456 	ld	c,#0xFF
                          12457 ; genLabel
   2B56                   12458 00113$:
                          12459 ; genPlus
                          12460 ; AOP_HL for _currentRoom
                          12461 ;	genPlusIncr failed
   2B56 21 DE 00          12462 	ld	hl,#_currentRoom + 0
   2B59 7E                12463 	ld	a,(hl)
   2B5A 81                12464 	add	a,c
   2B5B 77                12465 	ld	(hl),a
                          12466 ;	Navigation/navigation.c 180
                          12467 ; genCast
                          12468 ; AOP_HL for _currentRoom
   2B5C 4E                12469 	ld	c,(hl)
   2B5D 06 00             12470 	ld	b,#0x00
                          12471 ; genCmpEq
   2B5F 79                12472 	ld	a,c ; 2
   2B60 FE 03             12473 	cp	a,#0x03
   2B62 C2 6C 2B          12474 	jp	nz,00131$
   2B65 78                12475 	ld	a,b ; 2
                          12476 ; Rule 3
   2B66 B7                12477 	or	a,a
   2B67 C2 6C 2B          12478 	jp	nz,00131$
   2B6A 18 03             12479 	jr	00132$
   2B6C                   12480 00131$:
   2B6C C3 79 2B          12481 	jp	00114$
   2B6F                   12482 00132$:
                          12483 ; genPlus
                          12484 ; AOP_HL for _roomType
                          12485 ; genPlusIncr
                          12486 ;	genPlusIncr failed
   2B6F 21 DD 00          12487 	ld	hl,#_roomType + 0
   2B72 7E                12488 	ld	a,(hl)
   2B73 C6 01             12489 	add	a,#0x01
   2B75 4F                12490 	ld	c,a
                          12491 ; genGoto
   2B76 C3 95 2B          12492 	jp	00115$
                          12493 ; genLabel
   2B79                   12494 00114$:
                          12495 ; genCmpEq
                          12496 ; AOP_HL for _currentRoom
   2B79 21 DE 00          12497 	ld	hl,#_currentRoom + 0
   2B7C 7E                12498 	ld	a,(hl)
   2B7D B7                12499 	or	a,a
   2B7E C2 83 2B          12500 	jp	nz,00133$
   2B81 18 03             12501 	jr	00134$
   2B83                   12502 00133$:
   2B83 C3 90 2B          12503 	jp	00116$
   2B86                   12504 00134$:
                          12505 ; genMinus
                          12506 ; AOP_HL for _roomType
   2B86 21 DD 00          12507 	ld	hl,#_roomType + 0
   2B89 7E                12508 	ld	a,(hl)
   2B8A C6 FF             12509 	add	a,#0xFF
   2B8C 47                12510 	ld	b,a
                          12511 ; genGoto
   2B8D C3 94 2B          12512 	jp	00117$
                          12513 ; genLabel
   2B90                   12514 00116$:
                          12515 ; genAssign
                          12516 ; AOP_HL for _roomType
   2B90 21 DD 00          12517 	ld	hl,#_roomType + 0
   2B93 46                12518 	ld	b,(hl)
                          12519 ; genLabel
   2B94                   12520 00117$:
                          12521 ; genAssign
   2B94 48                12522 	ld	c,b
                          12523 ; genLabel
   2B95                   12524 00115$:
                          12525 ; genAssign
                          12526 ; AOP_HL for _roomType
   2B95 21 DD 00          12527 	ld	hl,#_roomType + 0
   2B98 71                12528 	ld	(hl),c
                          12529 ;	Navigation/navigation.c 181
                          12530 ; genGoto
   2B99 C3 A8 2B          12531 	jp	00104$
                          12532 ;	Navigation/navigation.c 183
                          12533 ; genLabel
   2B9C                   12534 00103$:
                          12535 ; genAssign
                          12536 ; AOP_STK for _Navigation_Y_Location_1_1
   2B9C F8 00             12537 	lda	hl,0(sp)
   2B9E 36 32             12538 	ld	(hl),#0x32
                          12539 ;	Navigation/navigation.c 184
                          12540 ; genMinus
                          12541 ; AOP_HL for _roomType
   2BA0 21 DD 00          12542 	ld	hl,#_roomType + 0
   2BA3 35                12543 	dec	(hl)
                          12544 ;	Navigation/navigation.c 185
                          12545 ; genMinus
                          12546 ; AOP_HL for _currentRoom
   2BA4 21 DE 00          12547 	ld	hl,#_currentRoom + 0
   2BA7 35                12548 	dec	(hl)
                          12549 ;	Navigation/navigation.c 187
                          12550 ; genLabel
   2BA8                   12551 00104$:
                          12552 ;	Navigation/navigation.c 188
                          12553 ; genIpush
                          12554 ; AOP_STK for _Navigation_Y_Location_1_1
   2BA8 F8 00             12555 	lda	hl,0(sp)
   2BAA 7E                12556 	ld	a,(hl)
   2BAB F5                12557 	push	af
   2BAC 33                12558 	inc	sp
                          12559 ; genIpush
   2BAD 3E 50             12560 	ld	a,#0x50
   2BAF F5                12561 	push	af
   2BB0 33                12562 	inc	sp
                          12563 ; genIpush
   2BB1 21 C1 00          12564 	ld	hl,#_player + 0
   2BB4 E5                12565 	push	hl
                          12566 ; genCall
   2BB5 CD 60 2D          12567 	call	_movegamecharacter
   2BB8 E8 04             12568 	lda	sp,4(sp)
                          12569 ;	Navigation/navigation.c 189
                          12570 ; genIpush
   2BBA 3E 05             12571 	ld	a,#0x05
   2BBC F5                12572 	push	af
   2BBD 33                12573 	inc	sp
                          12574 ; genCall
   2BBE CD DD 2F          12575 	call	_performantdelay
   2BC1 E8 01             12576 	lda	sp,1(sp)
                          12577 ; genGoto
   2BC3 C3 F8 2A          12578 	jp	00106$
                          12579 ; genLabel
   2BC6                   12580 00108$:
                          12581 ; genEndFunction
   2BC6 E8 01             12582 	lda	sp,1(sp)
   2BC8 C1                12583 	pop	bc
   2BC9 C9                12584 	ret
   2BCA                   12585 ___Navigation_end:
                          12586 ;	Navigation/navigation.c 196
                          12587 ; genLabel
                          12588 ; genFunction
                          12589 ;	---------------------------------
                          12590 ; Function isWallCollisionDetected
                          12591 ; ---------------------------------
   2BCA                   12592 ___isWallCollisionDetected_start:
   2BCA                   12593 _isWallCollisionDetected:
   2BCA C5                12594 	push	bc
   2BCB E8 FE             12595 	lda	sp,-2(sp)
                          12596 ;	Navigation/navigation.c 197
                          12597 ; genIpush
   2BCD 3E 07             12598 	ld	a,#0x07
   2BCF F5                12599 	push	af
   2BD0 33                12600 	inc	sp
                          12601 ; genIpush
                          12602 ; AOP_HL for _roomType
   2BD1 21 DD 00          12603 	ld	hl,#_roomType + 0
   2BD4 7E                12604 	ld	a,(hl)
   2BD5 F5                12605 	push	af
   2BD6 33                12606 	inc	sp
                          12607 ; genCall
   2BD7 CD 00 00          12608 	call	__muluchar
   2BDA 4B                12609 	ld	c,e
   2BDB E8 02             12610 	lda	sp,2(sp)
                          12611 ; genPlus
                          12612 ;	genPlusIncr failed
   2BDD 3E A5             12613 	ld	a,#<_rooms
   2BDF 81                12614 	add	a,c
   2BE0 4F                12615 	ld	c,a
   2BE1 3E 12             12616 	ld	a,#>_rooms
   2BE3 CE 00             12617 	adc	a,#0x00
   2BE5 47                12618 	ld	b,a
                          12619 ; genPlus
                          12620 ; genPlusIncr
   2BE6 59                12621 	ld	e,c
   2BE7 50                12622 	ld	d,b
   2BE8 13                12623 	inc	de
   2BE9 13                12624 	inc	de
                          12625 ; genPointerGet
                          12626 ; AOP_STK for _isWallCollisionDetected_sloc0_1_0
                          12627 ; Removed redundent load
                          12628 ; Removed redundent load
   2BEA 1A                12629 	ld	a,(de)
   2BEB F8 00             12630 	lda	hl,0(sp)
   2BED 77                12631 	ld	(hl),a
   2BEE 13                12632 	inc	de
   2BEF 1A                12633 	ld	a,(de)
   2BF0 23                12634 	inc	hl
   2BF1 77                12635 	ld	(hl),a
                          12636 ; genIpush
                          12637 ; AOP_STK for 
   2BF2 F8 07             12638 	lda	hl,7(sp)
   2BF4 7E                12639 	ld	a,(hl)
   2BF5 F5                12640 	push	af
   2BF6 33                12641 	inc	sp
                          12642 ; genIpush
                          12643 ; AOP_STK for 
   2BF7 2B                12644 	dec	hl
   2BF8 7E                12645 	ld	a,(hl)
   2BF9 F5                12646 	push	af
   2BFA 33                12647 	inc	sp
                          12648 ; genCall
   2BFB CD 20 2F          12649 	call	_convertTileIndex
   2BFE 42                12650 	ld	b,d
   2BFF 4B                12651 	ld	c,e
   2C00 E8 02             12652 	lda	sp,2(sp)
                          12653 ; genPlus
                          12654 ; AOP_STK for _isWallCollisionDetected_sloc0_1_0
                          12655 ;	genPlusIncr failed
   2C02 F8 00             12656 	lda	hl,0(sp)
   2C04 2A                12657 	ld	a,(hl+)
   2C05 66                12658 	ld	h,(hl)
   2C06 6F                12659 	ld	l,a
   2C07 09                12660 	add	hl,bc
   2C08 5D                12661 	ld	e,l
   2C09 54                12662 	ld	d,h
                          12663 ; genPointerGet
   2C0A 1A                12664 	ld	a,(de)
   2C0B 4F                12665 	ld	c,a
                          12666 ; genPointerGet
   2C0C 11 5C 0B          12667 	ld	de,#_wall + 0
   2C0F 1A                12668 	ld	a,(de)
                          12669 ; genCmpEq
   2C10 B9                12670 	cp	c ; 5
   2C11 20 02             12671 	jr	nz,00106$
   2C13 18 03             12672 	jr	00107$
   2C15                   12673 00106$:
   2C15 C3 1D 2C          12674 	jp	00102$
   2C18                   12675 00107$:
                          12676 ;	Navigation/navigation.c 198
                          12677 ; genRet
   2C18 1E 01             12678 	ld	e,#0x01
   2C1A C3 1F 2C          12679 	jp	00103$
                          12680 ; genLabel
   2C1D                   12681 00102$:
                          12682 ;	Navigation/navigation.c 200
                          12683 ; genRet
   2C1D 1E 00             12684 	ld	e,#0x00
                          12685 ; genLabel
   2C1F                   12686 00103$:
                          12687 ; genEndFunction
   2C1F E8 02             12688 	lda	sp,2(sp)
   2C21 C1                12689 	pop	bc
   2C22 C9                12690 	ret
   2C23                   12691 ___isWallCollisionDetected_end:
                          12692 ;	Navigation/navigation.c 202
                          12693 ; genLabel
                          12694 ; genFunction
                          12695 ;	---------------------------------
                          12696 ; Function canplayermove
                          12697 ; ---------------------------------
   2C23                   12698 ___canplayermove_start:
   2C23                   12699 _canplayermove:
   2C23 C5                12700 	push	bc
                          12701 	
                          12702 ;	Navigation/navigation.c 204
                          12703 ; genIpush
                          12704 ; AOP_STK for 
   2C24 F8 05             12705 	lda	hl,5(sp)
   2C26 7E                12706 	ld	a,(hl)
   2C27 F5                12707 	push	af
   2C28 33                12708 	inc	sp
                          12709 ; genIpush
                          12710 ; AOP_STK for 
   2C29 2B                12711 	dec	hl
   2C2A 7E                12712 	ld	a,(hl)
   2C2B F5                12713 	push	af
   2C2C 33                12714 	inc	sp
                          12715 ; genCall
   2C2D CD CA 2B          12716 	call	_isWallCollisionDetected
   2C30 4B                12717 	ld	c,e
   2C31 E8 02             12718 	lda	sp,2(sp)
                          12719 ; genIpush
                          12720 ; AOP_STK for 
   2C33 F8 07             12721 	lda	hl,7(sp)
   2C35 7E                12722 	ld	a,(hl)
   2C36 F5                12723 	push	af
   2C37 33                12724 	inc	sp
                          12725 ; genIpush
                          12726 ; AOP_STK for 
   2C38 2B                12727 	dec	hl
   2C39 7E                12728 	ld	a,(hl)
   2C3A F5                12729 	push	af
   2C3B 33                12730 	inc	sp
                          12731 ; genCall
   2C3C CD 60 2C          12732 	call	_isCPUCollisionDetected
   2C3F 43                12733 	ld	b,e
   2C40 E8 02             12734 	lda	sp,2(sp)
                          12735 ; genOrOp
   2C42 AF                12736 	xor	a,a
   2C43 B1                12737 	or	a,c
   2C44 20 02             12738 	jr	nz,00106$
   2C46 AF                12739 	xor	a,a
   2C47 B0                12740 	or	a,b
   2C48                   12741 00106$:
   2C48 28 02             12742 	jr	z,00107$
   2C4A 3E 01             12743 	ld	a,#0x01
   2C4C                   12744 00107$:
   2C4C 4F                12745 	ld	c,a
                          12746 ; genNot
   2C4D AF                12747 	xor	a,a
   2C4E B1                12748 	or	a,c
   2C4F D6 01             12749 	sub	a,#0x01
   2C51 3E 00             12750 	ld	a,#0x00
   2C53 17                12751 	rla
   2C54 4F                12752 	ld	c,a
                          12753 ;	Navigation/navigation.c 206
                          12754 ; genIfx
                          12755 ; Removed redundent or a,a
   2C55 AF                12756 	xor	a,a
   2C56 B1                12757 	or	a,c
   2C57 C2 5D 2C          12758 	jp	nz,00102$
                          12759 ;	Navigation/navigation.c 207
                          12760 ; genCall
   2C5A CD E4 0A          12761 	call	_playCollisionSound
                          12762 ; genLabel
   2C5D                   12763 00102$:
                          12764 ;	Navigation/navigation.c 210
                          12765 ; genRet
   2C5D 59                12766 	ld	e,c
                          12767 ; genLabel
   2C5E                   12768 00103$:
                          12769 ; genEndFunction
                          12770 	
   2C5E C1                12771 	pop	bc
   2C5F C9                12772 	ret
   2C60                   12773 ___canplayermove_end:
                          12774 ;	Navigation/navigation.c 213
                          12775 ; genLabel
                          12776 ; genFunction
                          12777 ;	---------------------------------
                          12778 ; Function isCPUCollisionDetected
                          12779 ; ---------------------------------
   2C60                   12780 ___isCPUCollisionDetected_start:
   2C60                   12781 _isCPUCollisionDetected:
   2C60 C5                12782 	push	bc
   2C61 E8 FF             12783 	lda	sp,-1(sp)
                          12784 ;	Navigation/navigation.c 214
                          12785 ; genPlus
                          12786 ; genPlusIncr
   2C63 11 D5 00          12787 	ld	de,#_cpu + 0 + 4
                          12788 ; genPointerGet
   2C66 1A                12789 	ld	a,(de)
   2C67 4F                12790 	ld	c,a
                          12791 ; genPlus
                          12792 ; genPlusIncr
                          12793 ;	genPlusIncr failed
   2C68 79                12794 	ld	a,c
   2C69 C6 08             12795 	add	a,#0x08
   2C6B 47                12796 	ld	b,a
                          12797 ; genCmpGt
                          12798 ; AOP_STK for 
   2C6C AF                12799 	xor	a,a
   2C6D 78                12800 	ld	a,b
   2C6E F8 05             12801 	lda	hl,5(sp)
   2C70 9E                12802 	sbc	a,(hl) ; 2
   2C71 3E 00             12803 	ld	a,#0x00
   2C73 17                12804 	rla
   2C74 47                12805 	ld	b,a
                          12806 ; genNot
                          12807 ; AOP_STK for _isCPUCollisionDetected_sloc0_1_0
   2C75 AF                12808 	xor	a,a
   2C76 B0                12809 	or	a,b
   2C77 D6 01             12810 	sub	a,#0x01
   2C79 3E 00             12811 	ld	a,#0x00
   2C7B 17                12812 	rla
   2C7C F8 00             12813 	lda	hl,0(sp)
   2C7E 77                12814 	ld	(hl),a
                          12815 ;	Navigation/navigation.c 215
                          12816 ; genPlus
                          12817 ; AOP_STK for 
                          12818 ; genPlusIncr
                          12819 ;	genPlusIncr failed
   2C7F F8 05             12820 	lda	hl,5(sp)
   2C81 7E                12821 	ld	a,(hl)
   2C82 C6 08             12822 	add	a,#0x08
   2C84 47                12823 	ld	b,a
                          12824 ; genCmpLt
   2C85 AF                12825 	xor	a,a
   2C86 78                12826 	ld	a,b
   2C87 99                12827 	sbc	a,c ; 2
   2C88 3E 00             12828 	ld	a,#0x00
   2C8A 17                12829 	rla
   2C8B 4F                12830 	ld	c,a
                          12831 ; genNot
   2C8C AF                12832 	xor	a,a
   2C8D B1                12833 	or	a,c
   2C8E D6 01             12834 	sub	a,#0x01
   2C90 3E 00             12835 	ld	a,#0x00
   2C92 17                12836 	rla
   2C93 4F                12837 	ld	c,a
                          12838 ; genAndOp
                          12839 ; AOP_STK for _isCPUCollisionDetected_sloc0_1_0
   2C94 AF                12840 	xor	a,a
   2C95 F8 00             12841 	lda	hl,0(sp)
   2C97 B6                12842 	or	a,(hl)
   2C98 28 02             12843 	jr	z,00103$
   2C9A AF                12844 	xor	a,a
   2C9B B1                12845 	or	a,c
   2C9C                   12846 00103$:
   2C9C 28 02             12847 	jr	z,00104$
   2C9E 3E 01             12848 	ld	a,#0x01
   2CA0                   12849 00104$:
   2CA0 F8 00             12850 	lda	hl,0(sp)
   2CA2 77                12851 	ld	(hl),a
                          12852 ;	Navigation/navigation.c 216
                          12853 ; genPlus
                          12854 ; genPlusIncr
   2CA3 11 D6 00          12855 	ld	de,#_cpu + 0 + 5
                          12856 ; genPointerGet
   2CA6 1A                12857 	ld	a,(de)
   2CA7 47                12858 	ld	b,a
                          12859 ; genPlus
                          12860 ; genPlusIncr
                          12861 ;	genPlusIncr failed
   2CA8 78                12862 	ld	a,b
   2CA9 C6 08             12863 	add	a,#0x08
   2CAB 4F                12864 	ld	c,a
                          12865 ; genCmpGt
                          12866 ; AOP_STK for 
   2CAC AF                12867 	xor	a,a
   2CAD 79                12868 	ld	a,c
   2CAE F8 06             12869 	lda	hl,6(sp)
   2CB0 9E                12870 	sbc	a,(hl) ; 2
   2CB1 3E 00             12871 	ld	a,#0x00
   2CB3 17                12872 	rla
   2CB4 4F                12873 	ld	c,a
                          12874 ; genNot
   2CB5 AF                12875 	xor	a,a
   2CB6 B1                12876 	or	a,c
   2CB7 D6 01             12877 	sub	a,#0x01
   2CB9 3E 00             12878 	ld	a,#0x00
   2CBB 17                12879 	rla
   2CBC 4F                12880 	ld	c,a
                          12881 ; genAndOp
                          12882 ; AOP_STK for _isCPUCollisionDetected_sloc0_1_0
   2CBD AF                12883 	xor	a,a
   2CBE F8 00             12884 	lda	hl,0(sp)
   2CC0 B6                12885 	or	a,(hl)
   2CC1 28 02             12886 	jr	z,00105$
   2CC3 AF                12887 	xor	a,a
   2CC4 B1                12888 	or	a,c
   2CC5                   12889 00105$:
   2CC5 28 02             12890 	jr	z,00106$
   2CC7 3E 01             12891 	ld	a,#0x01
   2CC9                   12892 00106$:
   2CC9 F8 00             12893 	lda	hl,0(sp)
   2CCB 77                12894 	ld	(hl),a
                          12895 ;	Navigation/navigation.c 217
                          12896 ; genPlus
                          12897 ; AOP_STK for 
                          12898 ; genPlusIncr
                          12899 ;	genPlusIncr failed
   2CCC F8 06             12900 	lda	hl,6(sp)
   2CCE 7E                12901 	ld	a,(hl)
   2CCF C6 08             12902 	add	a,#0x08
   2CD1 4F                12903 	ld	c,a
                          12904 ; genCmpLt
   2CD2 AF                12905 	xor	a,a
   2CD3 79                12906 	ld	a,c
   2CD4 98                12907 	sbc	a,b ; 2
   2CD5 3E 00             12908 	ld	a,#0x00
   2CD7 17                12909 	rla
   2CD8 47                12910 	ld	b,a
                          12911 ; genNot
   2CD9 AF                12912 	xor	a,a
   2CDA B0                12913 	or	a,b
   2CDB D6 01             12914 	sub	a,#0x01
   2CDD 3E 00             12915 	ld	a,#0x00
   2CDF 17                12916 	rla
   2CE0 47                12917 	ld	b,a
                          12918 ; genAndOp
                          12919 ; AOP_STK for _isCPUCollisionDetected_sloc0_1_0
   2CE1 AF                12920 	xor	a,a
   2CE2 F8 00             12921 	lda	hl,0(sp)
   2CE4 B6                12922 	or	a,(hl)
   2CE5 28 02             12923 	jr	z,00107$
   2CE7 AF                12924 	xor	a,a
   2CE8 B0                12925 	or	a,b
   2CE9                   12926 00107$:
   2CE9 28 02             12927 	jr	z,00108$
   2CEB 3E 01             12928 	ld	a,#0x01
   2CED                   12929 00108$:
   2CED 47                12930 	ld	b,a
                          12931 ; genRet
   2CEE 58                12932 	ld	e,b
                          12933 ; genLabel
   2CEF                   12934 00101$:
                          12935 ; genEndFunction
   2CEF E8 01             12936 	lda	sp,1(sp)
   2CF1 C1                12937 	pop	bc
   2CF2 C9                12938 	ret
   2CF3                   12939 ___isCPUCollisionDetected_end:
                          12940 ;	Navigation/navigation.c 220
                          12941 ; genLabel
                          12942 ; genFunction
                          12943 ;	---------------------------------
                          12944 ; Function isLookingAtCPU
                          12945 ; ---------------------------------
   2CF3                   12946 ___isLookingAtCPU_start:
   2CF3                   12947 _isLookingAtCPU:
   2CF3 C5                12948 	push	bc
   2CF4 E8 FF             12949 	lda	sp,-1(sp)
                          12950 ;	Navigation/navigation.c 221
                          12951 ; genPlus
                          12952 ; genPlusIncr
   2CF6 11 C5 00          12953 	ld	de,#_player + 0 + 4
                          12954 ; genPointerGet
   2CF9 1A                12955 	ld	a,(de)
   2CFA 4F                12956 	ld	c,a
                          12957 ;	Navigation/navigation.c 222
                          12958 ; genPlus
                          12959 ; genPlusIncr
   2CFB 11 C6 00          12960 	ld	de,#_player + 0 + 5
                          12961 ; genPointerGet
                          12962 ; AOP_STK for _isLookingAtCPU_player_y_1_1
   2CFE 1A                12963 	ld	a,(de)
   2CFF F8 00             12964 	lda	hl,0(sp)
   2D01 77                12965 	ld	(hl),a
                          12966 ;	Navigation/navigation.c 223
                          12967 ; genPlus
                          12968 ; genPlusIncr
   2D02 11 C9 00          12969 	ld	de,#_player + 0 + 8
                          12970 ; genPointerGet
   2D05 1A                12971 	ld	a,(de)
   2D06 47                12972 	ld	b,a
                          12973 ; genCmpLt
   2D07 78                12974 	ld	a,b
   2D08 EE 80             12975 	xor	a,#0x80
   2D0A FE 80             12976 	cp	#0x00^0x80
   2D0C DA 4D 2D          12977 	jp	c,00105$
                          12978 ; genCmpGt
   2D0F 1E 83             12979 	ld	e,#0x83
   2D11 78                12980 	ld	a,b
   2D12 EE 80             12981 	xor	a,#0x80
   2D14 57                12982 	ld	d,a
   2D15 7B                12983 	ld	a,e
   2D16 9A                12984 	sbc	a,d
   2D17 DA 4D 2D          12985 	jp	c,00105$
                          12986 ; genJumpTab
   2D1A 58                12987 	ld	e,b
   2D1B 16 00             12988 	ld	d,#0x00
   2D1D 21 24 2D          12989 	ld	hl,#00110$
   2D20 19                12990 	add	hl,de
   2D21 19                12991 	add	hl,de
   2D22 19                12992 	add	hl,de
   2D23 E9                12993 	jp	(hl)
   2D24                   12994 00110$:
   2D24 C3 30 2D          12995 	jp	00101$
   2D27 C3 39 2D          12996 	jp	00102$
   2D2A C3 42 2D          12997 	jp	00103$
   2D2D C3 49 2D          12998 	jp	00104$
                          12999 ;	Navigation/navigation.c 225
                          13000 ; genLabel
   2D30                   13001 00101$:
                          13002 ; genMinus
                          13003 ; AOP_STK for _isLookingAtCPU_player_y_1_1
   2D30 F8 00             13004 	lda	hl,0(sp)
   2D32 7E                13005 	ld	a,(hl)
   2D33 C6 FC             13006 	add	a,#0xFC
   2D35 77                13007 	ld	(hl),a
                          13008 ;	Navigation/navigation.c 226
                          13009 ; genGoto
   2D36 C3 4D 2D          13010 	jp	00105$
                          13011 ;	Navigation/navigation.c 228
                          13012 ; genLabel
   2D39                   13013 00102$:
                          13014 ; genPlus
                          13015 ; AOP_STK for _isLookingAtCPU_player_y_1_1
                          13016 ; genPlusIncr
   2D39 F8 00             13017 	lda	hl,0(sp)
   2D3B 34                13018 	inc	(hl)
   2D3C 34                13019 	inc	(hl)
   2D3D 34                13020 	inc	(hl)
   2D3E 34                13021 	inc	(hl)
                          13022 ;	Navigation/navigation.c 229
                          13023 ; genGoto
   2D3F C3 4D 2D          13024 	jp	00105$
                          13025 ;	Navigation/navigation.c 231
                          13026 ; genLabel
   2D42                   13027 00103$:
                          13028 ; genMinus
   2D42 79                13029 	ld	a,c
   2D43 C6 FC             13030 	add	a,#0xFC
   2D45 4F                13031 	ld	c,a
                          13032 ;	Navigation/navigation.c 232
                          13033 ; genGoto
   2D46 C3 4D 2D          13034 	jp	00105$
                          13035 ;	Navigation/navigation.c 234
                          13036 ; genLabel
   2D49                   13037 00104$:
                          13038 ; genPlus
                          13039 ; genPlusIncr
   2D49 0C                13040 	inc	c
   2D4A 0C                13041 	inc	c
   2D4B 0C                13042 	inc	c
   2D4C 0C                13043 	inc	c
                          13044 ;	Navigation/navigation.c 236
                          13045 ; genLabel
   2D4D                   13046 00105$:
                          13047 ;	Navigation/navigation.c 237
                          13048 ; genIpush
                          13049 ; AOP_STK for _isLookingAtCPU_player_y_1_1
   2D4D F8 00             13050 	lda	hl,0(sp)
   2D4F 7E                13051 	ld	a,(hl)
   2D50 F5                13052 	push	af
   2D51 33                13053 	inc	sp
                          13054 ; genIpush
   2D52 79                13055 	ld	a,c
   2D53 F5                13056 	push	af
   2D54 33                13057 	inc	sp
                          13058 ; genCall
   2D55 CD 60 2C          13059 	call	_isCPUCollisionDetected
   2D58 4B                13060 	ld	c,e
   2D59 E8 02             13061 	lda	sp,2(sp)
                          13062 ; genRet
   2D5B 59                13063 	ld	e,c
                          13064 ; genLabel
   2D5C                   13065 00106$:
                          13066 ; genEndFunction
   2D5C E8 01             13067 	lda	sp,1(sp)
   2D5E C1                13068 	pop	bc
   2D5F C9                13069 	ret
   2D60                   13070 ___isLookingAtCPU_end:
                          13071 ;	Navigation/navigation.c 243
                          13072 ; genLabel
                          13073 ; genFunction
                          13074 ;	---------------------------------
                          13075 ; Function movegamecharacter
                          13076 ; ---------------------------------
   2D60                   13077 ___movegamecharacter_start:
   2D60                   13078 _movegamecharacter:
   2D60 C5                13079 	push	bc
   2D61 E8 FC             13080 	lda	sp,-4(sp)
                          13081 ;	Navigation/navigation.c 244
                          13082 ; genAssign
                          13083 ; AOP_STK for 
                          13084 ; AOP_STK for _movegamecharacter_sloc0_1_0
   2D63 F8 08             13085 	lda	hl,8(sp)
   2D65 2A                13086 	ld	a,(hl+)
   2D66 5E                13087 	ld	e,(hl)
   2D67 F8 02             13088 	lda	hl,2(sp)
   2D69 22                13089 	ld	(hl+),a
   2D6A 73                13090 	ld	(hl),e
                          13091 ; genPlus
                          13092 ; AOP_STK for _movegamecharacter_sloc0_1_0
                          13093 ; genPlusIncr
                          13094 ;	genPlusIncr failed
   2D6B 2B                13095 	dec	hl
   2D6C 5E                13096 	ld	e,(hl)
   2D6D 23                13097 	inc	hl
   2D6E 56                13098 	ld	d,(hl)
   2D6F 21 04 00          13099 	ld	hl,#0x0004
   2D72 19                13100 	add	hl,de
   2D73 5D                13101 	ld	e,l
   2D74 54                13102 	ld	d,h
                          13103 ; genAssign (pointer)
                          13104 ; AOP_STK for 
   2D75 F8 0A             13105 	lda	hl,10(sp)
   2D77 7E                13106 	ld	a,(hl)
   2D78 12                13107 	ld	(de),a
                          13108 ;	Navigation/navigation.c 245
                          13109 ; genPlus
                          13110 ; AOP_STK for _movegamecharacter_sloc0_1_0
                          13111 ; genPlusIncr
                          13112 ;	genPlusIncr failed
   2D79 F8 02             13113 	lda	hl,2(sp)
   2D7B 5E                13114 	ld	e,(hl)
   2D7C 23                13115 	inc	hl
   2D7D 56                13116 	ld	d,(hl)
   2D7E 21 05 00          13117 	ld	hl,#0x0005
   2D81 19                13118 	add	hl,de
   2D82 5D                13119 	ld	e,l
   2D83 54                13120 	ld	d,h
                          13121 ; genAssign (pointer)
                          13122 ; AOP_STK for 
   2D84 F8 0B             13123 	lda	hl,11(sp)
   2D86 7E                13124 	ld	a,(hl)
   2D87 12                13125 	ld	(de),a
                          13126 ;	Navigation/navigation.c 246
                          13127 ; genPlus
                          13128 ; AOP_STK for _movegamecharacter_sloc1_1_0
                          13129 ; genPlusIncr
                          13130 ;	genPlusIncr failed
   2D88 11 C1 00          13131 	ld	de,#_player + 0
   2D8B 21 06 00          13132 	ld	hl,#0x0006
   2D8E 19                13133 	add	hl,de
   2D8F 7D                13134 	ld	a,l
   2D90 54                13135 	ld	d,h
   2D91 F8 00             13136 	lda	hl,0(sp)
   2D93 22                13137 	ld	(hl+),a
   2D94 72                13138 	ld	(hl),d
                          13139 ; genPlus
                          13140 ; genPlusIncr
   2D95 11 C6 00          13141 	ld	de,#_player + 0 + 5
                          13142 ; genPointerGet
   2D98 1A                13143 	ld	a,(de)
   2D99 4F                13144 	ld	c,a
                          13145 ; genPlus
                          13146 ; genPlusIncr
   2D9A 11 C5 00          13147 	ld	de,#_player + 0 + 4
                          13148 ; genPointerGet
   2D9D 1A                13149 	ld	a,(de)
   2D9E 47                13150 	ld	b,a
                          13151 ; genIpush
   2D9F 79                13152 	ld	a,c
   2DA0 F5                13153 	push	af
   2DA1 33                13154 	inc	sp
                          13155 ; genIpush
   2DA2 78                13156 	ld	a,b
   2DA3 F5                13157 	push	af
   2DA4 33                13158 	inc	sp
                          13159 ; genCall
   2DA5 CD 20 2F          13160 	call	_convertTileIndex
   2DA8 42                13161 	ld	b,d
   2DA9 4B                13162 	ld	c,e
   2DAA E8 02             13163 	lda	sp,2(sp)
                          13164 ; genAssign (pointer)
                          13165 ; AOP_STK for _movegamecharacter_sloc1_1_0
   2DAC F8 00             13166 	lda	hl,0(sp)
   2DAE 5E                13167 	ld	e,(hl)
   2DAF 23                13168 	inc	hl
   2DB0 56                13169 	ld	d,(hl)
   2DB1 79                13170 	ld	a,c
   2DB2 12                13171 	ld	(de),a
   2DB3 13                13172 	inc	de
   2DB4 78                13173 	ld	a,b
   2DB5 12                13174 	ld	(de),a
                          13175 ;	Navigation/navigation.c 247
                          13176 ; genIpush
                          13177 ; AOP_STK for _movegamecharacter_sloc0_1_0
   2DB6 23                13178 	inc	hl
   2DB7 2A                13179 	ld	a,(hl+)
   2DB8 66                13180 	ld	h,(hl)
   2DB9 6F                13181 	ld	l,a
   2DBA E5                13182 	push	hl
                          13183 ; genCall
   2DBB CD C4 2D          13184 	call	_updategamecharacter
   2DBE E8 02             13185 	lda	sp,2(sp)
                          13186 ; genLabel
   2DC0                   13187 00101$:
                          13188 ; genEndFunction
   2DC0 E8 04             13189 	lda	sp,4(sp)
   2DC2 C1                13190 	pop	bc
   2DC3 C9                13191 	ret
   2DC4                   13192 ___movegamecharacter_end:
                          13193 ;	Navigation/navigation.c 250
                          13194 ; genLabel
                          13195 ; genFunction
                          13196 ;	---------------------------------
                          13197 ; Function updategamecharacter
                          13198 ; ---------------------------------
   2DC4                   13199 ___updategamecharacter_start:
   2DC4                   13200 _updategamecharacter:
   2DC4 C5                13201 	push	bc
   2DC5 E8 FC             13202 	lda	sp,-4(sp)
                          13203 ;	Navigation/navigation.c 251
                          13204 ; genAssign
                          13205 ; AOP_STK for 
                          13206 ; AOP_STK for _updategamecharacter_sloc0_1_0
   2DC7 F8 08             13207 	lda	hl,8(sp)
   2DC9 2A                13208 	ld	a,(hl+)
   2DCA 5E                13209 	ld	e,(hl)
   2DCB F8 02             13210 	lda	hl,2(sp)
   2DCD 22                13211 	ld	(hl+),a
   2DCE 73                13212 	ld	(hl),e
                          13213 ; genPlus
                          13214 ; AOP_STK for _updategamecharacter_sloc0_1_0
                          13215 ; genPlusIncr
                          13216 ;	genPlusIncr failed
   2DCF 2B                13217 	dec	hl
   2DD0 5E                13218 	ld	e,(hl)
   2DD1 23                13219 	inc	hl
   2DD2 56                13220 	ld	d,(hl)
   2DD3 21 05 00          13221 	ld	hl,#0x0005
   2DD6 19                13222 	add	hl,de
   2DD7 5D                13223 	ld	e,l
   2DD8 54                13224 	ld	d,h
                          13225 ; genPointerGet
   2DD9 1A                13226 	ld	a,(de)
   2DDA 4F                13227 	ld	c,a
                          13228 ; genPlus
                          13229 ; AOP_STK for _updategamecharacter_sloc0_1_0
                          13230 ; genPlusIncr
                          13231 ;	genPlusIncr failed
   2DDB F8 02             13232 	lda	hl,2(sp)
   2DDD 5E                13233 	ld	e,(hl)
   2DDE 23                13234 	inc	hl
   2DDF 56                13235 	ld	d,(hl)
   2DE0 21 04 00          13236 	ld	hl,#0x0004
   2DE3 19                13237 	add	hl,de
   2DE4 5D                13238 	ld	e,l
   2DE5 54                13239 	ld	d,h
                          13240 ; genPointerGet
                          13241 ; AOP_STK for _updategamecharacter_sloc1_1_0
   2DE6 1A                13242 	ld	a,(de)
   2DE7 F8 01             13243 	lda	hl,1(sp)
                          13244 ; genPointerGet
                          13245 ; AOP_STK for _updategamecharacter_sloc0_1_0
   2DE9 22                13246 	ld	(hl+),a
   2DEA 5E                13247 	ld	e,(hl)
   2DEB 23                13248 	inc	hl
   2DEC 56                13249 	ld	d,(hl)
   2DED 1A                13250 	ld	a,(de)
   2DEE 47                13251 	ld	b,a
                          13252 ; genIpush
   2DEF 79                13253 	ld	a,c
   2DF0 F5                13254 	push	af
   2DF1 33                13255 	inc	sp
                          13256 ; genIpush
                          13257 ; AOP_STK for _updategamecharacter_sloc1_1_0
   2DF2 2B                13258 	dec	hl
   2DF3 2B                13259 	dec	hl
   2DF4 7E                13260 	ld	a,(hl)
   2DF5 F5                13261 	push	af
   2DF6 33                13262 	inc	sp
                          13263 ; genIpush
   2DF7 78                13264 	ld	a,b
   2DF8 F5                13265 	push	af
   2DF9 33                13266 	inc	sp
                          13267 ; genCall
   2DFA CD 00 00          13268 	call	_move_sprite
   2DFD E8 03             13269 	lda	sp,3(sp)
                          13270 ;	Navigation/navigation.c 252
                          13271 ; genPlus
                          13272 ; AOP_STK for _updategamecharacter_sloc1_1_0
                          13273 ; AOP_STK for _updategamecharacter_sloc2_1_0
                          13274 ; genPlusIncr
                          13275 ;	genPlusIncr failed
   2DFF F8 01             13276 	lda	hl,1(sp)
   2E01 7E                13277 	ld	a,(hl)
   2E02 C6 08             13278 	add	a,#0x08
   2E04 2B                13279 	dec	hl
                          13280 ; genPlus
                          13281 ; AOP_STK for _updategamecharacter_sloc0_1_0
                          13282 ; genPlusIncr
   2E05 22                13283 	ld	(hl+),a
   2E06 23                13284 	inc	hl
   2E07 5E                13285 	ld	e,(hl)
   2E08 23                13286 	inc	hl
   2E09 56                13287 	ld	d,(hl)
   2E0A 13                13288 	inc	de
                          13289 ; genPointerGet
   2E0B 1A                13290 	ld	a,(de)
   2E0C 47                13291 	ld	b,a
                          13292 ; genIpush
   2E0D 79                13293 	ld	a,c
   2E0E F5                13294 	push	af
   2E0F 33                13295 	inc	sp
                          13296 ; genIpush
                          13297 ; AOP_STK for _updategamecharacter_sloc2_1_0
   2E10 F8 01             13298 	lda	hl,1(sp)
   2E12 7E                13299 	ld	a,(hl)
   2E13 F5                13300 	push	af
   2E14 33                13301 	inc	sp
                          13302 ; genIpush
   2E15 78                13303 	ld	a,b
   2E16 F5                13304 	push	af
   2E17 33                13305 	inc	sp
                          13306 ; genCall
   2E18 CD 00 00          13307 	call	_move_sprite
   2E1B E8 03             13308 	lda	sp,3(sp)
                          13309 ;	Navigation/navigation.c 253
                          13310 ; genPlus
                          13311 ; genPlusIncr
                          13312 ;	genPlusIncr failed
   2E1D 79                13313 	ld	a,c
   2E1E C6 08             13314 	add	a,#0x08
   2E20 4F                13315 	ld	c,a
                          13316 ; genPlus
                          13317 ; AOP_STK for _updategamecharacter_sloc0_1_0
                          13318 ; genPlusIncr
   2E21 F8 02             13319 	lda	hl,2(sp)
   2E23 5E                13320 	ld	e,(hl)
   2E24 23                13321 	inc	hl
   2E25 56                13322 	ld	d,(hl)
   2E26 13                13323 	inc	de
   2E27 13                13324 	inc	de
                          13325 ; genPointerGet
   2E28 1A                13326 	ld	a,(de)
   2E29 47                13327 	ld	b,a
                          13328 ; genIpush
   2E2A 79                13329 	ld	a,c
   2E2B F5                13330 	push	af
   2E2C 33                13331 	inc	sp
                          13332 ; genIpush
                          13333 ; AOP_STK for _updategamecharacter_sloc1_1_0
   2E2D 2B                13334 	dec	hl
   2E2E 2B                13335 	dec	hl
   2E2F 7E                13336 	ld	a,(hl)
   2E30 F5                13337 	push	af
   2E31 33                13338 	inc	sp
                          13339 ; genIpush
   2E32 78                13340 	ld	a,b
   2E33 F5                13341 	push	af
   2E34 33                13342 	inc	sp
                          13343 ; genCall
   2E35 CD 00 00          13344 	call	_move_sprite
   2E38 E8 03             13345 	lda	sp,3(sp)
                          13346 ;	Navigation/navigation.c 254
                          13347 ; genPlus
                          13348 ; AOP_STK for _updategamecharacter_sloc0_1_0
                          13349 ; genPlusIncr
                          13350 ;	genPlusIncr failed
   2E3A F8 02             13351 	lda	hl,2(sp)
   2E3C 5E                13352 	ld	e,(hl)
   2E3D 23                13353 	inc	hl
   2E3E 56                13354 	ld	d,(hl)
   2E3F 21 03 00          13355 	ld	hl,#0x0003
   2E42 19                13356 	add	hl,de
   2E43 5D                13357 	ld	e,l
   2E44 54                13358 	ld	d,h
                          13359 ; genPointerGet
   2E45 1A                13360 	ld	a,(de)
   2E46 47                13361 	ld	b,a
                          13362 ; genIpush
   2E47 79                13363 	ld	a,c
   2E48 F5                13364 	push	af
   2E49 33                13365 	inc	sp
                          13366 ; genIpush
                          13367 ; AOP_STK for _updategamecharacter_sloc2_1_0
   2E4A F8 01             13368 	lda	hl,1(sp)
   2E4C 7E                13369 	ld	a,(hl)
   2E4D F5                13370 	push	af
   2E4E 33                13371 	inc	sp
                          13372 ; genIpush
   2E4F 78                13373 	ld	a,b
   2E50 F5                13374 	push	af
   2E51 33                13375 	inc	sp
                          13376 ; genCall
   2E52 CD 00 00          13377 	call	_move_sprite
   2E55 E8 03             13378 	lda	sp,3(sp)
                          13379 ; genLabel
   2E57                   13380 00101$:
                          13381 ; genEndFunction
   2E57 E8 04             13382 	lda	sp,4(sp)
   2E59 C1                13383 	pop	bc
   2E5A C9                13384 	ret
   2E5B                   13385 ___updategamecharacter_end:
                          13386 ;	Navigation/navigation.c 257
                          13387 ; genLabel
                          13388 ; genFunction
                          13389 ;	---------------------------------
                          13390 ; Function copyCPU
                          13391 ; ---------------------------------
   2E5B                   13392 ___copyCPU_start:
   2E5B                   13393 _copyCPU:
   2E5B C5                13394 	push	bc
                          13395 	
                          13396 ;	Navigation/navigation.c 259
                          13397 ; genAssign
                          13398 ; (operands are equal 3)
                          13399 ; genAssign
                          13400 ; AOP_STK for 
   2E5C F8 04             13401 	lda	hl,4(sp)
   2E5E 4E                13402 	ld	c,(hl)
   2E5F 23                13403 	inc	hl
   2E60 46                13404 	ld	b,(hl)
                          13405 ; genIpush
   2E61 21 0C 00          13406 	ld	hl,#0x000C
   2E64 E5                13407 	push	hl
                          13408 ; genIpush
                          13409 ; AOP_STK for 
   2E65 F8 08             13410 	lda	hl,8(sp)
   2E67 2A                13411 	ld	a,(hl+)
   2E68 66                13412 	ld	h,(hl)
   2E69 6F                13413 	ld	l,a
   2E6A E5                13414 	push	hl
                          13415 ; genIpush
   2E6B C5                13416 	push	bc
                          13417 ; genCall
   2E6C CD 00 00          13418 	call	_memcpy
   2E6F E8 06             13419 	lda	sp,6(sp)
                          13420 ; genLabel
   2E71                   13421 00101$:
                          13422 ; genEndFunction
                          13423 	
   2E71 C1                13424 	pop	bc
   2E72 C9                13425 	ret
   2E73                   13426 ___copyCPU_end:
                          13427 ;	Navigation/navigation.c 263
                          13428 ; genLabel
                          13429 ; genFunction
                          13430 ;	---------------------------------
                          13431 ; Function changeCPU
                          13432 ; ---------------------------------
   2E73                   13433 ___changeCPU_start:
   2E73                   13434 _changeCPU:
   2E73 C5                13435 	push	bc
   2E74 E8 FE             13436 	lda	sp,-2(sp)
                          13437 ;	Navigation/navigation.c 265
                          13438 ; genIpush
   2E76 3E 0C             13439 	ld	a,#0x0C
   2E78 F5                13440 	push	af
   2E79 33                13441 	inc	sp
                          13442 ; genIpush
                          13443 ; AOP_HL for _currentRoom
   2E7A 21 DE 00          13444 	ld	hl,#_currentRoom + 0
   2E7D 7E                13445 	ld	a,(hl)
   2E7E F5                13446 	push	af
   2E7F 33                13447 	inc	sp
                          13448 ; genCall
   2E80 CD 00 00          13449 	call	__muluchar
   2E83 4B                13450 	ld	c,e
   2E84 E8 02             13451 	lda	sp,2(sp)
                          13452 ; genPlus
                          13453 ;	genPlusIncr failed
   2E86 3E AF             13454 	ld	a,#<_CPU_info
   2E88 81                13455 	add	a,c
   2E89 4F                13456 	ld	c,a
   2E8A 3E 13             13457 	ld	a,#>_CPU_info
   2E8C CE 00             13458 	adc	a,#0x00
   2E8E 47                13459 	ld	b,a
                          13460 ; genIpush
   2E8F C5                13461 	push	bc
                          13462 ; genIpush
   2E90 21 D1 00          13463 	ld	hl,#_cpu + 0
   2E93 E5                13464 	push	hl
                          13465 ; genCall
   2E94 CD 5B 2E          13466 	call	_copyCPU
   2E97 E8 04             13467 	lda	sp,4(sp)
                          13468 ;	Navigation/navigation.c 267
                          13469 ; genPlus
                          13470 ; AOP_STK for _changeCPU_sloc0_1_0
                          13471 ; genPlusIncr
                          13472 ;	genPlusIncr failed
   2E99 11 D1 00          13473 	ld	de,#_cpu + 0
   2E9C 21 06 00          13474 	ld	hl,#0x0006
   2E9F 19                13475 	add	hl,de
   2EA0 7D                13476 	ld	a,l
   2EA1 54                13477 	ld	d,h
   2EA2 F8 00             13478 	lda	hl,0(sp)
   2EA4 22                13479 	ld	(hl+),a
   2EA5 72                13480 	ld	(hl),d
                          13481 ; genPlus
                          13482 ; genPlusIncr
   2EA6 11 D6 00          13483 	ld	de,#_cpu + 0 + 5
                          13484 ; genPointerGet
   2EA9 1A                13485 	ld	a,(de)
   2EAA 4F                13486 	ld	c,a
                          13487 ; genPlus
                          13488 ; genPlusIncr
   2EAB 11 D5 00          13489 	ld	de,#_cpu + 0 + 4
                          13490 ; genPointerGet
   2EAE 1A                13491 	ld	a,(de)
   2EAF 47                13492 	ld	b,a
                          13493 ; genIpush
   2EB0 79                13494 	ld	a,c
   2EB1 F5                13495 	push	af
   2EB2 33                13496 	inc	sp
                          13497 ; genIpush
   2EB3 78                13498 	ld	a,b
   2EB4 F5                13499 	push	af
   2EB5 33                13500 	inc	sp
                          13501 ; genCall
   2EB6 CD 20 2F          13502 	call	_convertTileIndex
   2EB9 42                13503 	ld	b,d
   2EBA 4B                13504 	ld	c,e
   2EBB E8 02             13505 	lda	sp,2(sp)
                          13506 ; genAssign (pointer)
                          13507 ; AOP_STK for _changeCPU_sloc0_1_0
   2EBD F8 00             13508 	lda	hl,0(sp)
   2EBF 5E                13509 	ld	e,(hl)
   2EC0 23                13510 	inc	hl
   2EC1 56                13511 	ld	d,(hl)
   2EC2 79                13512 	ld	a,c
   2EC3 12                13513 	ld	(de),a
   2EC4 13                13514 	inc	de
   2EC5 78                13515 	ld	a,b
   2EC6 12                13516 	ld	(de),a
                          13517 ;	Navigation/navigation.c 270
                          13518 ; genIpush
   2EC7 3E 04             13519 	ld	a,#0x04
   2EC9 F5                13520 	push	af
   2ECA 33                13521 	inc	sp
                          13522 ; genIpush
   2ECB 3E 04             13523 	ld	a,#0x04
   2ECD F5                13524 	push	af
   2ECE 33                13525 	inc	sp
                          13526 ; genCall
   2ECF CD 00 00          13527 	call	_set_sprite_tile
   2ED2 E8 02             13528 	lda	sp,2(sp)
                          13529 ;	Navigation/navigation.c 271
                          13530 ; genAssign (pointer)
   2ED4 11 D1 00          13531 	ld	de,#_cpu + 0
   2ED7 3E 04             13532 	ld	a,#0x04
   2ED9 12                13533 	ld	(de),a
                          13534 ;	Navigation/navigation.c 272
                          13535 ; genIpush
   2EDA 3E 05             13536 	ld	a,#0x05
   2EDC F5                13537 	push	af
   2EDD 33                13538 	inc	sp
                          13539 ; genIpush
   2EDE 3E 05             13540 	ld	a,#0x05
   2EE0 F5                13541 	push	af
   2EE1 33                13542 	inc	sp
                          13543 ; genCall
   2EE2 CD 00 00          13544 	call	_set_sprite_tile
   2EE5 E8 02             13545 	lda	sp,2(sp)
                          13546 ;	Navigation/navigation.c 273
                          13547 ; genPlus
                          13548 ; genPlusIncr
   2EE7 11 D2 00          13549 	ld	de,#_cpu + 0 + 1
                          13550 ; genAssign (pointer)
   2EEA 3E 05             13551 	ld	a,#0x05
   2EEC 12                13552 	ld	(de),a
                          13553 ;	Navigation/navigation.c 274
                          13554 ; genIpush
   2EED 3E 06             13555 	ld	a,#0x06
   2EEF F5                13556 	push	af
   2EF0 33                13557 	inc	sp
                          13558 ; genIpush
   2EF1 3E 06             13559 	ld	a,#0x06
   2EF3 F5                13560 	push	af
   2EF4 33                13561 	inc	sp
                          13562 ; genCall
   2EF5 CD 00 00          13563 	call	_set_sprite_tile
   2EF8 E8 02             13564 	lda	sp,2(sp)
                          13565 ;	Navigation/navigation.c 275
                          13566 ; genPlus
                          13567 ; genPlusIncr
   2EFA 11 D3 00          13568 	ld	de,#_cpu + 0 + 2
                          13569 ; genAssign (pointer)
   2EFD 3E 06             13570 	ld	a,#0x06
   2EFF 12                13571 	ld	(de),a
                          13572 ;	Navigation/navigation.c 276
                          13573 ; genIpush
   2F00 3E 07             13574 	ld	a,#0x07
   2F02 F5                13575 	push	af
   2F03 33                13576 	inc	sp
                          13577 ; genIpush
   2F04 3E 07             13578 	ld	a,#0x07
   2F06 F5                13579 	push	af
   2F07 33                13580 	inc	sp
                          13581 ; genCall
   2F08 CD 00 00          13582 	call	_set_sprite_tile
   2F0B E8 02             13583 	lda	sp,2(sp)
                          13584 ;	Navigation/navigation.c 277
                          13585 ; genPlus
                          13586 ; genPlusIncr
   2F0D 11 D4 00          13587 	ld	de,#_cpu + 0 + 3
                          13588 ; genAssign (pointer)
   2F10 3E 07             13589 	ld	a,#0x07
   2F12 12                13590 	ld	(de),a
                          13591 ;	Navigation/navigation.c 279
                          13592 ; genIpush
   2F13 21 D1 00          13593 	ld	hl,#_cpu + 0
   2F16 E5                13594 	push	hl
                          13595 ; genCall
   2F17 CD C4 2D          13596 	call	_updategamecharacter
   2F1A E8 02             13597 	lda	sp,2(sp)
                          13598 ; genLabel
   2F1C                   13599 00101$:
                          13600 ; genEndFunction
   2F1C E8 02             13601 	lda	sp,2(sp)
   2F1E C1                13602 	pop	bc
   2F1F C9                13603 	ret
   2F20                   13604 ___changeCPU_end:
                          13605 ;	Navigation/navigation.c 283
                          13606 ; genLabel
                          13607 ; genFunction
                          13608 ;	---------------------------------
                          13609 ; Function convertTileIndex
                          13610 ; ---------------------------------
   2F20                   13611 ___convertTileIndex_start:
   2F20                   13612 _convertTileIndex:
   2F20 C5                13613 	push	bc
   2F21 E8 FE             13614 	lda	sp,-2(sp)
                          13615 ;	Navigation/navigation.c 284
                          13616 ; genMinus
                          13617 ; AOP_STK for 
   2F23 F8 06             13618 	lda	hl,6(sp)
   2F25 7E                13619 	ld	a,(hl)
   2F26 C6 F8             13620 	add	a,#0xF8
   2F28 4F                13621 	ld	c,a
                          13622 ; genRightShift
                          13623 ; shift right 	result 1, left 1
                          13624 ; Removed redundent load
   2F29 CB 39             13625 	srl	c
   2F2B CB 39             13626 	srl	c
   2F2D CB 39             13627 	srl	c
                          13628 ; genCast
                          13629 ; AOP_STK for _convertTileIndex_indexTLxl_1_1
   2F2F F8 00             13630 	lda	hl,0(sp)
   2F31 71                13631 	ld	(hl),c
   2F32 23                13632 	inc	hl
   2F33 36 00             13633 	ld	(hl),#0x00
                          13634 ;	Navigation/navigation.c 285
                          13635 ; genMinus
                          13636 ; AOP_STK for 
   2F35 F8 07             13637 	lda	hl,7(sp)
   2F37 7E                13638 	ld	a,(hl)
   2F38 C6 F0             13639 	add	a,#0xF0
   2F3A 4F                13640 	ld	c,a
                          13641 ; genRightShift
                          13642 ; shift right 	result 1, left 1
                          13643 ; Removed redundent load
   2F3B CB 39             13644 	srl	c
   2F3D CB 39             13645 	srl	c
   2F3F CB 39             13646 	srl	c
                          13647 ; genCast
                          13648 ; Removed redundent load
   2F41 06 00             13649 	ld	b,#0x00
                          13650 ;	Navigation/navigation.c 286
                          13651 ; genIpush
   2F43 21 14 00          13652 	ld	hl,#0x0014
   2F46 E5                13653 	push	hl
                          13654 ; genIpush
   2F47 C5                13655 	push	bc
                          13656 ; genCall
   2F48 CD 00 00          13657 	call	__muluint
   2F4B 42                13658 	ld	b,d
   2F4C 4B                13659 	ld	c,e
   2F4D E8 04             13660 	lda	sp,4(sp)
                          13661 ; genPlus
                          13662 ; AOP_STK for _convertTileIndex_indexTLxl_1_1
                          13663 ;	genPlusIncr failed
   2F4F F8 00             13664 	lda	hl,0(sp)
   2F51 2A                13665 	ld	a,(hl+)
   2F52 66                13666 	ld	h,(hl)
   2F53 6F                13667 	ld	l,a
   2F54 09                13668 	add	hl,bc
   2F55 4D                13669 	ld	c,l
   2F56 44                13670 	ld	b,h
                          13671 ; genRet
   2F57 59                13672 	ld	e,c
   2F58 50                13673 	ld	d,b
                          13674 ; genLabel
   2F59                   13675 00101$:
                          13676 ; genEndFunction
   2F59 E8 02             13677 	lda	sp,2(sp)
   2F5B C1                13678 	pop	bc
   2F5C C9                13679 	ret
   2F5D                   13680 ___convertTileIndex_end:
                          13681 ;	main.c 20
                          13682 ; genLabel
                          13683 ; genFunction
                          13684 ;	---------------------------------
                          13685 ; Function main
                          13686 ; ---------------------------------
   2F5D                   13687 ___main_start:
   2F5D                   13688 _main:
                          13689 	
                          13690 ;	main.c 21
                          13691 ; genCall
   2F5D CD 76 2F          13692 	call	_setUpEniroment
                          13693 ;	main.c 22
                          13694 ; genCall
   2F60 CD 8A 0A          13695 	call	_splashPage
                          13696 ;	main.c 24
                          13697 ; genOr
                          13698 ; AOP_SFR for _LCDC_REG
                          13699 ; Type res[4] = l[4]&r[1]
                          13700 ; Size res[1] = l[1]&r[1]
   2F63 F0 00             13701 	ldh	a,(_LCDC_REG+0) ; x
   2F65 F6 01             13702 	or	a,#0x01
   2F67 E0 00             13703 	ldh	(_LCDC_REG+0),a
                          13704 ;	main.c 25
                          13705 ; genOr
                          13706 ; AOP_SFR for _LCDC_REG
                          13707 ; Type res[4] = l[4]&r[1]
                          13708 ; Size res[1] = l[1]&r[1]
   2F69 F0 00             13709 	ldh	a,(_LCDC_REG+0) ; x
   2F6B F6 02             13710 	or	a,#0x02
   2F6D E0 00             13711 	ldh	(_LCDC_REG+0),a
                          13712 ;	main.c 26
                          13713 ; genCall
   2F6F CD A7 24          13714 	call	_setNavi
                          13715 ;	main.c 29
                          13716 ; genRet
   2F72 11 00 00          13717 	ld	de,#0x0000
                          13718 ; genLabel
   2F75                   13719 00101$:
                          13720 ; genEndFunction
                          13721 	
   2F75 C9                13722 	ret
   2F76                   13723 ___main_end:
                          13724 ;	main.c 33
                          13725 ; genLabel
                          13726 ; genFunction
                          13727 ;	---------------------------------
                          13728 ; Function setUpEniroment
                          13729 ; ---------------------------------
   2F76                   13730 ___setUpEniroment_start:
   2F76                   13731 _setUpEniroment:
                          13732 	
                          13733 ;	main.c 34
                          13734 ; genAssign
                          13735 ; AOP_SFR for _NR52_REG
   2F76 3E 80             13736 	ld	a,#0x80
   2F78 E0 00             13737 	ldh	(_NR52_REG+0),a
                          13738 ;	main.c 35
                          13739 ; genAssign
                          13740 ; AOP_SFR for _NR50_REG
   2F7A 3E 77             13741 	ld	a,#0x77
   2F7C E0 00             13742 	ldh	(_NR50_REG+0),a
                          13743 ;	main.c 36
                          13744 ; genAssign
                          13745 ; AOP_SFR for _NR51_REG
   2F7E 3E FF             13746 	ld	a,#0xFF
   2F80 E0 00             13747 	ldh	(_NR51_REG+0),a
                          13748 ; genLabel
   2F82                   13749 00101$:
                          13750 ; genEndFunction
                          13751 	
   2F82 C9                13752 	ret
   2F83                   13753 ___setUpEniroment_end:
                          13754 ;	main.c 39
                          13755 ; genLabel
                          13756 ; genFunction
                          13757 ;	---------------------------------
                          13758 ; Function clearScreen
                          13759 ; ---------------------------------
   2F83                   13760 ___clearScreen_start:
   2F83                   13761 _clearScreen:
   2F83 C5                13762 	push	bc
   2F84 E8 FE             13763 	lda	sp,-2(sp)
                          13764 ;	main.c 41
                          13765 ; genAssign
                          13766 ; AOP_STK for _clearScreen_i_1_1
   2F86 F8 01             13767 	lda	hl,1(sp)
   2F88 36 00             13768 	ld	(hl),#0x00
                          13769 ; genLabel
   2F8A                   13770 00105$:
                          13771 ; genCmpLt
                          13772 ; AOP_STK for _clearScreen_i_1_1
   2F8A F8 01             13773 	lda	hl,1(sp)
   2F8C 7E                13774 	ld	a,(hl)
   2F8D FE 12             13775 	cp	#0x12
   2F8F D2 C9 2F          13776 	jp	nc,00108$
                          13777 ;	main.c 42
                          13778 ; genAssign
   2F92 06 00             13779 	ld	b,#0x00
                          13780 ; genLabel
   2F94                   13781 00101$:
                          13782 ; genCmpLt
                          13783 ; AOP_STK for _clearScreen_sloc0_1_0
   2F94 78                13784 	ld	a,b
   2F95 FE 14             13785 	cp	#0x14
   2F97 3E 00             13786 	ld	a,#0x00
   2F99 17                13787 	rla
   2F9A F8 00             13788 	lda	hl,0(sp)
   2F9C 77                13789 	ld	(hl),a
                          13790 ; genIfx
                          13791 ; AOP_STK for _clearScreen_sloc0_1_0
                          13792 ; Removed redundent or a,a
   2F9D AF                13793 	xor	a,a
   2F9E B6                13794 	or	a,(hl)
   2F9F CA C3 2F          13795 	jp	z,00107$
                          13796 ;	main.c 43
                          13797 ; genIpush
                          13798 ; AOP_STK for _clearScreen_i_1_1
   2FA2 23                13799 	inc	hl
   2FA3 7E                13800 	ld	a,(hl)
   2FA4 F5                13801 	push	af
   2FA5 33                13802 	inc	sp
                          13803 ; genIpush
   2FA6 78                13804 	ld	a,b
   2FA7 F5                13805 	push	af
   2FA8 33                13806 	inc	sp
                          13807 ; genCall
   2FA9 CD 00 00          13808 	call	_gotoxy
   2FAC E8 02             13809 	lda	sp,2(sp)
                          13810 ;	main.c 44
                          13811 ; genIpush
   2FAE 3E 00             13812 	ld	a,#0x00
   2FB0 F5                13813 	push	af
   2FB1 33                13814 	inc	sp
                          13815 ; genIpush
   2FB2 21 DA 2F          13816 	ld	hl,#__str_59 + 0
   2FB5 E5                13817 	push	hl
                          13818 ; genCall
   2FB6 CD 00 00          13819 	call	_printf
   2FB9 E8 03             13820 	lda	sp,3(sp)
                          13821 ;	main.c 42
                          13822 ; genPlus
                          13823 ; genPlusIncr
                          13824 ;	genPlusIncr failed
   2FBB 78                13825 	ld	a,b
   2FBC C6 01             13826 	add	a,#0x01
   2FBE 4F                13827 	ld	c,a
                          13828 ; genAssign
   2FBF 41                13829 	ld	b,c
                          13830 ; genGoto
   2FC0 C3 94 2F          13831 	jp	00101$
                          13832 ; genLabel
   2FC3                   13833 00107$:
                          13834 ;	main.c 41
                          13835 ; genPlus
                          13836 ; AOP_STK for _clearScreen_i_1_1
                          13837 ; genPlusIncr
   2FC3 F8 01             13838 	lda	hl,1(sp)
   2FC5 34                13839 	inc	(hl)
                          13840 ; genGoto
   2FC6 C3 8A 2F          13841 	jp	00105$
                          13842 ; genLabel
   2FC9                   13843 00108$:
                          13844 ;	main.c 47
                          13845 ; genIpush
   2FC9 3E 00             13846 	ld	a,#0x00
   2FCB F5                13847 	push	af
   2FCC 33                13848 	inc	sp
                          13849 ; genIpush
   2FCD 3E 00             13850 	ld	a,#0x00
   2FCF F5                13851 	push	af
   2FD0 33                13852 	inc	sp
                          13853 ; genCall
   2FD1 CD 00 00          13854 	call	_gotoxy
   2FD4 E8 02             13855 	lda	sp,2(sp)
                          13856 ; genLabel
   2FD6                   13857 00109$:
                          13858 ; genEndFunction
   2FD6 E8 02             13859 	lda	sp,2(sp)
   2FD8 C1                13860 	pop	bc
   2FD9 C9                13861 	ret
   2FDA                   13862 ___clearScreen_end:
   2FDA                   13863 __str_59:
   2FDA 25 63             13864 	.ascii "%c"
   2FDC 00                13865 	.db 0x00
                          13866 ;	main.c 50
                          13867 ; genLabel
                          13868 ; genFunction
                          13869 ;	---------------------------------
                          13870 ; Function performantdelay
                          13871 ; ---------------------------------
   2FDD                   13872 ___performantdelay_start:
   2FDD                   13873 _performantdelay:
   2FDD C5                13874 	push	bc
                          13875 	
                          13876 ;	main.c 52
                          13877 ; genAssign
   2FDE 0E 00             13878 	ld	c,#0x00
                          13879 ; genLabel
   2FE0                   13880 00101$:
                          13881 ; genCmpLt
                          13882 ; AOP_STK for 
   2FE0 AF                13883 	xor	a,a
   2FE1 79                13884 	ld	a,c
   2FE2 F8 04             13885 	lda	hl,4(sp)
   2FE4 9E                13886 	sbc	a,(hl) ; 2
   2FE5 D2 EF 2F          13887 	jp	nc,00105$
                          13888 ;	main.c 53
                          13889 ; genCall
   2FE8 CD 00 00          13890 	call	_wait_vbl_done
                          13891 ;	main.c 52
                          13892 ; genPlus
                          13893 ; genPlusIncr
   2FEB 0C                13894 	inc	c
                          13895 ; genGoto
   2FEC C3 E0 2F          13896 	jp	00101$
                          13897 ; genLabel
   2FEF                   13898 00105$:
                          13899 ; genEndFunction
                          13900 	
   2FEF C1                13901 	pop	bc
   2FF0 C9                13902 	ret
   2FF1                   13903 ___performantdelay_end:
                          13904 	.area _CODE
ASxxxx Assembler V01.75  (GameBoy Z80-like CPU), page 1.

Symbol Table

    _BCPD_REG                          **** GX
    _BCPS_REG                          **** GX
    _BGP_REG                           **** GX
  0 _CPU_info                          13AF GR
  1 _Cursors                           00A2 GR
    _DIV_REG                           **** GX
    _DMA_REG                           **** GX
  0 _ElementalTypes                    12BA GR
  1 _Female_Player                     0021 GR
    _HDMA1_REG                         **** GX
    _HDMA2_REG                         **** GX
    _HDMA3_REG                         **** GX
    _HDMA4_REG                         **** GX
    _HDMA5_REG                         **** GX
    _IE_REG                            **** GX
    _IF_REG                            **** GX
    _KEY1_REG                          **** GX
    _LCDC_REG                          **** GX
    _LYC_REG                           **** GX
    _LY_REG                            **** GX
    _NR10_REG                          **** GX
    _NR11_REG                          **** GX
    _NR12_REG                          **** GX
    _NR13_REG                          **** GX
    _NR14_REG                          **** GX
    _NR21_REG                          **** GX
    _NR22_REG                          **** GX
    _NR23_REG                          **** GX
    _NR24_REG                          **** GX
    _NR30_REG                          **** GX
    _NR31_REG                          **** GX
    _NR32_REG                          **** GX
    _NR33_REG                          **** GX
    _NR34_REG                          **** GX
    _NR41_REG                          **** GX
    _NR42_REG                          **** GX
    _NR43_REG                          **** GX
    _NR44_REG                          **** GX
    _NR50_REG                          **** GX
    _NR51_REG                          **** GX
    _NR52_REG                          **** GX
  0 _NavgateCurrentRoom                2591 GR
  0 _Navigation                        2AF5 GR
    _OBP0_REG                          **** GX
    _OBP1_REG                          **** GX
    _OCPD_REG                          **** GX
    _OCPS_REG                          **** GX
    _P1_REG                            **** GX
    _RP_REG                            **** GX
    _SB_REG                            **** GX
    _SCX_REG                           **** GX
    _SCY_REG                           **** GX
    _SC_REG                            **** GX
    _STAT_REG                          **** GX
    _SVBK_REG                          **** GX
  0 _Select_Screen_data                18BD GR
  0 _Select_Screen_map                 19AD GR
  1 _Smiler                            0001 GR
    _TAC_REG                           **** GX
    _TIMA_REG                          **** GX
    _TMA_REG                           **** GX
    _VBK_REG                           **** GX
    _WX_REG                            **** GX
    _WY_REG                            **** GX
  0 ___NavgateCurrentRoom_end          25BF R
  0 ___NavgateCurrentRoom_start        2591 R
  0 ___Navigation_end                  2BCA R
  0 ___Navigation_start                2AF5 R
  0 ___canplayermove_end               2C60 R
  0 ___canplayermove_start             2C23 R
  0 ___changeCPU_end                   2F20 R
  0 ___changeCPU_start                 2E73 R
  0 ___clearScreen_end                 2FDA R
  0 ___clearScreen_start               2F83 R
  0 ___convertTileIndex_end            2F5D R
  0 ___convertTileIndex_start          2F20 R
  0 ___copyCPU_end                     2E73 R
  0 ___copyCPU_start                   2E5B R
  0 ___displayMonsterInfo_end          1F5C R
  0 ___displayMonsterInfo_start        1D80 R
  0 ___displayMonsterList_end          2125 R
  0 ___displayMonsterList_start        2070 R
  0 ___displayRoom_end                 2591 R
  0 ___displayRoom_start               2521 R
  0 ___fadein_end                      0A8A R
  0 ___fadein_start                    0A3E R
  0 ___fadeout_end                     0056 R
  0 ___fadeout_start                   0000 R
  0 ___getCPUDefeatedDialog_end        14E4 R
  0 ___getCPUDefeatedDialog_start      147E R
  0 ___getCPUIsDefeated_end            147E R
  0 ___getCPUIsDefeated_start          141E R
  0 ___getCPUMonsterTeam_end           0B5C R
  0 ___getCPUMonsterTeam_start         0AF9 R
  0 ___get_size_end                    1C93 R
  0 ___get_size_start                  1C7B R
  0 ___init_stack_end                  14FB R
  0 ___init_stack_start                14E4 R
  0 ___isCPUCollisionDetected_end      2CF3 R
  0 ___isCPUCollisionDetected_start    2C60 R
  0 ___isLookingAtCPU_end              2D60 R
  0 ___isLookingAtCPU_start            2CF3 R
  0 ___isWallCollisionDetected_end     2C23 R
  0 ___isWallCollisionDetected_start   2BCA R
  0 ___is_empty_end                    1B4D R
  0 ___is_empty_start                  1B16 R
  0 ___is_full_end                     1B83 R
  0 ___is_full_start                   1B4D R
  0 ___main_end                        2F76 R
  0 ___main_start                      2F5D R
  0 ___moveInput_end                   29B8 R
  0 ___moveInput_start                 25BF R
  0 ___movegamecharacter_end           2DC4 R
  0 ___movegamecharacter_start         2D60 R
  0 ___onDoor_end                      2AF5 R
  0 ___onDoor_start                    29DD R
  0 ___performantdelay_end             2FF1 R
  0 ___performantdelay_start           2FDD R
  0 ___playCollisionSound_end          0AF9 R
  0 ___playCollisionSound_start        0AE4 R
  0 ___playDoorSound_end               0AE4 R
  0 ___playDoorSound_start             0AD3 R
  0 ___pop_end                         1C7B R
  0 ___pop_start                       1BF5 R
  0 ___printPaddedNumber_end           1D13 R
  0 ___printPaddedNumber_start         1C93 R
  0 ___printPaddedString_end           1D7B R
  0 ___printPaddedString_start         1D18 R
  0 ___push_end                        1BE6 R
  0 ___push_start                      1B83 R
  0 ___selectInput_end                 247A R
  0 ___selectInput_start               2129 R
  0 ___selectMonsters_end              24A7 R
  0 ___selectMonsters_start            2480 R
  0 ___setBackgound_end                2039 R
  0 ___setBackgound_start              1F5E R
  0 ___setNavi_end                     24B1 R
  0 ___setNavi_start                   24A7 R
  0 ___setUpEniroment_end              2F83 R
  0 ___setUpEniroment_start            2F76 R
  0 ___setUpPlayer_end                 2521 R
  0 ___setUpPlayer_start               24B1 R
  0 ___splashPage_end                  0AD3 R
  0 ___splashPage_start                0A8A R
  0 ___updategamecharacter_end         2E5B R
  0 ___updategamecharacter_start       2DC4 R
    __cpu                              **** GX
    __divsint                          **** GX
    __io_in                            **** GX
    __io_out                           **** GX
    __io_status                        **** GX
    __modsint                          **** GX
    __mulschar                         **** GX
    __mulsint                          **** GX
    __muluchar                         **** GX
    __muluint                          **** GX
  0 __str_40                           1BE6 R
  0 __str_41                           1D13 R
  0 __str_42                           1D15 R
  0 __str_43                           1D7B R
  0 __str_44                           1D7E R
  0 __str_45                           1F5C R
  0 __str_46                           2039 R
  0 __str_47                           204E R
  0 __str_48                           2055 R
  0 __str_49                           2058 R
  0 __str_50                           205C R
  0 __str_51                           205F R
  0 __str_52                           2063 R
  0 __str_53                           206D R
  0 __str_54                           2125 R
  0 __str_55                           247A R
  0 __str_56                           247D R
  0 __str_57                           29B8 R
  0 __str_58                           29CC R
  0 __str_59                           2FDA R
  0 _canplayermove                     2C23 GR
  0 _changeCPU                         2E73 GR
  0 _clearScreen                       2F83 GR
  0 _convertTileIndex                  2F20 GR
  0 _copyCPU                           2E5B GR
  1 _cpu                               00D1 GR
  1 _currentList                       00B2 GR
  1 _currentRoom                       00DE GR
    _delay                             **** GX
  0 _displayMonsterInfo                1D80 GR
  0 _displayMonsterList                2070 GR
  0 _displayRoom                       2521 GR
  0 _fadein                            0A3E GR
  0 _fadeout                           0000 GR
  0 _getCPUDefeatedDialog              147E GR
  0 _getCPUIsDefeated                  141E GR
  0 _getCPUMonsterTeam                 0AF9 GR
  0 _get_size                          1C7B GR
    _gotoxy                            **** GX
  0 _init_stack                        14E4 GR
  0 _isCPUCollisionDetected            2C60 GR
  0 _isLookingAtCPU                    2CF3 GR
  0 _isWallCollisionDetected           2BCA GR
  0 _is_empty                          1B16 GR
  0 _is_full                           1B4D GR
    _joypad                            **** GX
  0 _main                              2F5D GR
    _memcpy                            **** GX
  0 _monsters                          14FB GR
  0 _moveInput                         25BF GR
    _move_sprite                       **** GX
  0 _movegamecharacter                 2D60 GR
  0 _onDoor                            29DD GR
  0 _performantdelay                   2FDD GR
  0 _playCollisionSound                0AE4 GR
  0 _playDoorSound                     0AD3 GR
  1 _player                            00C1 GR
  0 _pop                               1BF5 GR
  0 _printPaddedNumber                 1C93 GR
  0 _printPaddedString                 1D18 GR
    _printf                            **** GX
  0 _push                              1B83 GR
  1 _roomType                          00DD GR
  0 _room_bottom_data                  104D GR
  0 _room_bottom_map                   113D GR
  0 _room_middle_data                  0DB5 GR
  0 _room_middle_map                   0EE5 GR
  0 _room_top_data                     0B5D GR
  0 _room_top_map                      0C4D GR
  0 _rooms                             12A5 GR
  1 _s                                 00B3 GR
  0 _selectInput                       2129 GR
  0 _selectMonsters                    2480 GR
  0 _setBackgound                      1F5E GR
  0 _setNavi                           24A7 GR
  0 _setUpEniroment                    2F76 GR
  0 _setUpPlayer                       24B1 GR
    _set_bkg_data                      **** GX
    _set_bkg_tiles                     **** GX
    _set_sprite_data                   **** GX
    _set_sprite_tile                   **** GX
  0 _splashPage                        0A8A GR
  0 _splashscreen_data                 0056 GR
  0 _splashscreen_map                  08D6 GR
  1 _spritesize                        00A1 GR
  0 _startCursor                       1B15 GR
  0 _str_10                            1400 R
  0 _str_12                            1413 R
  0 _str_7                             13E0 R
  0 _str_8                             13F2 R
    _strlen                            **** GX
    _sys_time                          **** GX
  0 _updategamecharacter               2DC4 GR
  1 _wait                              0000 GR
    _wait_vbl_done                     **** GX
    _waitpad                           **** GX
  0 _wall                              0B5C GR

ASxxxx Assembler V01.75  (GameBoy Z80-like CPU), page 2.

Area Table

   0 _CODE                              size 2FF1   flags 0
   1 _DATA                              size   DF   flags 0
   2 _OVERLAY                           size    0   flags 0
   3 _ISEG                              size    0   flags 0
   4 _BSEG                              size    0   flags 0
   5 _XSEG                              size    0   flags 0
   6 _GSINIT                            size  434   flags 0
   7 _GSFINAL                           size    0   flags 0
   8 _HOME                              size    0   flags 0
