                              1 ;--------------------------------------------------------
                              2 ; File Created by SDCC : FreeWare ANSI-C Compiler
                              3 ; Version 2.2.1 Wed Feb 15 11:23:39 2023
                              4 
                              5 ;--------------------------------------------------------
                              6 	.module lcc223240
                              7 	
                              8 ;--------------------------------------------------------
                              9 ; Public variables in this module
                             10 ;--------------------------------------------------------
                             11 	.globl _copyCPU
                             12 	.globl _isWallCollisionDetected
                             13 	.globl _displayRoom
                             14 	.globl _main
                             15 	.globl _isLookingAtCPU
                             16 	.globl _isCPUCollisionDetected
                             17 	.globl _movegamecharacter
                             18 	.globl _updategamecharacter
                             19 	.globl _changeCPU
                             20 	.globl _setUpPlayer
                             21 	.globl _onDoor
                             22 	.globl _Navigation
                             23 	.globl _convertTileIndex
                             24 	.globl _canplayermove
                             25 	.globl _moveInput
                             26 	.globl _setUpEniroment
                             27 	.globl _gotoxy
                             28 	.globl _playCollisionSound
                             29 	.globl _playDoorSound
                             30 	.globl _fadein
                             31 	.globl _fadeout
                             32 	.globl _performantdelay
                             33 	.globl _memcpy
                             34 	.globl _printf
                             35 	.globl _move_sprite
                             36 	.globl _set_sprite_tile
                             37 	.globl _set_sprite_data
                             38 	.globl _set_bkg_tiles
                             39 	.globl _set_bkg_data
                             40 	.globl _wait_vbl_done
                             41 	.globl _waitpad
                             42 	.globl _joypad
                             43 	.globl _delay
                             44 	.globl _currentRoom
                             45 	.globl _roomType
                             46 	.globl _cpu
                             47 	.globl _player
                             48 	.globl _Cursors
                             49 	.globl _spritesize
                             50 	.globl _Female_Player
                             51 	.globl _i
                             52 	.globl _convertTileIndex
                             53 	.globl _changeCPU
                             54 	.globl _copyCPU
                             55 	.globl _updategamecharacter
                             56 	.globl _movegamecharacter
                             57 	.globl _isLookingAtCPU
                             58 	.globl _isCPUCollisionDetected
                             59 	.globl _canplayermove
                             60 	.globl _isWallCollisionDetected
                             61 	.globl _Navigation
                             62 	.globl _onDoor
                             63 	.globl _moveInput
                             64 	.globl _NavgateCurrentRoom
                             65 	.globl _displayRoom
                             66 	.globl _setUpPlayer
                             67 	.globl _setUpEniroment
                             68 	.globl _movementSkip
                             69 	.globl _main
                             70 	.globl _Select_Screen_map
                             71 	.globl _Select_Screen_data
                             72 	.globl _monsters
                             73 	.globl _ElementalTypes
                             74 	.globl _CPU_info
                             75 	.globl _rooms
                             76 	.globl _wall
                             77 	.globl _room_top_map
                             78 	.globl _room_bottom_map
                             79 	.globl _room_middle_map
                             80 	.globl _room_top_data
                             81 	.globl _room_bottom_data
                             82 	.globl _room_middle_data
                             83 	.globl _selectMonsters
                             84 	.globl _playCollisionSound
                             85 	.globl _playDoorSound
                             86 	.globl _splashPage
                             87 	.globl _fadein
                             88 	.globl _fadeout
                             89 	.globl _splashscreen_map
                             90 	.globl _splashscreen_data
                             91 	.globl _performantdelay
                             92 ;--------------------------------------------------------
                             93 ; Externals used
                             94 ;--------------------------------------------------------
                             95 	.globl _IE_REG
                             96 	.globl _SVBK_REG
                             97 	.globl _OCPD_REG
                             98 	.globl _OCPS_REG
                             99 	.globl _BCPD_REG
                            100 	.globl _BCPS_REG
                            101 	.globl _RP_REG
                            102 	.globl _HDMA5_REG
                            103 	.globl _HDMA4_REG
                            104 	.globl _HDMA3_REG
                            105 	.globl _HDMA2_REG
                            106 	.globl _HDMA1_REG
                            107 	.globl _VBK_REG
                            108 	.globl _KEY1_REG
                            109 	.globl _WX_REG
                            110 	.globl _WY_REG
                            111 	.globl _OBP1_REG
                            112 	.globl _OBP0_REG
                            113 	.globl _BGP_REG
                            114 	.globl _DMA_REG
                            115 	.globl _LYC_REG
                            116 	.globl _LY_REG
                            117 	.globl _SCX_REG
                            118 	.globl _SCY_REG
                            119 	.globl _STAT_REG
                            120 	.globl _LCDC_REG
                            121 	.globl _NR52_REG
                            122 	.globl _NR51_REG
                            123 	.globl _NR50_REG
                            124 	.globl _NR44_REG
                            125 	.globl _NR43_REG
                            126 	.globl _NR42_REG
                            127 	.globl _NR41_REG
                            128 	.globl _NR34_REG
                            129 	.globl _NR33_REG
                            130 	.globl _NR32_REG
                            131 	.globl _NR31_REG
                            132 	.globl _NR30_REG
                            133 	.globl _NR24_REG
                            134 	.globl _NR23_REG
                            135 	.globl _NR22_REG
                            136 	.globl _NR21_REG
                            137 	.globl _NR14_REG
                            138 	.globl _NR13_REG
                            139 	.globl _NR12_REG
                            140 	.globl _NR11_REG
                            141 	.globl _NR10_REG
                            142 	.globl _IF_REG
                            143 	.globl _TAC_REG
                            144 	.globl _TMA_REG
                            145 	.globl _TIMA_REG
                            146 	.globl _DIV_REG
                            147 	.globl _SC_REG
                            148 	.globl _SB_REG
                            149 	.globl _P1_REG
                            150 	.globl _monsters
                            151 	.globl __io_out
                            152 	.globl __io_in
                            153 	.globl __io_status
                            154 	.globl _sys_time
                            155 	.globl __cpu
                            156 ;--------------------------------------------------------
                            157 ; special function registers
                            158 ;--------------------------------------------------------
                            159 ;--------------------------------------------------------
                            160 ; special function bits 
                            161 ;--------------------------------------------------------
                            162 ;--------------------------------------------------------
                            163 ; internal ram data
                            164 ;--------------------------------------------------------
                            165 	.area _DATA
   0000                     166 _i::
   0000                     167 	.ds 1
   0001                     168 _Smiler::
   0001                     169 	.ds 32
   0021                     170 _Female_Player::
   0021                     171 	.ds 128
   00A1                     172 _spritesize::
   00A1                     173 	.ds 1
   00A2                     174 _Cursors::
   00A2                     175 	.ds 16
   00B2                     176 _player::
   00B2                     177 	.ds 10
   00BC                     178 _cpu::
   00BC                     179 	.ds 12
   00C8                     180 _roomType::
   00C8                     181 	.ds 1
   00C9                     182 _currentRoom::
   00C9                     183 	.ds 1
                            184 ;--------------------------------------------------------
                            185 ; overlayable items in internal ram 
                            186 ;--------------------------------------------------------
                            187 	.area _OVERLAY
                            188 ;--------------------------------------------------------
                            189 ; indirectly addressable internal ram data
                            190 ;--------------------------------------------------------
                            191 	.area _ISEG
                            192 ;--------------------------------------------------------
                            193 ; bit data
                            194 ;--------------------------------------------------------
                            195 	.area _BSEG
                            196 ;--------------------------------------------------------
                            197 ; external ram data
                            198 ;--------------------------------------------------------
                            199 	.area _XSEG
                            200 ;--------------------------------------------------------
                            201 ; global & static initialisations
                            202 ;--------------------------------------------------------
                            203 	.area _GSINIT
                            204 	.area _GSFINAL
                            205 	.area _GSINIT
                            206 ;	main.c 314
                            207 ; genAssign (pointer)
   0000 11 01 00            208 	ld	de,#_Smiler + 0
   0003 3E 7E               209 	ld	a,#0x7E
   0005 12                  210 	ld	(de),a
                            211 ; genPlus
                            212 ; genPlusIncr
   0006 11 02 00            213 	ld	de,#_Smiler + 0 + 1
                            214 ; genAssign (pointer)
   0009 3E 7E               215 	ld	a,#0x7E
   000B 12                  216 	ld	(de),a
                            217 ; genPlus
                            218 ; genPlusIncr
   000C 11 03 00            219 	ld	de,#_Smiler + 0 + 2
                            220 ; genAssign (pointer)
   000F 3E FF               221 	ld	a,#0xFF
   0011 12                  222 	ld	(de),a
                            223 ; genPlus
                            224 ; genPlusIncr
   0012 11 04 00            225 	ld	de,#_Smiler + 0 + 3
                            226 ; genAssign (pointer)
   0015 3E 81               227 	ld	a,#0x81
   0017 12                  228 	ld	(de),a
                            229 ; genPlus
                            230 ; genPlusIncr
   0018 11 05 00            231 	ld	de,#_Smiler + 0 + 4
                            232 ; genAssign (pointer)
   001B 3E FF               233 	ld	a,#0xFF
   001D 12                  234 	ld	(de),a
                            235 ; genPlus
                            236 ; genPlusIncr
   001E 11 06 00            237 	ld	de,#_Smiler + 0 + 5
                            238 ; genAssign (pointer)
   0021 3E A5               239 	ld	a,#0xA5
   0023 12                  240 	ld	(de),a
                            241 ; genPlus
                            242 ; genPlusIncr
   0024 11 07 00            243 	ld	de,#_Smiler + 0 + 6
                            244 ; genAssign (pointer)
   0027 3E FF               245 	ld	a,#0xFF
   0029 12                  246 	ld	(de),a
                            247 ; genPlus
                            248 ; genPlusIncr
   002A 11 08 00            249 	ld	de,#_Smiler + 0 + 7
                            250 ; genAssign (pointer)
   002D 3E 81               251 	ld	a,#0x81
   002F 12                  252 	ld	(de),a
                            253 ; genPlus
                            254 ; genPlusIncr
   0030 11 09 00            255 	ld	de,#_Smiler + 0 + 8
                            256 ; genAssign (pointer)
   0033 3E FF               257 	ld	a,#0xFF
   0035 12                  258 	ld	(de),a
                            259 ; genPlus
                            260 ; genPlusIncr
   0036 11 0A 00            261 	ld	de,#_Smiler + 0 + 9
                            262 ; genAssign (pointer)
   0039 3E 81               263 	ld	a,#0x81
   003B 12                  264 	ld	(de),a
                            265 ; genPlus
                            266 ; genPlusIncr
   003C 11 0B 00            267 	ld	de,#_Smiler + 0 + 10
                            268 ; genAssign (pointer)
   003F 3E FF               269 	ld	a,#0xFF
   0041 12                  270 	ld	(de),a
                            271 ; genPlus
                            272 ; genPlusIncr
   0042 11 0C 00            273 	ld	de,#_Smiler + 0 + 11
                            274 ; genAssign (pointer)
   0045 3E BD               275 	ld	a,#0xBD
   0047 12                  276 	ld	(de),a
                            277 ; genPlus
                            278 ; genPlusIncr
   0048 11 0D 00            279 	ld	de,#_Smiler + 0 + 12
                            280 ; genAssign (pointer)
   004B 3E FF               281 	ld	a,#0xFF
   004D 12                  282 	ld	(de),a
                            283 ; genPlus
                            284 ; genPlusIncr
   004E 11 0E 00            285 	ld	de,#_Smiler + 0 + 13
                            286 ; genAssign (pointer)
   0051 3E 81               287 	ld	a,#0x81
   0053 12                  288 	ld	(de),a
                            289 ; genPlus
                            290 ; genPlusIncr
   0054 11 0F 00            291 	ld	de,#_Smiler + 0 + 14
                            292 ; genAssign (pointer)
   0057 3E 7E               293 	ld	a,#0x7E
   0059 12                  294 	ld	(de),a
                            295 ; genPlus
                            296 ; genPlusIncr
   005A 11 10 00            297 	ld	de,#_Smiler + 0 + 15
                            298 ; genAssign (pointer)
   005D 3E 7E               299 	ld	a,#0x7E
   005F 12                  300 	ld	(de),a
                            301 ; genPlus
                            302 ; genPlusIncr
   0060 11 11 00            303 	ld	de,#_Smiler + 0 + 16
                            304 ; genAssign (pointer)
   0063 3E 7E               305 	ld	a,#0x7E
   0065 12                  306 	ld	(de),a
                            307 ; genPlus
                            308 ; genPlusIncr
   0066 11 12 00            309 	ld	de,#_Smiler + 0 + 17
                            310 ; genAssign (pointer)
   0069 3E 7E               311 	ld	a,#0x7E
   006B 12                  312 	ld	(de),a
                            313 ; genPlus
                            314 ; genPlusIncr
   006C 11 13 00            315 	ld	de,#_Smiler + 0 + 18
                            316 ; genAssign (pointer)
   006F 3E FF               317 	ld	a,#0xFF
   0071 12                  318 	ld	(de),a
                            319 ; genPlus
                            320 ; genPlusIncr
   0072 11 14 00            321 	ld	de,#_Smiler + 0 + 19
                            322 ; genAssign (pointer)
   0075 3E 81               323 	ld	a,#0x81
   0077 12                  324 	ld	(de),a
                            325 ; genPlus
                            326 ; genPlusIncr
   0078 11 15 00            327 	ld	de,#_Smiler + 0 + 20
                            328 ; genAssign (pointer)
   007B 3E FF               329 	ld	a,#0xFF
   007D 12                  330 	ld	(de),a
                            331 ; genPlus
                            332 ; genPlusIncr
   007E 11 16 00            333 	ld	de,#_Smiler + 0 + 21
                            334 ; genAssign (pointer)
   0081 3E A5               335 	ld	a,#0xA5
   0083 12                  336 	ld	(de),a
                            337 ; genPlus
                            338 ; genPlusIncr
   0084 11 17 00            339 	ld	de,#_Smiler + 0 + 22
                            340 ; genAssign (pointer)
   0087 3E FF               341 	ld	a,#0xFF
   0089 12                  342 	ld	(de),a
                            343 ; genPlus
                            344 ; genPlusIncr
   008A 11 18 00            345 	ld	de,#_Smiler + 0 + 23
                            346 ; genAssign (pointer)
   008D 3E 81               347 	ld	a,#0x81
   008F 12                  348 	ld	(de),a
                            349 ; genPlus
                            350 ; genPlusIncr
   0090 11 19 00            351 	ld	de,#_Smiler + 0 + 24
                            352 ; genAssign (pointer)
   0093 3E FF               353 	ld	a,#0xFF
   0095 12                  354 	ld	(de),a
                            355 ; genPlus
                            356 ; genPlusIncr
   0096 11 1A 00            357 	ld	de,#_Smiler + 0 + 25
                            358 ; genAssign (pointer)
   0099 3E A5               359 	ld	a,#0xA5
   009B 12                  360 	ld	(de),a
                            361 ; genPlus
                            362 ; genPlusIncr
   009C 11 1B 00            363 	ld	de,#_Smiler + 0 + 26
                            364 ; genAssign (pointer)
   009F 3E FF               365 	ld	a,#0xFF
   00A1 12                  366 	ld	(de),a
                            367 ; genPlus
                            368 ; genPlusIncr
   00A2 11 1C 00            369 	ld	de,#_Smiler + 0 + 27
                            370 ; genAssign (pointer)
   00A5 3E 99               371 	ld	a,#0x99
   00A7 12                  372 	ld	(de),a
                            373 ; genPlus
                            374 ; genPlusIncr
   00A8 11 1D 00            375 	ld	de,#_Smiler + 0 + 28
                            376 ; genAssign (pointer)
   00AB 3E FF               377 	ld	a,#0xFF
   00AD 12                  378 	ld	(de),a
                            379 ; genPlus
                            380 ; genPlusIncr
   00AE 11 1E 00            381 	ld	de,#_Smiler + 0 + 29
                            382 ; genAssign (pointer)
   00B1 3E 81               383 	ld	a,#0x81
   00B3 12                  384 	ld	(de),a
                            385 ; genPlus
                            386 ; genPlusIncr
   00B4 11 1F 00            387 	ld	de,#_Smiler + 0 + 30
                            388 ; genAssign (pointer)
   00B7 3E 7E               389 	ld	a,#0x7E
   00B9 12                  390 	ld	(de),a
                            391 ; genPlus
                            392 ; genPlusIncr
   00BA 11 20 00            393 	ld	de,#_Smiler + 0 + 31
                            394 ; genAssign (pointer)
   00BD 3E 7E               395 	ld	a,#0x7E
   00BF 12                  396 	ld	(de),a
                            397 ;	main.c 314
                            398 ; genAssign (pointer)
   00C0 11 21 00            399 	ld	de,#_Female_Player + 0
   00C3 3E 01               400 	ld	a,#0x01
   00C5 12                  401 	ld	(de),a
                            402 ; genPlus
                            403 ; genPlusIncr
   00C6 11 22 00            404 	ld	de,#_Female_Player + 0 + 1
                            405 ; genAssign (pointer)
   00C9 3E 00               406 	ld	a,#0x00
   00CB 12                  407 	ld	(de),a
                            408 ; genPlus
                            409 ; genPlusIncr
   00CC 11 23 00            410 	ld	de,#_Female_Player + 0 + 2
                            411 ; genAssign (pointer)
   00CF 3E 01               412 	ld	a,#0x01
   00D1 12                  413 	ld	(de),a
                            414 ; genPlus
                            415 ; genPlusIncr
   00D2 11 24 00            416 	ld	de,#_Female_Player + 0 + 3
                            417 ; genAssign (pointer)
   00D5 3E 01               418 	ld	a,#0x01
   00D7 12                  419 	ld	(de),a
                            420 ; genPlus
                            421 ; genPlusIncr
   00D8 11 25 00            422 	ld	de,#_Female_Player + 0 + 4
                            423 ; genAssign (pointer)
   00DB 3E 01               424 	ld	a,#0x01
   00DD 12                  425 	ld	(de),a
                            426 ; genPlus
                            427 ; genPlusIncr
   00DE 11 26 00            428 	ld	de,#_Female_Player + 0 + 5
                            429 ; genAssign (pointer)
   00E1 3E 01               430 	ld	a,#0x01
   00E3 12                  431 	ld	(de),a
                            432 ; genPlus
                            433 ; genPlusIncr
   00E4 11 27 00            434 	ld	de,#_Female_Player + 0 + 6
                            435 ; genAssign (pointer)
   00E7 3E 81               436 	ld	a,#0x81
   00E9 12                  437 	ld	(de),a
                            438 ; genPlus
                            439 ; genPlusIncr
   00EA 11 28 00            440 	ld	de,#_Female_Player + 0 + 7
                            441 ; genAssign (pointer)
   00ED 3E 01               442 	ld	a,#0x01
   00EF 12                  443 	ld	(de),a
                            444 ; genPlus
                            445 ; genPlusIncr
   00F0 11 29 00            446 	ld	de,#_Female_Player + 0 + 8
                            447 ; genAssign (pointer)
   00F3 3E 81               448 	ld	a,#0x81
   00F5 12                  449 	ld	(de),a
                            450 ; genPlus
                            451 ; genPlusIncr
   00F6 11 2A 00            452 	ld	de,#_Female_Player + 0 + 9
                            453 ; genAssign (pointer)
   00F9 3E 81               454 	ld	a,#0x81
   00FB 12                  455 	ld	(de),a
                            456 ; genPlus
                            457 ; genPlusIncr
   00FC 11 2B 00            458 	ld	de,#_Female_Player + 0 + 10
                            459 ; genAssign (pointer)
   00FF 3E 81               460 	ld	a,#0x81
   0101 12                  461 	ld	(de),a
                            462 ; genPlus
                            463 ; genPlusIncr
   0102 11 2C 00            464 	ld	de,#_Female_Player + 0 + 11
                            465 ; genAssign (pointer)
   0105 3E 82               466 	ld	a,#0x82
   0107 12                  467 	ld	(de),a
                            468 ; genPlus
                            469 ; genPlusIncr
   0108 11 2D 00            470 	ld	de,#_Female_Player + 0 + 12
                            471 ; genAssign (pointer)
   010B 3E 03               472 	ld	a,#0x03
   010D 12                  473 	ld	(de),a
                            474 ; genPlus
                            475 ; genPlusIncr
   010E 11 2E 00            476 	ld	de,#_Female_Player + 0 + 13
                            477 ; genAssign (pointer)
   0111 3E E4               478 	ld	a,#0xE4
   0113 12                  479 	ld	(de),a
                            480 ; genPlus
                            481 ; genPlusIncr
   0114 11 2F 00            482 	ld	de,#_Female_Player + 0 + 14
                            483 ; genAssign (pointer)
   0117 3E 67               484 	ld	a,#0x67
   0119 12                  485 	ld	(de),a
                            486 ; genPlus
                            487 ; genPlusIncr
   011A 11 30 00            488 	ld	de,#_Female_Player + 0 + 15
                            489 ; genAssign (pointer)
   011D 3E 99               490 	ld	a,#0x99
   011F 12                  491 	ld	(de),a
                            492 ; genPlus
                            493 ; genPlusIncr
   0120 11 31 00            494 	ld	de,#_Female_Player + 0 + 16
                            495 ; genAssign (pointer)
   0123 3E 80               496 	ld	a,#0x80
   0125 12                  497 	ld	(de),a
                            498 ; genPlus
                            499 ; genPlusIncr
   0126 11 32 00            500 	ld	de,#_Female_Player + 0 + 17
                            501 ; genAssign (pointer)
   0129 3E 00               502 	ld	a,#0x00
   012B 12                  503 	ld	(de),a
                            504 ; genPlus
                            505 ; genPlusIncr
   012C 11 33 00            506 	ld	de,#_Female_Player + 0 + 18
                            507 ; genAssign (pointer)
   012F 3E 80               508 	ld	a,#0x80
   0131 12                  509 	ld	(de),a
                            510 ; genPlus
                            511 ; genPlusIncr
   0132 11 34 00            512 	ld	de,#_Female_Player + 0 + 19
                            513 ; genAssign (pointer)
   0135 3E 80               514 	ld	a,#0x80
   0137 12                  515 	ld	(de),a
                            516 ; genPlus
                            517 ; genPlusIncr
   0138 11 35 00            518 	ld	de,#_Female_Player + 0 + 20
                            519 ; genAssign (pointer)
   013B 3E 80               520 	ld	a,#0x80
   013D 12                  521 	ld	(de),a
                            522 ; genPlus
                            523 ; genPlusIncr
   013E 11 36 00            524 	ld	de,#_Female_Player + 0 + 21
                            525 ; genAssign (pointer)
   0141 3E 80               526 	ld	a,#0x80
   0143 12                  527 	ld	(de),a
                            528 ; genPlus
                            529 ; genPlusIncr
   0144 11 37 00            530 	ld	de,#_Female_Player + 0 + 22
                            531 ; genAssign (pointer)
   0147 3E 81               532 	ld	a,#0x81
   0149 12                  533 	ld	(de),a
                            534 ; genPlus
                            535 ; genPlusIncr
   014A 11 38 00            536 	ld	de,#_Female_Player + 0 + 23
                            537 ; genAssign (pointer)
   014D 3E 80               538 	ld	a,#0x80
   014F 12                  539 	ld	(de),a
                            540 ; genPlus
                            541 ; genPlusIncr
   0150 11 39 00            542 	ld	de,#_Female_Player + 0 + 24
                            543 ; genAssign (pointer)
   0153 3E 81               544 	ld	a,#0x81
   0155 12                  545 	ld	(de),a
                            546 ; genPlus
                            547 ; genPlusIncr
   0156 11 3A 00            548 	ld	de,#_Female_Player + 0 + 25
                            549 ; genAssign (pointer)
   0159 3E 81               550 	ld	a,#0x81
   015B 12                  551 	ld	(de),a
                            552 ; genPlus
                            553 ; genPlusIncr
   015C 11 3B 00            554 	ld	de,#_Female_Player + 0 + 26
                            555 ; genAssign (pointer)
   015F 3E 81               556 	ld	a,#0x81
   0161 12                  557 	ld	(de),a
                            558 ; genPlus
                            559 ; genPlusIncr
   0162 11 3C 00            560 	ld	de,#_Female_Player + 0 + 27
                            561 ; genAssign (pointer)
   0165 3E 41               562 	ld	a,#0x41
   0167 12                  563 	ld	(de),a
                            564 ; genPlus
                            565 ; genPlusIncr
   0168 11 3D 00            566 	ld	de,#_Female_Player + 0 + 28
                            567 ; genAssign (pointer)
   016B 3E C0               568 	ld	a,#0xC0
   016D 12                  569 	ld	(de),a
                            570 ; genPlus
                            571 ; genPlusIncr
   016E 11 3E 00            572 	ld	de,#_Female_Player + 0 + 29
                            573 ; genAssign (pointer)
   0171 3E 27               574 	ld	a,#0x27
   0173 12                  575 	ld	(de),a
                            576 ; genPlus
                            577 ; genPlusIncr
   0174 11 3F 00            578 	ld	de,#_Female_Player + 0 + 30
                            579 ; genAssign (pointer)
   0177 3E E6               580 	ld	a,#0xE6
   0179 12                  581 	ld	(de),a
                            582 ; genPlus
                            583 ; genPlusIncr
   017A 11 40 00            584 	ld	de,#_Female_Player + 0 + 31
                            585 ; genAssign (pointer)
   017D 3E 99               586 	ld	a,#0x99
   017F 12                  587 	ld	(de),a
                            588 ; genPlus
                            589 ; genPlusIncr
   0180 11 41 00            590 	ld	de,#_Female_Player + 0 + 32
                            591 ; genAssign (pointer)
   0183 3E 7F               592 	ld	a,#0x7F
   0185 12                  593 	ld	(de),a
                            594 ; genPlus
                            595 ; genPlusIncr
   0186 11 42 00            596 	ld	de,#_Female_Player + 0 + 33
                            597 ; genAssign (pointer)
   0189 3E 81               598 	ld	a,#0x81
   018B 12                  599 	ld	(de),a
                            600 ; genPlus
                            601 ; genPlusIncr
   018C 11 43 00            602 	ld	de,#_Female_Player + 0 + 34
                            603 ; genAssign (pointer)
   018F 3E 3F               604 	ld	a,#0x3F
   0191 12                  605 	ld	(de),a
                            606 ; genPlus
                            607 ; genPlusIncr
   0192 11 44 00            608 	ld	de,#_Female_Player + 0 + 35
                            609 ; genAssign (pointer)
   0195 3E 41               610 	ld	a,#0x41
   0197 12                  611 	ld	(de),a
                            612 ; genPlus
                            613 ; genPlusIncr
   0198 11 45 00            614 	ld	de,#_Female_Player + 0 + 36
                            615 ; genAssign (pointer)
   019B 3E 0F               616 	ld	a,#0x0F
   019D 12                  617 	ld	(de),a
                            618 ; genPlus
                            619 ; genPlusIncr
   019E 11 46 00            620 	ld	de,#_Female_Player + 0 + 37
                            621 ; genAssign (pointer)
   01A1 3E 30               622 	ld	a,#0x30
   01A3 12                  623 	ld	(de),a
                            624 ; genPlus
                            625 ; genPlusIncr
   01A4 11 47 00            626 	ld	de,#_Female_Player + 0 + 38
                            627 ; genAssign (pointer)
   01A7 3E 01               628 	ld	a,#0x01
   01A9 12                  629 	ld	(de),a
                            630 ; genPlus
                            631 ; genPlusIncr
   01AA 11 48 00            632 	ld	de,#_Female_Player + 0 + 39
                            633 ; genAssign (pointer)
   01AD 3E 0E               634 	ld	a,#0x0E
   01AF 12                  635 	ld	(de),a
                            636 ; genPlus
                            637 ; genPlusIncr
   01B0 11 49 00            638 	ld	de,#_Female_Player + 0 + 40
                            639 ; genAssign (pointer)
   01B3 3E 08               640 	ld	a,#0x08
   01B5 12                  641 	ld	(de),a
                            642 ; genPlus
                            643 ; genPlusIncr
   01B6 11 4A 00            644 	ld	de,#_Female_Player + 0 + 41
                            645 ; genAssign (pointer)
   01B9 3E 01               646 	ld	a,#0x01
   01BB 12                  647 	ld	(de),a
                            648 ; genPlus
                            649 ; genPlusIncr
   01BC 11 4B 00            650 	ld	de,#_Female_Player + 0 + 42
                            651 ; genAssign (pointer)
   01BF 3E 1C               652 	ld	a,#0x1C
   01C1 12                  653 	ld	(de),a
                            654 ; genPlus
                            655 ; genPlusIncr
   01C2 11 4C 00            656 	ld	de,#_Female_Player + 0 + 43
                            657 ; genAssign (pointer)
   01C5 3E 00               658 	ld	a,#0x00
   01C7 12                  659 	ld	(de),a
                            660 ; genPlus
                            661 ; genPlusIncr
   01C8 11 4D 00            662 	ld	de,#_Female_Player + 0 + 44
                            663 ; genAssign (pointer)
   01CB 3E 2A               664 	ld	a,#0x2A
   01CD 12                  665 	ld	(de),a
                            666 ; genPlus
                            667 ; genPlusIncr
   01CE 11 4E 00            668 	ld	de,#_Female_Player + 0 + 45
                            669 ; genAssign (pointer)
   01D1 3E 00               670 	ld	a,#0x00
   01D3 12                  671 	ld	(de),a
                            672 ; genPlus
                            673 ; genPlusIncr
   01D4 11 4F 00            674 	ld	de,#_Female_Player + 0 + 46
                            675 ; genAssign (pointer)
   01D7 3E 00               676 	ld	a,#0x00
   01D9 12                  677 	ld	(de),a
                            678 ; genPlus
                            679 ; genPlusIncr
   01DA 11 50 00            680 	ld	de,#_Female_Player + 0 + 47
                            681 ; genAssign (pointer)
   01DD 3E 00               682 	ld	a,#0x00
   01DF 12                  683 	ld	(de),a
                            684 ; genPlus
                            685 ; genPlusIncr
   01E0 11 51 00            686 	ld	de,#_Female_Player + 0 + 48
                            687 ; genAssign (pointer)
   01E3 3E FE               688 	ld	a,#0xFE
   01E5 12                  689 	ld	(de),a
                            690 ; genPlus
                            691 ; genPlusIncr
   01E6 11 52 00            692 	ld	de,#_Female_Player + 0 + 49
                            693 ; genAssign (pointer)
   01E9 3E 81               694 	ld	a,#0x81
   01EB 12                  695 	ld	(de),a
                            696 ; genPlus
                            697 ; genPlusIncr
   01EC 11 53 00            698 	ld	de,#_Female_Player + 0 + 50
                            699 ; genAssign (pointer)
   01EF 3E FC               700 	ld	a,#0xFC
   01F1 12                  701 	ld	(de),a
                            702 ; genPlus
                            703 ; genPlusIncr
   01F2 11 54 00            704 	ld	de,#_Female_Player + 0 + 51
                            705 ; genAssign (pointer)
   01F5 3E 82               706 	ld	a,#0x82
   01F7 12                  707 	ld	(de),a
                            708 ; genPlus
                            709 ; genPlusIncr
   01F8 11 55 00            710 	ld	de,#_Female_Player + 0 + 52
                            711 ; genAssign (pointer)
   01FB 3E F0               712 	ld	a,#0xF0
   01FD 12                  713 	ld	(de),a
                            714 ; genPlus
                            715 ; genPlusIncr
   01FE 11 56 00            716 	ld	de,#_Female_Player + 0 + 53
                            717 ; genAssign (pointer)
   0201 3E 0C               718 	ld	a,#0x0C
   0203 12                  719 	ld	(de),a
                            720 ; genPlus
                            721 ; genPlusIncr
   0204 11 57 00            722 	ld	de,#_Female_Player + 0 + 54
                            723 ; genAssign (pointer)
   0207 3E 80               724 	ld	a,#0x80
   0209 12                  725 	ld	(de),a
                            726 ; genPlus
                            727 ; genPlusIncr
   020A 11 58 00            728 	ld	de,#_Female_Player + 0 + 55
                            729 ; genAssign (pointer)
   020D 3E 70               730 	ld	a,#0x70
   020F 12                  731 	ld	(de),a
                            732 ; genPlus
                            733 ; genPlusIncr
   0210 11 59 00            734 	ld	de,#_Female_Player + 0 + 56
                            735 ; genAssign (pointer)
   0213 3E 10               736 	ld	a,#0x10
   0215 12                  737 	ld	(de),a
                            738 ; genPlus
                            739 ; genPlusIncr
   0216 11 5A 00            740 	ld	de,#_Female_Player + 0 + 57
                            741 ; genAssign (pointer)
   0219 3E 80               742 	ld	a,#0x80
   021B 12                  743 	ld	(de),a
                            744 ; genPlus
                            745 ; genPlusIncr
   021C 11 5B 00            746 	ld	de,#_Female_Player + 0 + 58
                            747 ; genAssign (pointer)
   021F 3E 38               748 	ld	a,#0x38
   0221 12                  749 	ld	(de),a
                            750 ; genPlus
                            751 ; genPlusIncr
   0222 11 5C 00            752 	ld	de,#_Female_Player + 0 + 59
                            753 ; genAssign (pointer)
   0225 3E 00               754 	ld	a,#0x00
   0227 12                  755 	ld	(de),a
                            756 ; genPlus
                            757 ; genPlusIncr
   0228 11 5D 00            758 	ld	de,#_Female_Player + 0 + 60
                            759 ; genAssign (pointer)
   022B 3E 54               760 	ld	a,#0x54
   022D 12                  761 	ld	(de),a
                            762 ; genPlus
                            763 ; genPlusIncr
   022E 11 5E 00            764 	ld	de,#_Female_Player + 0 + 61
                            765 ; genAssign (pointer)
   0231 3E 00               766 	ld	a,#0x00
   0233 12                  767 	ld	(de),a
                            768 ; genPlus
                            769 ; genPlusIncr
   0234 11 5F 00            770 	ld	de,#_Female_Player + 0 + 62
                            771 ; genAssign (pointer)
   0237 3E 00               772 	ld	a,#0x00
   0239 12                  773 	ld	(de),a
                            774 ; genPlus
                            775 ; genPlusIncr
   023A 11 60 00            776 	ld	de,#_Female_Player + 0 + 63
                            777 ; genAssign (pointer)
   023D 3E 00               778 	ld	a,#0x00
   023F 12                  779 	ld	(de),a
                            780 ; genPlus
                            781 ; genPlusIncr
   0240 11 61 00            782 	ld	de,#_Female_Player + 0 + 64
                            783 ; genAssign (pointer)
   0243 3E 80               784 	ld	a,#0x80
   0245 12                  785 	ld	(de),a
                            786 ; genPlus
                            787 ; genPlusIncr
   0246 11 62 00            788 	ld	de,#_Female_Player + 0 + 65
                            789 ; genAssign (pointer)
   0249 3E 00               790 	ld	a,#0x00
   024B 12                  791 	ld	(de),a
                            792 ; genPlus
                            793 ; genPlusIncr
   024C 11 63 00            794 	ld	de,#_Female_Player + 0 + 66
                            795 ; genAssign (pointer)
   024F 3E 80               796 	ld	a,#0x80
   0251 12                  797 	ld	(de),a
                            798 ; genPlus
                            799 ; genPlusIncr
   0252 11 64 00            800 	ld	de,#_Female_Player + 0 + 67
                            801 ; genAssign (pointer)
   0255 3E 00               802 	ld	a,#0x00
   0257 12                  803 	ld	(de),a
                            804 ; genPlus
                            805 ; genPlusIncr
   0258 11 65 00            806 	ld	de,#_Female_Player + 0 + 68
                            807 ; genAssign (pointer)
   025B 3E 80               808 	ld	a,#0x80
   025D 12                  809 	ld	(de),a
                            810 ; genPlus
                            811 ; genPlusIncr
   025E 11 66 00            812 	ld	de,#_Female_Player + 0 + 69
                            813 ; genAssign (pointer)
   0261 3E 00               814 	ld	a,#0x00
   0263 12                  815 	ld	(de),a
                            816 ; genPlus
                            817 ; genPlusIncr
   0264 11 67 00            818 	ld	de,#_Female_Player + 0 + 70
                            819 ; genAssign (pointer)
   0267 3E 80               820 	ld	a,#0x80
   0269 12                  821 	ld	(de),a
                            822 ; genPlus
                            823 ; genPlusIncr
   026A 11 68 00            824 	ld	de,#_Female_Player + 0 + 71
                            825 ; genAssign (pointer)
   026D 3E 00               826 	ld	a,#0x00
   026F 12                  827 	ld	(de),a
                            828 ; genPlus
                            829 ; genPlusIncr
   0270 11 69 00            830 	ld	de,#_Female_Player + 0 + 72
                            831 ; genAssign (pointer)
   0273 3E 40               832 	ld	a,#0x40
   0275 12                  833 	ld	(de),a
                            834 ; genPlus
                            835 ; genPlusIncr
   0276 11 6A 00            836 	ld	de,#_Female_Player + 0 + 73
                            837 ; genAssign (pointer)
   0279 3E 07               838 	ld	a,#0x07
   027B 12                  839 	ld	(de),a
                            840 ; genPlus
                            841 ; genPlusIncr
   027C 11 6B 00            842 	ld	de,#_Female_Player + 0 + 74
                            843 ; genAssign (pointer)
   027F 3E 47               844 	ld	a,#0x47
   0281 12                  845 	ld	(de),a
                            846 ; genPlus
                            847 ; genPlusIncr
   0282 11 6C 00            848 	ld	de,#_Female_Player + 0 + 75
                            849 ; genAssign (pointer)
   0285 3E 0F               850 	ld	a,#0x0F
   0287 12                  851 	ld	(de),a
                            852 ; genPlus
                            853 ; genPlusIncr
   0288 11 6D 00            854 	ld	de,#_Female_Player + 0 + 76
                            855 ; genAssign (pointer)
   028B 3E 3F               856 	ld	a,#0x3F
   028D 12                  857 	ld	(de),a
                            858 ; genPlus
                            859 ; genPlusIncr
   028E 11 6E 00            860 	ld	de,#_Female_Player + 0 + 77
                            861 ; genAssign (pointer)
   0291 3E 0F               862 	ld	a,#0x0F
   0293 12                  863 	ld	(de),a
                            864 ; genPlus
                            865 ; genPlusIncr
   0294 11 6F 00            866 	ld	de,#_Female_Player + 0 + 78
                            867 ; genAssign (pointer)
   0297 3E 0F               868 	ld	a,#0x0F
   0299 12                  869 	ld	(de),a
                            870 ; genPlus
                            871 ; genPlusIncr
   029A 11 70 00            872 	ld	de,#_Female_Player + 0 + 79
                            873 ; genAssign (pointer)
   029D 3E 1F               874 	ld	a,#0x1F
   029F 12                  875 	ld	(de),a
                            876 ; genPlus
                            877 ; genPlusIncr
   02A0 11 71 00            878 	ld	de,#_Female_Player + 0 + 80
                            879 ; genAssign (pointer)
   02A3 3E 01               880 	ld	a,#0x01
   02A5 12                  881 	ld	(de),a
                            882 ; genPlus
                            883 ; genPlusIncr
   02A6 11 72 00            884 	ld	de,#_Female_Player + 0 + 81
                            885 ; genAssign (pointer)
   02A9 3E 00               886 	ld	a,#0x00
   02AB 12                  887 	ld	(de),a
                            888 ; genPlus
                            889 ; genPlusIncr
   02AC 11 73 00            890 	ld	de,#_Female_Player + 0 + 82
                            891 ; genAssign (pointer)
   02AF 3E 01               892 	ld	a,#0x01
   02B1 12                  893 	ld	(de),a
                            894 ; genPlus
                            895 ; genPlusIncr
   02B2 11 74 00            896 	ld	de,#_Female_Player + 0 + 83
                            897 ; genAssign (pointer)
   02B5 3E 00               898 	ld	a,#0x00
   02B7 12                  899 	ld	(de),a
                            900 ; genPlus
                            901 ; genPlusIncr
   02B8 11 75 00            902 	ld	de,#_Female_Player + 0 + 84
                            903 ; genAssign (pointer)
   02BB 3E 01               904 	ld	a,#0x01
   02BD 12                  905 	ld	(de),a
                            906 ; genPlus
                            907 ; genPlusIncr
   02BE 11 76 00            908 	ld	de,#_Female_Player + 0 + 85
                            909 ; genAssign (pointer)
   02C1 3E 00               910 	ld	a,#0x00
   02C3 12                  911 	ld	(de),a
                            912 ; genPlus
                            913 ; genPlusIncr
   02C4 11 77 00            914 	ld	de,#_Female_Player + 0 + 86
                            915 ; genAssign (pointer)
   02C7 3E 01               916 	ld	a,#0x01
   02C9 12                  917 	ld	(de),a
                            918 ; genPlus
                            919 ; genPlusIncr
   02CA 11 78 00            920 	ld	de,#_Female_Player + 0 + 87
                            921 ; genAssign (pointer)
   02CD 3E 00               922 	ld	a,#0x00
   02CF 12                  923 	ld	(de),a
                            924 ; genPlus
                            925 ; genPlusIncr
   02D0 11 79 00            926 	ld	de,#_Female_Player + 0 + 88
                            927 ; genAssign (pointer)
   02D3 3E 02               928 	ld	a,#0x02
   02D5 12                  929 	ld	(de),a
                            930 ; genPlus
                            931 ; genPlusIncr
   02D6 11 7A 00            932 	ld	de,#_Female_Player + 0 + 89
                            933 ; genAssign (pointer)
   02D9 3E E0               934 	ld	a,#0xE0
   02DB 12                  935 	ld	(de),a
                            936 ; genPlus
                            937 ; genPlusIncr
   02DC 11 7B 00            938 	ld	de,#_Female_Player + 0 + 90
                            939 ; genAssign (pointer)
   02DF 3E E2               940 	ld	a,#0xE2
   02E1 12                  941 	ld	(de),a
                            942 ; genPlus
                            943 ; genPlusIncr
   02E2 11 7C 00            944 	ld	de,#_Female_Player + 0 + 91
                            945 ; genAssign (pointer)
   02E5 3E F0               946 	ld	a,#0xF0
   02E7 12                  947 	ld	(de),a
                            948 ; genPlus
                            949 ; genPlusIncr
   02E8 11 7D 00            950 	ld	de,#_Female_Player + 0 + 92
                            951 ; genAssign (pointer)
   02EB 3E FC               952 	ld	a,#0xFC
   02ED 12                  953 	ld	(de),a
                            954 ; genPlus
                            955 ; genPlusIncr
   02EE 11 7E 00            956 	ld	de,#_Female_Player + 0 + 93
                            957 ; genAssign (pointer)
   02F1 3E F0               958 	ld	a,#0xF0
   02F3 12                  959 	ld	(de),a
                            960 ; genPlus
                            961 ; genPlusIncr
   02F4 11 7F 00            962 	ld	de,#_Female_Player + 0 + 94
                            963 ; genAssign (pointer)
   02F7 3E F0               964 	ld	a,#0xF0
   02F9 12                  965 	ld	(de),a
                            966 ; genPlus
                            967 ; genPlusIncr
   02FA 11 80 00            968 	ld	de,#_Female_Player + 0 + 95
                            969 ; genAssign (pointer)
   02FD 3E F8               970 	ld	a,#0xF8
   02FF 12                  971 	ld	(de),a
                            972 ; genPlus
                            973 ; genPlusIncr
   0300 11 81 00            974 	ld	de,#_Female_Player + 0 + 96
                            975 ; genAssign (pointer)
   0303 3E 0D               976 	ld	a,#0x0D
   0305 12                  977 	ld	(de),a
                            978 ; genPlus
                            979 ; genPlusIncr
   0306 11 82 00            980 	ld	de,#_Female_Player + 0 + 97
                            981 ; genAssign (pointer)
   0309 3E 1D               982 	ld	a,#0x1D
   030B 12                  983 	ld	(de),a
                            984 ; genPlus
                            985 ; genPlusIncr
   030C 11 83 00            986 	ld	de,#_Female_Player + 0 + 98
                            987 ; genAssign (pointer)
   030F 3E 3D               988 	ld	a,#0x3D
   0311 12                  989 	ld	(de),a
                            990 ; genPlus
                            991 ; genPlusIncr
   0312 11 84 00            992 	ld	de,#_Female_Player + 0 + 99
                            993 ; genAssign (pointer)
   0315 3E 0D               994 	ld	a,#0x0D
   0317 12                  995 	ld	(de),a
                            996 ; genPlus
                            997 ; genPlusIncr
   0318 11 85 00            998 	ld	de,#_Female_Player + 0 + 100
                            999 ; genAssign (pointer)
   031B 3E 47              1000 	ld	a,#0x47
   031D 12                 1001 	ld	(de),a
                           1002 ; genPlus
                           1003 ; genPlusIncr
   031E 11 86 00           1004 	ld	de,#_Female_Player + 0 + 101
                           1005 ; genAssign (pointer)
   0321 3E 0F              1006 	ld	a,#0x0F
   0323 12                 1007 	ld	(de),a
                           1008 ; genPlus
                           1009 ; genPlusIncr
   0324 11 87 00           1010 	ld	de,#_Female_Player + 0 + 102
                           1011 ; genAssign (pointer)
   0327 3E 43              1012 	ld	a,#0x43
   0329 12                 1013 	ld	(de),a
                           1014 ; genPlus
                           1015 ; genPlusIncr
   032A 11 88 00           1016 	ld	de,#_Female_Player + 0 + 103
                           1017 ; genAssign (pointer)
   032D 3E 07              1018 	ld	a,#0x07
   032F 12                 1019 	ld	(de),a
                           1020 ; genPlus
                           1021 ; genPlusIncr
   0330 11 89 00           1022 	ld	de,#_Female_Player + 0 + 104
                           1023 ; genAssign (pointer)
   0333 3E 80              1024 	ld	a,#0x80
   0335 12                 1025 	ld	(de),a
                           1026 ; genPlus
                           1027 ; genPlusIncr
   0336 11 8A 00           1028 	ld	de,#_Female_Player + 0 + 105
                           1029 ; genAssign (pointer)
   0339 3E 03              1030 	ld	a,#0x03
   033B 12                 1031 	ld	(de),a
                           1032 ; genPlus
                           1033 ; genPlusIncr
   033C 11 8B 00           1034 	ld	de,#_Female_Player + 0 + 106
                           1035 ; genAssign (pointer)
   033F 3E 80              1036 	ld	a,#0x80
   0341 12                 1037 	ld	(de),a
                           1038 ; genPlus
                           1039 ; genPlusIncr
   0342 11 8C 00           1040 	ld	de,#_Female_Player + 0 + 107
                           1041 ; genAssign (pointer)
   0345 3E 00              1042 	ld	a,#0x00
   0347 12                 1043 	ld	(de),a
                           1044 ; genPlus
                           1045 ; genPlusIncr
   0348 11 8D 00           1046 	ld	de,#_Female_Player + 0 + 108
                           1047 ; genAssign (pointer)
   034B 3E 80              1048 	ld	a,#0x80
   034D 12                 1049 	ld	(de),a
                           1050 ; genPlus
                           1051 ; genPlusIncr
   034E 11 8E 00           1052 	ld	de,#_Female_Player + 0 + 109
                           1053 ; genAssign (pointer)
   0351 3E 00              1054 	ld	a,#0x00
   0353 12                 1055 	ld	(de),a
                           1056 ; genPlus
                           1057 ; genPlusIncr
   0354 11 8F 00           1058 	ld	de,#_Female_Player + 0 + 110
                           1059 ; genAssign (pointer)
   0357 3E 80              1060 	ld	a,#0x80
   0359 12                 1061 	ld	(de),a
                           1062 ; genPlus
                           1063 ; genPlusIncr
   035A 11 90 00           1064 	ld	de,#_Female_Player + 0 + 111
                           1065 ; genAssign (pointer)
   035D 3E 00              1066 	ld	a,#0x00
   035F 12                 1067 	ld	(de),a
                           1068 ; genPlus
                           1069 ; genPlusIncr
   0360 11 91 00           1070 	ld	de,#_Female_Player + 0 + 112
                           1071 ; genAssign (pointer)
   0363 3E B0              1072 	ld	a,#0xB0
   0365 12                 1073 	ld	(de),a
                           1074 ; genPlus
                           1075 ; genPlusIncr
   0366 11 92 00           1076 	ld	de,#_Female_Player + 0 + 113
                           1077 ; genAssign (pointer)
   0369 3E B8              1078 	ld	a,#0xB8
   036B 12                 1079 	ld	(de),a
                           1080 ; genPlus
                           1081 ; genPlusIncr
   036C 11 93 00           1082 	ld	de,#_Female_Player + 0 + 114
                           1083 ; genAssign (pointer)
   036F 3E BC              1084 	ld	a,#0xBC
   0371 12                 1085 	ld	(de),a
                           1086 ; genPlus
                           1087 ; genPlusIncr
   0372 11 94 00           1088 	ld	de,#_Female_Player + 0 + 115
                           1089 ; genAssign (pointer)
   0375 3E B0              1090 	ld	a,#0xB0
   0377 12                 1091 	ld	(de),a
                           1092 ; genPlus
                           1093 ; genPlusIncr
   0378 11 95 00           1094 	ld	de,#_Female_Player + 0 + 116
                           1095 ; genAssign (pointer)
   037B 3E E2              1096 	ld	a,#0xE2
   037D 12                 1097 	ld	(de),a
                           1098 ; genPlus
                           1099 ; genPlusIncr
   037E 11 96 00           1100 	ld	de,#_Female_Player + 0 + 117
                           1101 ; genAssign (pointer)
   0381 3E F0              1102 	ld	a,#0xF0
   0383 12                 1103 	ld	(de),a
                           1104 ; genPlus
                           1105 ; genPlusIncr
   0384 11 97 00           1106 	ld	de,#_Female_Player + 0 + 118
                           1107 ; genAssign (pointer)
   0387 3E C2              1108 	ld	a,#0xC2
   0389 12                 1109 	ld	(de),a
                           1110 ; genPlus
                           1111 ; genPlusIncr
   038A 11 98 00           1112 	ld	de,#_Female_Player + 0 + 119
                           1113 ; genAssign (pointer)
   038D 3E E0              1114 	ld	a,#0xE0
   038F 12                 1115 	ld	(de),a
                           1116 ; genPlus
                           1117 ; genPlusIncr
   0390 11 99 00           1118 	ld	de,#_Female_Player + 0 + 120
                           1119 ; genAssign (pointer)
   0393 3E 01              1120 	ld	a,#0x01
   0395 12                 1121 	ld	(de),a
                           1122 ; genPlus
                           1123 ; genPlusIncr
   0396 11 9A 00           1124 	ld	de,#_Female_Player + 0 + 121
                           1125 ; genAssign (pointer)
   0399 3E C0              1126 	ld	a,#0xC0
   039B 12                 1127 	ld	(de),a
                           1128 ; genPlus
                           1129 ; genPlusIncr
   039C 11 9B 00           1130 	ld	de,#_Female_Player + 0 + 122
                           1131 ; genAssign (pointer)
   039F 3E 01              1132 	ld	a,#0x01
   03A1 12                 1133 	ld	(de),a
                           1134 ; genPlus
                           1135 ; genPlusIncr
   03A2 11 9C 00           1136 	ld	de,#_Female_Player + 0 + 123
                           1137 ; genAssign (pointer)
   03A5 3E 00              1138 	ld	a,#0x00
   03A7 12                 1139 	ld	(de),a
                           1140 ; genPlus
                           1141 ; genPlusIncr
   03A8 11 9D 00           1142 	ld	de,#_Female_Player + 0 + 124
                           1143 ; genAssign (pointer)
   03AB 3E 01              1144 	ld	a,#0x01
   03AD 12                 1145 	ld	(de),a
                           1146 ; genPlus
                           1147 ; genPlusIncr
   03AE 11 9E 00           1148 	ld	de,#_Female_Player + 0 + 125
                           1149 ; genAssign (pointer)
   03B1 3E 00              1150 	ld	a,#0x00
   03B3 12                 1151 	ld	(de),a
                           1152 ; genPlus
                           1153 ; genPlusIncr
   03B4 11 9F 00           1154 	ld	de,#_Female_Player + 0 + 126
                           1155 ; genAssign (pointer)
   03B7 3E 01              1156 	ld	a,#0x01
   03B9 12                 1157 	ld	(de),a
                           1158 ; genPlus
                           1159 ; genPlusIncr
   03BA 11 A0 00           1160 	ld	de,#_Female_Player + 0 + 127
                           1161 ; genAssign (pointer)
   03BD 3E 00              1162 	ld	a,#0x00
   03BF 12                 1163 	ld	(de),a
                           1164 ;	main.c 314
                           1165 ; genAssign
                           1166 ; AOP_HL for _spritesize
   03C0 21 A1 00           1167 	ld	hl,#_spritesize + 0
   03C3 36 08              1168 	ld	(hl),#0x08
                           1169 ;	main.c 314
                           1170 ; genAssign (pointer)
   03C5 11 A2 00           1171 	ld	de,#_Cursors + 0
   03C8 3E E0              1172 	ld	a,#0xE0
   03CA 12                 1173 	ld	(de),a
                           1174 ; genPlus
                           1175 ; genPlusIncr
   03CB 11 A3 00           1176 	ld	de,#_Cursors + 0 + 1
                           1177 ; genAssign (pointer)
   03CE 3E E0              1178 	ld	a,#0xE0
   03D0 12                 1179 	ld	(de),a
                           1180 ; genPlus
                           1181 ; genPlusIncr
   03D1 11 A4 00           1182 	ld	de,#_Cursors + 0 + 2
                           1183 ; genAssign (pointer)
   03D4 3E 78              1184 	ld	a,#0x78
   03D6 12                 1185 	ld	(de),a
                           1186 ; genPlus
                           1187 ; genPlusIncr
   03D7 11 A5 00           1188 	ld	de,#_Cursors + 0 + 3
                           1189 ; genAssign (pointer)
   03DA 3E 78              1190 	ld	a,#0x78
   03DC 12                 1191 	ld	(de),a
                           1192 ; genPlus
                           1193 ; genPlusIncr
   03DD 11 A6 00           1194 	ld	de,#_Cursors + 0 + 4
                           1195 ; genAssign (pointer)
   03E0 3E 1E              1196 	ld	a,#0x1E
   03E2 12                 1197 	ld	(de),a
                           1198 ; genPlus
                           1199 ; genPlusIncr
   03E3 11 A7 00           1200 	ld	de,#_Cursors + 0 + 5
                           1201 ; genAssign (pointer)
   03E6 3E 1E              1202 	ld	a,#0x1E
   03E8 12                 1203 	ld	(de),a
                           1204 ; genPlus
                           1205 ; genPlusIncr
   03E9 11 A8 00           1206 	ld	de,#_Cursors + 0 + 6
                           1207 ; genAssign (pointer)
   03EC 3E 0F              1208 	ld	a,#0x0F
   03EE 12                 1209 	ld	(de),a
                           1210 ; genPlus
                           1211 ; genPlusIncr
   03EF 11 A9 00           1212 	ld	de,#_Cursors + 0 + 7
                           1213 ; genAssign (pointer)
   03F2 3E 0F              1214 	ld	a,#0x0F
   03F4 12                 1215 	ld	(de),a
                           1216 ; genPlus
                           1217 ; genPlusIncr
   03F5 11 AA 00           1218 	ld	de,#_Cursors + 0 + 8
                           1219 ; genAssign (pointer)
   03F8 3E 0F              1220 	ld	a,#0x0F
   03FA 12                 1221 	ld	(de),a
                           1222 ; genPlus
                           1223 ; genPlusIncr
   03FB 11 AB 00           1224 	ld	de,#_Cursors + 0 + 9
                           1225 ; genAssign (pointer)
   03FE 3E 0F              1226 	ld	a,#0x0F
   0400 12                 1227 	ld	(de),a
                           1228 ; genPlus
                           1229 ; genPlusIncr
   0401 11 AC 00           1230 	ld	de,#_Cursors + 0 + 10
                           1231 ; genAssign (pointer)
   0404 3E 1E              1232 	ld	a,#0x1E
   0406 12                 1233 	ld	(de),a
                           1234 ; genPlus
                           1235 ; genPlusIncr
   0407 11 AD 00           1236 	ld	de,#_Cursors + 0 + 11
                           1237 ; genAssign (pointer)
   040A 3E 1E              1238 	ld	a,#0x1E
   040C 12                 1239 	ld	(de),a
                           1240 ; genPlus
                           1241 ; genPlusIncr
   040D 11 AE 00           1242 	ld	de,#_Cursors + 0 + 12
                           1243 ; genAssign (pointer)
   0410 3E 78              1244 	ld	a,#0x78
   0412 12                 1245 	ld	(de),a
                           1246 ; genPlus
                           1247 ; genPlusIncr
   0413 11 AF 00           1248 	ld	de,#_Cursors + 0 + 13
                           1249 ; genAssign (pointer)
   0416 3E 78              1250 	ld	a,#0x78
   0418 12                 1251 	ld	(de),a
                           1252 ; genPlus
                           1253 ; genPlusIncr
   0419 11 B0 00           1254 	ld	de,#_Cursors + 0 + 14
                           1255 ; genAssign (pointer)
   041C 3E E0              1256 	ld	a,#0xE0
   041E 12                 1257 	ld	(de),a
                           1258 ; genPlus
                           1259 ; genPlusIncr
   041F 11 B1 00           1260 	ld	de,#_Cursors + 0 + 15
                           1261 ; genAssign (pointer)
   0422 3E E0              1262 	ld	a,#0xE0
   0424 12                 1263 	ld	(de),a
                           1264 ;	main.c 314
                           1265 ; genAssign
                           1266 ; AOP_HL for _roomType
   0425 21 C8 00           1267 	ld	hl,#_roomType + 0
   0428 36 00              1268 	ld	(hl),#0x00
                           1269 ;	main.c 314
                           1270 ; genAssign
                           1271 ; AOP_HL for _currentRoom
   042A 21 C9 00           1272 	ld	hl,#_currentRoom + 0
   042D 36 00              1273 	ld	(hl),#0x00
                           1274 ;--------------------------------------------------------
                           1275 ; Home
                           1276 ;--------------------------------------------------------
                           1277 	.area _HOME
                           1278 	.area _CODE
                           1279 ;--------------------------------------------------------
                           1280 ; code
                           1281 ;--------------------------------------------------------
                           1282 	.area _CODE
                           1283 ;	SplashPage/SplashPage.c 5
                           1284 ; genLabel
                           1285 ; genFunction
                           1286 ;	---------------------------------
                           1287 ; Function performantdelay
                           1288 ; ---------------------------------
   0000                    1289 ___performantdelay_start:
   0000                    1290 _performantdelay:
   0000 C5                 1291 	push	bc
                           1292 	
                           1293 ;	SplashPage/SplashPage.c 7
                           1294 ; genAssign
   0001 0E 00              1295 	ld	c,#0x00
                           1296 ; genLabel
   0003                    1297 00101$:
                           1298 ; genCmpLt
                           1299 ; AOP_STK for 
   0003 AF                 1300 	xor	a,a
   0004 79                 1301 	ld	a,c
   0005 F8 04              1302 	lda	hl,4(sp)
   0007 9E                 1303 	sbc	a,(hl) ; 2
   0008 D2 12 00           1304 	jp	nc,00105$
                           1305 ;	SplashPage/SplashPage.c 8
                           1306 ; genCall
   000B CD 00 00           1307 	call	_wait_vbl_done
                           1308 ;	SplashPage/SplashPage.c 7
                           1309 ; genPlus
                           1310 ; genPlusIncr
   000E 0C                 1311 	inc	c
                           1312 ; genGoto
   000F C3 03 00           1313 	jp	00101$
                           1314 ; genLabel
   0012                    1315 00105$:
                           1316 ; genEndFunction
                           1317 	
   0012 C1                 1318 	pop	bc
   0013 C9                 1319 	ret
   0014                    1320 ___performantdelay_end:
   0014                    1321 _splashscreen_data:
   0014 FF                 1322 	.db #0xFF
   0015 FF                 1323 	.db #0xFF
   0016 FF                 1324 	.db #0xFF
   0017 FF                 1325 	.db #0xFF
   0018 FF                 1326 	.db #0xFF
   0019 FF                 1327 	.db #0xFF
   001A FF                 1328 	.db #0xFF
   001B FF                 1329 	.db #0xFF
   001C FF                 1330 	.db #0xFF
   001D FF                 1331 	.db #0xFF
   001E FF                 1332 	.db #0xFF
   001F FF                 1333 	.db #0xFF
   0020 FF                 1334 	.db #0xFF
   0021 FF                 1335 	.db #0xFF
   0022 FF                 1336 	.db #0xFF
   0023 FF                 1337 	.db #0xFF
   0024 FF                 1338 	.db #0xFF
   0025 FF                 1339 	.db #0xFF
   0026 FF                 1340 	.db #0xFF
   0027 FF                 1341 	.db #0xFF
   0028 FF                 1342 	.db #0xFF
   0029 FF                 1343 	.db #0xFF
   002A FF                 1344 	.db #0xFF
   002B FF                 1345 	.db #0xFF
   002C FF                 1346 	.db #0xFF
   002D FF                 1347 	.db #0xFF
   002E FF                 1348 	.db #0xFF
   002F FF                 1349 	.db #0xFF
   0030 FF                 1350 	.db #0xFF
   0031 FF                 1351 	.db #0xFF
   0032 80                 1352 	.db #0x80
   0033 C0                 1353 	.db #0xC0
   0034 FF                 1354 	.db #0xFF
   0035 FF                 1355 	.db #0xFF
   0036 FF                 1356 	.db #0xFF
   0037 FF                 1357 	.db #0xFF
   0038 FF                 1358 	.db #0xFF
   0039 FF                 1359 	.db #0xFF
   003A FF                 1360 	.db #0xFF
   003B FF                 1361 	.db #0xFF
   003C FF                 1362 	.db #0xFF
   003D FF                 1363 	.db #0xFF
   003E FF                 1364 	.db #0xFF
   003F FF                 1365 	.db #0xFF
   0040 FF                 1366 	.db #0xFF
   0041 FF                 1367 	.db #0xFF
   0042 78                 1368 	.db #0x78
   0043 3C                 1369 	.db #0x3C
   0044 FF                 1370 	.db #0xFF
   0045 FF                 1371 	.db #0xFF
   0046 FF                 1372 	.db #0xFF
   0047 FF                 1373 	.db #0xFF
   0048 FF                 1374 	.db #0xFF
   0049 FF                 1375 	.db #0xFF
   004A FF                 1376 	.db #0xFF
   004B FF                 1377 	.db #0xFF
   004C FF                 1378 	.db #0xFF
   004D FF                 1379 	.db #0xFF
   004E FF                 1380 	.db #0xFF
   004F FF                 1381 	.db #0xFF
   0050 FF                 1382 	.db #0xFF
   0051 FF                 1383 	.db #0xFF
   0052 07                 1384 	.db #0x07
   0053 03                 1385 	.db #0x03
   0054 FF                 1386 	.db #0xFF
   0055 FF                 1387 	.db #0xFF
   0056 FF                 1388 	.db #0xFF
   0057 FF                 1389 	.db #0xFF
   0058 FF                 1390 	.db #0xFF
   0059 FF                 1391 	.db #0xFF
   005A FF                 1392 	.db #0xFF
   005B FF                 1393 	.db #0xFF
   005C FF                 1394 	.db #0xFF
   005D FF                 1395 	.db #0xFF
   005E FF                 1396 	.db #0xFF
   005F FF                 1397 	.db #0xFF
   0060 FF                 1398 	.db #0xFF
   0061 FF                 1399 	.db #0xFF
   0062 F0                 1400 	.db #0xF0
   0063 F8                 1401 	.db #0xF8
   0064 FF                 1402 	.db #0xFF
   0065 FF                 1403 	.db #0xFF
   0066 FF                 1404 	.db #0xFF
   0067 FF                 1405 	.db #0xFF
   0068 FF                 1406 	.db #0xFF
   0069 FF                 1407 	.db #0xFF
   006A FF                 1408 	.db #0xFF
   006B FF                 1409 	.db #0xFF
   006C FF                 1410 	.db #0xFF
   006D FF                 1411 	.db #0xFF
   006E FF                 1412 	.db #0xFF
   006F FF                 1413 	.db #0xFF
   0070 FF                 1414 	.db #0xFF
   0071 FF                 1415 	.db #0xFF
   0072 3F                 1416 	.db #0x3F
   0073 3F                 1417 	.db #0x3F
   0074 80                 1418 	.db #0x80
   0075 C0                 1419 	.db #0xC0
   0076 80                 1420 	.db #0x80
   0077 C0                 1421 	.db #0xC0
   0078 80                 1422 	.db #0x80
   0079 C0                 1423 	.db #0xC0
   007A 80                 1424 	.db #0x80
   007B C0                 1425 	.db #0xC0
   007C 80                 1426 	.db #0x80
   007D C0                 1427 	.db #0xC0
   007E 80                 1428 	.db #0x80
   007F C1                 1429 	.db #0xC1
   0080 81                 1430 	.db #0x81
   0081 C1                 1431 	.db #0xC1
   0082 81                 1432 	.db #0x81
   0083 C1                 1433 	.db #0xC1
   0084 30                 1434 	.db #0x30
   0085 18                 1435 	.db #0x18
   0086 18                 1436 	.db #0x18
   0087 00                 1437 	.db #0x00
   0088 00                 1438 	.db #0x00
   0089 00                 1439 	.db #0x00
   008A 00                 1440 	.db #0x00
   008B 00                 1441 	.db #0x00
   008C 00                 1442 	.db #0x00
   008D 00                 1443 	.db #0x00
   008E 01                 1444 	.db #0x01
   008F 00                 1445 	.db #0x00
   0090 03                 1446 	.db #0x03
   0091 81                 1447 	.db #0x81
   0092 83                 1448 	.db #0x83
   0093 81                 1449 	.db #0x81
   0094 03                 1450 	.db #0x03
   0095 03                 1451 	.db #0x03
   0096 03                 1452 	.db #0x03
   0097 03                 1453 	.db #0x03
   0098 03                 1454 	.db #0x03
   0099 03                 1455 	.db #0x03
   009A 03                 1456 	.db #0x03
   009B 03                 1457 	.db #0x03
   009C 03                 1458 	.db #0x03
   009D 03                 1459 	.db #0x03
   009E 83                 1460 	.db #0x83
   009F 03                 1461 	.db #0x03
   00A0 83                 1462 	.db #0x83
   00A1 03                 1463 	.db #0x03
   00A2 83                 1464 	.db #0x83
   00A3 03                 1465 	.db #0x03
   00A4 FF                 1466 	.db #0xFF
   00A5 FF                 1467 	.db #0xFF
   00A6 FF                 1468 	.db #0xFF
   00A7 FF                 1469 	.db #0xFF
   00A8 FF                 1470 	.db #0xFF
   00A9 FF                 1471 	.db #0xFF
   00AA FF                 1472 	.db #0xFF
   00AB FF                 1473 	.db #0xFF
   00AC FF                 1474 	.db #0xFF
   00AD FF                 1475 	.db #0xFF
   00AE FF                 1476 	.db #0xFF
   00AF FF                 1477 	.db #0xFF
   00B0 FF                 1478 	.db #0xFF
   00B1 FF                 1479 	.db #0xFF
   00B2 80                 1480 	.db #0x80
   00B3 00                 1481 	.db #0x00
   00B4 FF                 1482 	.db #0xFF
   00B5 FF                 1483 	.db #0xFF
   00B6 FF                 1484 	.db #0xFF
   00B7 FF                 1485 	.db #0xFF
   00B8 FF                 1486 	.db #0xFF
   00B9 FF                 1487 	.db #0xFF
   00BA FF                 1488 	.db #0xFF
   00BB FF                 1489 	.db #0xFF
   00BC FF                 1490 	.db #0xFF
   00BD FF                 1491 	.db #0xFF
   00BE FF                 1492 	.db #0xFF
   00BF FF                 1493 	.db #0xFF
   00C0 FF                 1494 	.db #0xFF
   00C1 FF                 1495 	.db #0xFF
   00C2 0C                 1496 	.db #0x0C
   00C3 06                 1497 	.db #0x06
   00C4 FF                 1498 	.db #0xFF
   00C5 FF                 1499 	.db #0xFF
   00C6 FF                 1500 	.db #0xFF
   00C7 FF                 1501 	.db #0xFF
   00C8 FF                 1502 	.db #0xFF
   00C9 FF                 1503 	.db #0xFF
   00CA FF                 1504 	.db #0xFF
   00CB FF                 1505 	.db #0xFF
   00CC FF                 1506 	.db #0xFF
   00CD FF                 1507 	.db #0xFF
   00CE FF                 1508 	.db #0xFF
   00CF FF                 1509 	.db #0xFF
   00D0 FF                 1510 	.db #0xFF
   00D1 FF                 1511 	.db #0xFF
   00D2 00                 1512 	.db #0x00
   00D3 00                 1513 	.db #0x00
   00D4 FF                 1514 	.db #0xFF
   00D5 FF                 1515 	.db #0xFF
   00D6 FF                 1516 	.db #0xFF
   00D7 FF                 1517 	.db #0xFF
   00D8 FF                 1518 	.db #0xFF
   00D9 FF                 1519 	.db #0xFF
   00DA FF                 1520 	.db #0xFF
   00DB FF                 1521 	.db #0xFF
   00DC FF                 1522 	.db #0xFF
   00DD FF                 1523 	.db #0xFF
   00DE FF                 1524 	.db #0xFF
   00DF FF                 1525 	.db #0xFF
   00E0 FF                 1526 	.db #0xFF
   00E1 FF                 1527 	.db #0xFF
   00E2 18                 1528 	.db #0x18
   00E3 0C                 1529 	.db #0x0C
   00E4 F0                 1530 	.db #0xF0
   00E5 F8                 1531 	.db #0xF8
   00E6 F0                 1532 	.db #0xF0
   00E7 F8                 1533 	.db #0xF8
   00E8 F0                 1534 	.db #0xF0
   00E9 F8                 1535 	.db #0xF8
   00EA F0                 1536 	.db #0xF0
   00EB F8                 1537 	.db #0xF8
   00EC F0                 1538 	.db #0xF0
   00ED F8                 1539 	.db #0xF8
   00EE F0                 1540 	.db #0xF0
   00EF F8                 1541 	.db #0xF8
   00F0 F0                 1542 	.db #0xF0
   00F1 F8                 1543 	.db #0xF8
   00F2 30                 1544 	.db #0x30
   00F3 18                 1545 	.db #0x18
   00F4 3F                 1546 	.db #0x3F
   00F5 3F                 1547 	.db #0x3F
   00F6 3F                 1548 	.db #0x3F
   00F7 3F                 1549 	.db #0x3F
   00F8 3F                 1550 	.db #0x3F
   00F9 3F                 1551 	.db #0x3F
   00FA 3F                 1552 	.db #0x3F
   00FB 3F                 1553 	.db #0x3F
   00FC 3F                 1554 	.db #0x3F
   00FD 3F                 1555 	.db #0x3F
   00FE 3F                 1556 	.db #0x3F
   00FF 3F                 1557 	.db #0x3F
   0100 3F                 1558 	.db #0x3F
   0101 3F                 1559 	.db #0x3F
   0102 00                 1560 	.db #0x00
   0103 00                 1561 	.db #0x00
   0104 FF                 1562 	.db #0xFF
   0105 FF                 1563 	.db #0xFF
   0106 FF                 1564 	.db #0xFF
   0107 FF                 1565 	.db #0xFF
   0108 FF                 1566 	.db #0xFF
   0109 FF                 1567 	.db #0xFF
   010A FF                 1568 	.db #0xFF
   010B FF                 1569 	.db #0xFF
   010C FF                 1570 	.db #0xFF
   010D FF                 1571 	.db #0xFF
   010E FF                 1572 	.db #0xFF
   010F FF                 1573 	.db #0xFF
   0110 FF                 1574 	.db #0xFF
   0111 FF                 1575 	.db #0xFF
   0112 60                 1576 	.db #0x60
   0113 30                 1577 	.db #0x30
   0114 FF                 1578 	.db #0xFF
   0115 FF                 1579 	.db #0xFF
   0116 FF                 1580 	.db #0xFF
   0117 FF                 1581 	.db #0xFF
   0118 FF                 1582 	.db #0xFF
   0119 FF                 1583 	.db #0xFF
   011A FF                 1584 	.db #0xFF
   011B FF                 1585 	.db #0xFF
   011C FF                 1586 	.db #0xFF
   011D FF                 1587 	.db #0xFF
   011E FF                 1588 	.db #0xFF
   011F FF                 1589 	.db #0xFF
   0120 FF                 1590 	.db #0xFF
   0121 FF                 1591 	.db #0xFF
   0122 E0                 1592 	.db #0xE0
   0123 60                 1593 	.db #0x60
   0124 FF                 1594 	.db #0xFF
   0125 FF                 1595 	.db #0xFF
   0126 FF                 1596 	.db #0xFF
   0127 FF                 1597 	.db #0xFF
   0128 FF                 1598 	.db #0xFF
   0129 FF                 1599 	.db #0xFF
   012A FF                 1600 	.db #0xFF
   012B FF                 1601 	.db #0xFF
   012C FF                 1602 	.db #0xFF
   012D FF                 1603 	.db #0xFF
   012E FF                 1604 	.db #0xFF
   012F FF                 1605 	.db #0xFF
   0130 FF                 1606 	.db #0xFF
   0131 FF                 1607 	.db #0xFF
   0132 01                 1608 	.db #0x01
   0133 00                 1609 	.db #0x00
   0134 FF                 1610 	.db #0xFF
   0135 FF                 1611 	.db #0xFF
   0136 FF                 1612 	.db #0xFF
   0137 FF                 1613 	.db #0xFF
   0138 FF                 1614 	.db #0xFF
   0139 FF                 1615 	.db #0xFF
   013A FF                 1616 	.db #0xFF
   013B FF                 1617 	.db #0xFF
   013C FF                 1618 	.db #0xFF
   013D FF                 1619 	.db #0xFF
   013E FF                 1620 	.db #0xFF
   013F FF                 1621 	.db #0xFF
   0140 FF                 1622 	.db #0xFF
   0141 FF                 1623 	.db #0xFF
   0142 C0                 1624 	.db #0xC0
   0143 C0                 1625 	.db #0xC0
   0144 FF                 1626 	.db #0xFF
   0145 FF                 1627 	.db #0xFF
   0146 FF                 1628 	.db #0xFF
   0147 FF                 1629 	.db #0xFF
   0148 FF                 1630 	.db #0xFF
   0149 FF                 1631 	.db #0xFF
   014A FF                 1632 	.db #0xFF
   014B FF                 1633 	.db #0xFF
   014C FF                 1634 	.db #0xFF
   014D FF                 1635 	.db #0xFF
   014E FF                 1636 	.db #0xFF
   014F FF                 1637 	.db #0xFF
   0150 FF                 1638 	.db #0xFF
   0151 FF                 1639 	.db #0xFF
   0152 03                 1640 	.db #0x03
   0153 01                 1641 	.db #0x01
   0154 81                 1642 	.db #0x81
   0155 C1                 1643 	.db #0xC1
   0156 81                 1644 	.db #0x81
   0157 C1                 1645 	.db #0xC1
   0158 81                 1646 	.db #0x81
   0159 C1                 1647 	.db #0xC1
   015A 81                 1648 	.db #0x81
   015B C1                 1649 	.db #0xC1
   015C 81                 1650 	.db #0x81
   015D C1                 1651 	.db #0xC1
   015E 81                 1652 	.db #0x81
   015F C1                 1653 	.db #0xC1
   0160 81                 1654 	.db #0x81
   0161 C1                 1655 	.db #0xC1
   0162 81                 1656 	.db #0x81
   0163 C1                 1657 	.db #0xC1
   0164 83                 1658 	.db #0x83
   0165 81                 1659 	.db #0x81
   0166 83                 1660 	.db #0x83
   0167 81                 1661 	.db #0x81
   0168 83                 1662 	.db #0x83
   0169 81                 1663 	.db #0x81
   016A 83                 1664 	.db #0x83
   016B 81                 1665 	.db #0x81
   016C 83                 1666 	.db #0x83
   016D 81                 1667 	.db #0x81
   016E 83                 1668 	.db #0x83
   016F 81                 1669 	.db #0x81
   0170 83                 1670 	.db #0x83
   0171 81                 1671 	.db #0x81
   0172 83                 1672 	.db #0x83
   0173 81                 1673 	.db #0x81
   0174 83                 1674 	.db #0x83
   0175 03                 1675 	.db #0x03
   0176 83                 1676 	.db #0x83
   0177 03                 1677 	.db #0x03
   0178 83                 1678 	.db #0x83
   0179 03                 1679 	.db #0x03
   017A 83                 1680 	.db #0x83
   017B 03                 1681 	.db #0x03
   017C 83                 1682 	.db #0x83
   017D 03                 1683 	.db #0x03
   017E 83                 1684 	.db #0x83
   017F 03                 1685 	.db #0x03
   0180 83                 1686 	.db #0x83
   0181 03                 1687 	.db #0x03
   0182 83                 1688 	.db #0x83
   0183 03                 1689 	.db #0x03
   0184 00                 1690 	.db #0x00
   0185 00                 1691 	.db #0x00
   0186 00                 1692 	.db #0x00
   0187 00                 1693 	.db #0x00
   0188 00                 1694 	.db #0x00
   0189 00                 1695 	.db #0x00
   018A 00                 1696 	.db #0x00
   018B 00                 1697 	.db #0x00
   018C 07                 1698 	.db #0x07
   018D 00                 1699 	.db #0x00
   018E 06                 1700 	.db #0x06
   018F 03                 1701 	.db #0x03
   0190 06                 1702 	.db #0x06
   0191 03                 1703 	.db #0x03
   0192 06                 1704 	.db #0x06
   0193 03                 1705 	.db #0x03
   0194 04                 1706 	.db #0x04
   0195 06                 1707 	.db #0x06
   0196 04                 1708 	.db #0x04
   0197 06                 1709 	.db #0x06
   0198 04                 1710 	.db #0x04
   0199 06                 1711 	.db #0x06
   019A 04                 1712 	.db #0x04
   019B 06                 1713 	.db #0x06
   019C 04                 1714 	.db #0x04
   019D 06                 1715 	.db #0x06
   019E 04                 1716 	.db #0x04
   019F 06                 1717 	.db #0x06
   01A0 04                 1718 	.db #0x04
   01A1 06                 1719 	.db #0x06
   01A2 04                 1720 	.db #0x04
   01A3 06                 1721 	.db #0x06
   01A4 00                 1722 	.db #0x00
   01A5 00                 1723 	.db #0x00
   01A6 00                 1724 	.db #0x00
   01A7 00                 1725 	.db #0x00
   01A8 00                 1726 	.db #0x00
   01A9 00                 1727 	.db #0x00
   01AA 00                 1728 	.db #0x00
   01AB 00                 1729 	.db #0x00
   01AC 0C                 1730 	.db #0x0C
   01AD 00                 1731 	.db #0x00
   01AE 0C                 1732 	.db #0x0C
   01AF 0C                 1733 	.db #0x0C
   01B0 0C                 1734 	.db #0x0C
   01B1 0C                 1735 	.db #0x0C
   01B2 0C                 1736 	.db #0x0C
   01B3 0C                 1737 	.db #0x0C
   01B4 18                 1738 	.db #0x18
   01B5 0C                 1739 	.db #0x0C
   01B6 18                 1740 	.db #0x18
   01B7 0C                 1741 	.db #0x0C
   01B8 18                 1742 	.db #0x18
   01B9 0C                 1743 	.db #0x0C
   01BA 18                 1744 	.db #0x18
   01BB 0C                 1745 	.db #0x0C
   01BC 18                 1746 	.db #0x18
   01BD 0C                 1747 	.db #0x0C
   01BE 18                 1748 	.db #0x18
   01BF 0C                 1749 	.db #0x0C
   01C0 18                 1750 	.db #0x18
   01C1 0C                 1751 	.db #0x0C
   01C2 18                 1752 	.db #0x18
   01C3 0C                 1753 	.db #0x0C
   01C4 00                 1754 	.db #0x00
   01C5 00                 1755 	.db #0x00
   01C6 00                 1756 	.db #0x00
   01C7 00                 1757 	.db #0x00
   01C8 00                 1758 	.db #0x00
   01C9 00                 1759 	.db #0x00
   01CA 00                 1760 	.db #0x00
   01CB 00                 1761 	.db #0x00
   01CC 1F                 1762 	.db #0x1F
   01CD 00                 1763 	.db #0x00
   01CE 1F                 1764 	.db #0x1F
   01CF 1F                 1765 	.db #0x1F
   01D0 1F                 1766 	.db #0x1F
   01D1 1F                 1767 	.db #0x1F
   01D2 00                 1768 	.db #0x00
   01D3 00                 1769 	.db #0x00
   01D4 30                 1770 	.db #0x30
   01D5 18                 1771 	.db #0x18
   01D6 30                 1772 	.db #0x30
   01D7 18                 1773 	.db #0x18
   01D8 30                 1774 	.db #0x30
   01D9 18                 1775 	.db #0x18
   01DA 30                 1776 	.db #0x30
   01DB 18                 1777 	.db #0x18
   01DC D0                 1778 	.db #0xD0
   01DD 38                 1779 	.db #0x38
   01DE F0                 1780 	.db #0xF0
   01DF F8                 1781 	.db #0xF8
   01E0 F0                 1782 	.db #0xF0
   01E1 F8                 1783 	.db #0xF8
   01E2 10                 1784 	.db #0x10
   01E3 38                 1785 	.db #0x38
   01E4 00                 1786 	.db #0x00
   01E5 00                 1787 	.db #0x00
   01E6 00                 1788 	.db #0x00
   01E7 00                 1789 	.db #0x00
   01E8 00                 1790 	.db #0x00
   01E9 00                 1791 	.db #0x00
   01EA 00                 1792 	.db #0x00
   01EB 00                 1793 	.db #0x00
   01EC 3F                 1794 	.db #0x3F
   01ED 00                 1795 	.db #0x00
   01EE 3F                 1796 	.db #0x3F
   01EF 3F                 1797 	.db #0x3F
   01F0 3F                 1798 	.db #0x3F
   01F1 3F                 1799 	.db #0x3F
   01F2 38                 1800 	.db #0x38
   01F3 30                 1801 	.db #0x30
   01F4 60                 1802 	.db #0x60
   01F5 30                 1803 	.db #0x30
   01F6 60                 1804 	.db #0x60
   01F7 30                 1805 	.db #0x30
   01F8 60                 1806 	.db #0x60
   01F9 30                 1807 	.db #0x30
   01FA 60                 1808 	.db #0x60
   01FB 30                 1809 	.db #0x30
   01FC A0                 1810 	.db #0xA0
   01FD 70                 1811 	.db #0x70
   01FE E0                 1812 	.db #0xE0
   01FF F0                 1813 	.db #0xF0
   0200 E0                 1814 	.db #0xE0
   0201 F0                 1815 	.db #0xF0
   0202 60                 1816 	.db #0x60
   0203 30                 1817 	.db #0x30
   0204 00                 1818 	.db #0x00
   0205 00                 1819 	.db #0x00
   0206 00                 1820 	.db #0x00
   0207 00                 1821 	.db #0x00
   0208 00                 1822 	.db #0x00
   0209 00                 1823 	.db #0x00
   020A 00                 1824 	.db #0x00
   020B 00                 1825 	.db #0x00
   020C 60                 1826 	.db #0x60
   020D 00                 1827 	.db #0x00
   020E 70                 1828 	.db #0x70
   020F 60                 1829 	.db #0x60
   0210 70                 1830 	.db #0x70
   0211 60                 1831 	.db #0x60
   0212 00                 1832 	.db #0x00
   0213 00                 1833 	.db #0x00
   0214 E0                 1834 	.db #0xE0
   0215 60                 1835 	.db #0x60
   0216 E0                 1836 	.db #0xE0
   0217 60                 1837 	.db #0x60
   0218 E0                 1838 	.db #0xE0
   0219 60                 1839 	.db #0x60
   021A E0                 1840 	.db #0xE0
   021B 60                 1841 	.db #0x60
   021C E0                 1842 	.db #0xE0
   021D 60                 1843 	.db #0x60
   021E E0                 1844 	.db #0xE0
   021F 60                 1845 	.db #0x60
   0220 E0                 1846 	.db #0xE0
   0221 60                 1847 	.db #0x60
   0222 E0                 1848 	.db #0xE0
   0223 60                 1849 	.db #0x60
   0224 01                 1850 	.db #0x01
   0225 00                 1851 	.db #0x00
   0226 01                 1852 	.db #0x01
   0227 00                 1853 	.db #0x00
   0228 01                 1854 	.db #0x01
   0229 00                 1855 	.db #0x00
   022A 01                 1856 	.db #0x01
   022B 00                 1857 	.db #0x00
   022C C1                 1858 	.db #0xC1
   022D 00                 1859 	.db #0x00
   022E 61                 1860 	.db #0x61
   022F C0                 1861 	.db #0xC0
   0230 E1                 1862 	.db #0xE1
   0231 C0                 1863 	.db #0xC0
   0232 E1                 1864 	.db #0xE1
   0233 C0                 1865 	.db #0xC0
   0234 C0                 1866 	.db #0xC0
   0235 C0                 1867 	.db #0xC0
   0236 C0                 1868 	.db #0xC0
   0237 C0                 1869 	.db #0xC0
   0238 C0                 1870 	.db #0xC0
   0239 C0                 1871 	.db #0xC0
   023A C0                 1872 	.db #0xC0
   023B C0                 1873 	.db #0xC0
   023C C1                 1874 	.db #0xC1
   023D C0                 1875 	.db #0xC0
   023E C0                 1876 	.db #0xC0
   023F C1                 1877 	.db #0xC1
   0240 C0                 1878 	.db #0xC0
   0241 C1                 1879 	.db #0xC1
   0242 C0                 1880 	.db #0xC0
   0243 C0                 1881 	.db #0xC0
   0244 03                 1882 	.db #0x03
   0245 01                 1883 	.db #0x01
   0246 03                 1884 	.db #0x03
   0247 01                 1885 	.db #0x01
   0248 03                 1886 	.db #0x03
   0249 01                 1887 	.db #0x01
   024A 03                 1888 	.db #0x03
   024B 01                 1889 	.db #0x01
   024C FD                 1890 	.db #0xFD
   024D 03                 1891 	.db #0x03
   024E FF                 1892 	.db #0xFF
   024F FF                 1893 	.db #0xFF
   0250 FF                 1894 	.db #0xFF
   0251 FF                 1895 	.db #0xFF
   0252 03                 1896 	.db #0x03
   0253 01                 1897 	.db #0x01
   0254 06                 1898 	.db #0x06
   0255 03                 1899 	.db #0x03
   0256 06                 1900 	.db #0x06
   0257 03                 1901 	.db #0x03
   0258 06                 1902 	.db #0x06
   0259 03                 1903 	.db #0x03
   025A 06                 1904 	.db #0x06
   025B 03                 1905 	.db #0x03
   025C 06                 1906 	.db #0x06
   025D 03                 1907 	.db #0x03
   025E 06                 1908 	.db #0x06
   025F 03                 1909 	.db #0x03
   0260 06                 1910 	.db #0x06
   0261 03                 1911 	.db #0x03
   0262 02                 1912 	.db #0x02
   0263 00                 1913 	.db #0x00
   0264 0C                 1914 	.db #0x0C
   0265 0C                 1915 	.db #0x0C
   0266 0C                 1916 	.db #0x0C
   0267 0C                 1917 	.db #0x0C
   0268 0C                 1918 	.db #0x0C
   0269 0C                 1919 	.db #0x0C
   026A 0C                 1920 	.db #0x0C
   026B 0C                 1921 	.db #0x0C
   026C 0C                 1922 	.db #0x0C
   026D 0C                 1923 	.db #0x0C
   026E 0C                 1924 	.db #0x0C
   026F 0C                 1925 	.db #0x0C
   0270 0C                 1926 	.db #0x0C
   0271 0C                 1927 	.db #0x0C
   0272 0C                 1928 	.db #0x0C
   0273 0C                 1929 	.db #0x0C
   0274 18                 1930 	.db #0x18
   0275 0C                 1931 	.db #0x0C
   0276 18                 1932 	.db #0x18
   0277 0C                 1933 	.db #0x0C
   0278 18                 1934 	.db #0x18
   0279 0C                 1935 	.db #0x0C
   027A 18                 1936 	.db #0x18
   027B 0C                 1937 	.db #0x0C
   027C 1B                 1938 	.db #0x1B
   027D 0C                 1939 	.db #0x0C
   027E 1F                 1940 	.db #0x1F
   027F 0F                 1941 	.db #0x0F
   0280 1F                 1942 	.db #0x1F
   0281 0F                 1943 	.db #0x0F
   0282 1B                 1944 	.db #0x1B
   0283 0C                 1945 	.db #0x0C
   0284 00                 1946 	.db #0x00
   0285 00                 1947 	.db #0x00
   0286 00                 1948 	.db #0x00
   0287 00                 1949 	.db #0x00
   0288 00                 1950 	.db #0x00
   0289 00                 1951 	.db #0x00
   028A 00                 1952 	.db #0x00
   028B 00                 1953 	.db #0x00
   028C F8                 1954 	.db #0xF8
   028D 00                 1955 	.db #0x00
   028E FC                 1956 	.db #0xFC
   028F F8                 1957 	.db #0xF8
   0290 FC                 1958 	.db #0xFC
   0291 F8                 1959 	.db #0xF8
   0292 F8                 1960 	.db #0xF8
   0293 00                 1961 	.db #0x00
   0294 30                 1962 	.db #0x30
   0295 18                 1963 	.db #0x18
   0296 30                 1964 	.db #0x30
   0297 18                 1965 	.db #0x18
   0298 30                 1966 	.db #0x30
   0299 18                 1967 	.db #0x18
   029A 30                 1968 	.db #0x30
   029B 18                 1969 	.db #0x18
   029C 30                 1970 	.db #0x30
   029D 18                 1971 	.db #0x18
   029E 30                 1972 	.db #0x30
   029F 18                 1973 	.db #0x18
   02A0 30                 1974 	.db #0x30
   02A1 18                 1975 	.db #0x18
   02A2 30                 1976 	.db #0x30
   02A3 18                 1977 	.db #0x18
   02A4 38                 1978 	.db #0x38
   02A5 30                 1979 	.db #0x30
   02A6 38                 1980 	.db #0x38
   02A7 30                 1981 	.db #0x30
   02A8 38                 1982 	.db #0x38
   02A9 30                 1983 	.db #0x30
   02AA 38                 1984 	.db #0x38
   02AB 30                 1985 	.db #0x30
   02AC 38                 1986 	.db #0x38
   02AD 30                 1987 	.db #0x30
   02AE 38                 1988 	.db #0x38
   02AF 30                 1989 	.db #0x30
   02B0 18                 1990 	.db #0x18
   02B1 30                 1991 	.db #0x30
   02B2 10                 1992 	.db #0x10
   02B3 00                 1993 	.db #0x00
   02B4 60                 1994 	.db #0x60
   02B5 30                 1995 	.db #0x30
   02B6 60                 1996 	.db #0x60
   02B7 30                 1997 	.db #0x30
   02B8 60                 1998 	.db #0x60
   02B9 30                 1999 	.db #0x30
   02BA 60                 2000 	.db #0x60
   02BB 30                 2001 	.db #0x30
   02BC 60                 2002 	.db #0x60
   02BD 30                 2003 	.db #0x30
   02BE 60                 2004 	.db #0x60
   02BF 30                 2005 	.db #0x30
   02C0 60                 2006 	.db #0x60
   02C1 30                 2007 	.db #0x30
   02C2 60                 2008 	.db #0x60
   02C3 30                 2009 	.db #0x30
   02C4 00                 2010 	.db #0x00
   02C5 00                 2011 	.db #0x00
   02C6 00                 2012 	.db #0x00
   02C7 00                 2013 	.db #0x00
   02C8 00                 2014 	.db #0x00
   02C9 00                 2015 	.db #0x00
   02CA 00                 2016 	.db #0x00
   02CB 00                 2017 	.db #0x00
   02CC 7F                 2018 	.db #0x7F
   02CD 00                 2019 	.db #0x00
   02CE 3F                 2020 	.db #0x3F
   02CF 7F                 2021 	.db #0x7F
   02D0 3F                 2022 	.db #0x3F
   02D1 7F                 2023 	.db #0x7F
   02D2 3F                 2024 	.db #0x3F
   02D3 00                 2025 	.db #0x00
   02D4 E0                 2026 	.db #0xE0
   02D5 60                 2027 	.db #0x60
   02D6 E0                 2028 	.db #0xE0
   02D7 60                 2029 	.db #0x60
   02D8 E0                 2030 	.db #0xE0
   02D9 60                 2031 	.db #0x60
   02DA E0                 2032 	.db #0xE0
   02DB 60                 2033 	.db #0x60
   02DC 60                 2034 	.db #0x60
   02DD E0                 2035 	.db #0xE0
   02DE E0                 2036 	.db #0xE0
   02DF E0                 2037 	.db #0xE0
   02E0 E0                 2038 	.db #0xE0
   02E1 E0                 2039 	.db #0xE0
   02E2 E0                 2040 	.db #0xE0
   02E3 60                 2041 	.db #0x60
   02E4 E1                 2042 	.db #0xE1
   02E5 C0                 2043 	.db #0xC0
   02E6 E1                 2044 	.db #0xE1
   02E7 C0                 2045 	.db #0xC0
   02E8 E1                 2046 	.db #0xE1
   02E9 C0                 2047 	.db #0xC0
   02EA E1                 2048 	.db #0xE1
   02EB C0                 2049 	.db #0xC0
   02EC FE                 2050 	.db #0xFE
   02ED C1                 2051 	.db #0xC1
   02EE FF                 2052 	.db #0xFF
   02EF FF                 2053 	.db #0xFF
   02F0 FF                 2054 	.db #0xFF
   02F1 FF                 2055 	.db #0xFF
   02F2 FF                 2056 	.db #0xFF
   02F3 FF                 2057 	.db #0xFF
   02F4 C0                 2058 	.db #0xC0
   02F5 C0                 2059 	.db #0xC0
   02F6 C0                 2060 	.db #0xC0
   02F7 C0                 2061 	.db #0xC0
   02F8 C0                 2062 	.db #0xC0
   02F9 C0                 2063 	.db #0xC0
   02FA C0                 2064 	.db #0xC0
   02FB C0                 2065 	.db #0xC0
   02FC FF                 2066 	.db #0xFF
   02FD C0                 2067 	.db #0xC0
   02FE FF                 2068 	.db #0xFF
   02FF FF                 2069 	.db #0xFF
   0300 FF                 2070 	.db #0xFF
   0301 FF                 2071 	.db #0xFF
   0302 FF                 2072 	.db #0xFF
   0303 C0                 2073 	.db #0xC0
   0304 03                 2074 	.db #0x03
   0305 01                 2075 	.db #0x01
   0306 03                 2076 	.db #0x03
   0307 01                 2077 	.db #0x01
   0308 03                 2078 	.db #0x03
   0309 01                 2079 	.db #0x01
   030A 03                 2080 	.db #0x03
   030B 01                 2081 	.db #0x01
   030C 83                 2082 	.db #0x83
   030D 01                 2083 	.db #0x01
   030E C3                 2084 	.db #0xC3
   030F 81                 2085 	.db #0x81
   0310 C3                 2086 	.db #0xC3
   0311 81                 2087 	.db #0x81
   0312 83                 2088 	.db #0x83
   0313 01                 2089 	.db #0x01
   0314 81                 2090 	.db #0x81
   0315 C1                 2091 	.db #0xC1
   0316 81                 2092 	.db #0x81
   0317 C1                 2093 	.db #0xC1
   0318 81                 2094 	.db #0x81
   0319 C1                 2095 	.db #0xC1
   031A 81                 2096 	.db #0x81
   031B C1                 2097 	.db #0xC1
   031C 83                 2098 	.db #0x83
   031D C1                 2099 	.db #0xC1
   031E FF                 2100 	.db #0xFF
   031F FF                 2101 	.db #0xFF
   0320 FF                 2102 	.db #0xFF
   0321 FF                 2103 	.db #0xFF
   0322 FF                 2104 	.db #0xFF
   0323 FF                 2105 	.db #0xFF
   0324 83                 2106 	.db #0x83
   0325 81                 2107 	.db #0x81
   0326 83                 2108 	.db #0x83
   0327 81                 2109 	.db #0x81
   0328 83                 2110 	.db #0x83
   0329 81                 2111 	.db #0x81
   032A 83                 2112 	.db #0x83
   032B 81                 2113 	.db #0x81
   032C C1                 2114 	.db #0xC1
   032D 83                 2115 	.db #0x83
   032E FF                 2116 	.db #0xFF
   032F FF                 2117 	.db #0xFF
   0330 FF                 2118 	.db #0xFF
   0331 FF                 2119 	.db #0xFF
   0332 FF                 2120 	.db #0xFF
   0333 FF                 2121 	.db #0xFF
   0334 83                 2122 	.db #0x83
   0335 03                 2123 	.db #0x03
   0336 83                 2124 	.db #0x83
   0337 03                 2125 	.db #0x03
   0338 83                 2126 	.db #0x83
   0339 03                 2127 	.db #0x03
   033A 83                 2128 	.db #0x83
   033B 03                 2129 	.db #0x03
   033C 07                 2130 	.db #0x07
   033D 83                 2131 	.db #0x83
   033E FF                 2132 	.db #0xFF
   033F FF                 2133 	.db #0xFF
   0340 FF                 2134 	.db #0xFF
   0341 FF                 2135 	.db #0xFF
   0342 FF                 2136 	.db #0xFF
   0343 FF                 2137 	.db #0xFF
   0344 00                 2138 	.db #0x00
   0345 00                 2139 	.db #0x00
   0346 00                 2140 	.db #0x00
   0347 00                 2141 	.db #0x00
   0348 00                 2142 	.db #0x00
   0349 00                 2143 	.db #0x00
   034A 00                 2144 	.db #0x00
   034B 00                 2145 	.db #0x00
   034C 80                 2146 	.db #0x80
   034D 00                 2147 	.db #0x00
   034E FF                 2148 	.db #0xFF
   034F FF                 2149 	.db #0xFF
   0350 FF                 2150 	.db #0xFF
   0351 FF                 2151 	.db #0xFF
   0352 FF                 2152 	.db #0xFF
   0353 FF                 2153 	.db #0xFF
   0354 04                 2154 	.db #0x04
   0355 06                 2155 	.db #0x06
   0356 04                 2156 	.db #0x04
   0357 06                 2157 	.db #0x06
   0358 04                 2158 	.db #0x04
   0359 06                 2159 	.db #0x06
   035A 04                 2160 	.db #0x04
   035B 06                 2161 	.db #0x06
   035C 0C                 2162 	.db #0x0C
   035D 06                 2163 	.db #0x06
   035E FF                 2164 	.db #0xFF
   035F FF                 2165 	.db #0xFF
   0360 FF                 2166 	.db #0xFF
   0361 FF                 2167 	.db #0xFF
   0362 FF                 2168 	.db #0xFF
   0363 FF                 2169 	.db #0xFF
   0364 0C                 2170 	.db #0x0C
   0365 0C                 2171 	.db #0x0C
   0366 0C                 2172 	.db #0x0C
   0367 0C                 2173 	.db #0x0C
   0368 0C                 2174 	.db #0x0C
   0369 0C                 2175 	.db #0x0C
   036A 0C                 2176 	.db #0x0C
   036B 0C                 2177 	.db #0x0C
   036C 1E                 2178 	.db #0x1E
   036D 0C                 2179 	.db #0x0C
   036E FF                 2180 	.db #0xFF
   036F FF                 2181 	.db #0xFF
   0370 FF                 2182 	.db #0xFF
   0371 FF                 2183 	.db #0xFF
   0372 FF                 2184 	.db #0xFF
   0373 FF                 2185 	.db #0xFF
   0374 18                 2186 	.db #0x18
   0375 0C                 2187 	.db #0x0C
   0376 18                 2188 	.db #0x18
   0377 0C                 2189 	.db #0x0C
   0378 18                 2190 	.db #0x18
   0379 0C                 2191 	.db #0x0C
   037A 18                 2192 	.db #0x18
   037B 0C                 2193 	.db #0x0C
   037C 08                 2194 	.db #0x08
   037D 1C                 2195 	.db #0x1C
   037E FF                 2196 	.db #0xFF
   037F FF                 2197 	.db #0xFF
   0380 FF                 2198 	.db #0xFF
   0381 FF                 2199 	.db #0xFF
   0382 FF                 2200 	.db #0xFF
   0383 FF                 2201 	.db #0xFF
   0384 00                 2202 	.db #0x00
   0385 00                 2203 	.db #0x00
   0386 00                 2204 	.db #0x00
   0387 00                 2205 	.db #0x00
   0388 00                 2206 	.db #0x00
   0389 00                 2207 	.db #0x00
   038A 00                 2208 	.db #0x00
   038B 00                 2209 	.db #0x00
   038C 00                 2210 	.db #0x00
   038D 00                 2211 	.db #0x00
   038E FF                 2212 	.db #0xFF
   038F FF                 2213 	.db #0xFF
   0390 FF                 2214 	.db #0xFF
   0391 FF                 2215 	.db #0xFF
   0392 FF                 2216 	.db #0xFF
   0393 FF                 2217 	.db #0xFF
   0394 30                 2218 	.db #0x30
   0395 18                 2219 	.db #0x18
   0396 30                 2220 	.db #0x30
   0397 18                 2221 	.db #0x18
   0398 30                 2222 	.db #0x30
   0399 18                 2223 	.db #0x18
   039A 30                 2224 	.db #0x30
   039B 18                 2225 	.db #0x18
   039C 14                 2226 	.db #0x14
   039D 38                 2227 	.db #0x38
   039E FF                 2228 	.db #0xFF
   039F FF                 2229 	.db #0xFF
   03A0 FF                 2230 	.db #0xFF
   03A1 FF                 2231 	.db #0xFF
   03A2 FF                 2232 	.db #0xFF
   03A3 FF                 2233 	.db #0xFF
   03A4 60                 2234 	.db #0x60
   03A5 30                 2235 	.db #0x30
   03A6 60                 2236 	.db #0x60
   03A7 30                 2237 	.db #0x30
   03A8 60                 2238 	.db #0x60
   03A9 30                 2239 	.db #0x30
   03AA 60                 2240 	.db #0x60
   03AB 30                 2241 	.db #0x30
   03AC 38                 2242 	.db #0x38
   03AD 70                 2243 	.db #0x70
   03AE FF                 2244 	.db #0xFF
   03AF FF                 2245 	.db #0xFF
   03B0 FF                 2246 	.db #0xFF
   03B1 FF                 2247 	.db #0xFF
   03B2 FF                 2248 	.db #0xFF
   03B3 FF                 2249 	.db #0xFF
   03B4 E0                 2250 	.db #0xE0
   03B5 60                 2251 	.db #0x60
   03B6 E0                 2252 	.db #0xE0
   03B7 60                 2253 	.db #0x60
   03B8 E0                 2254 	.db #0xE0
   03B9 60                 2255 	.db #0x60
   03BA E0                 2256 	.db #0xE0
   03BB 60                 2257 	.db #0x60
   03BC F1                 2258 	.db #0xF1
   03BD 60                 2259 	.db #0x60
   03BE FF                 2260 	.db #0xFF
   03BF FF                 2261 	.db #0xFF
   03C0 FF                 2262 	.db #0xFF
   03C1 FF                 2263 	.db #0xFF
   03C2 FF                 2264 	.db #0xFF
   03C3 FF                 2265 	.db #0xFF
   03C4 C0                 2266 	.db #0xC0
   03C5 C0                 2267 	.db #0xC0
   03C6 C0                 2268 	.db #0xC0
   03C7 C0                 2269 	.db #0xC0
   03C8 C0                 2270 	.db #0xC0
   03C9 C0                 2271 	.db #0xC0
   03CA C0                 2272 	.db #0xC0
   03CB C0                 2273 	.db #0xC0
   03CC E0                 2274 	.db #0xE0
   03CD C0                 2275 	.db #0xC0
   03CE FF                 2276 	.db #0xFF
   03CF FF                 2277 	.db #0xFF
   03D0 FF                 2278 	.db #0xFF
   03D1 FF                 2279 	.db #0xFF
   03D2 FF                 2280 	.db #0xFF
   03D3 FF                 2281 	.db #0xFF
   03D4 03                 2282 	.db #0x03
   03D5 01                 2283 	.db #0x01
   03D6 03                 2284 	.db #0x03
   03D7 01                 2285 	.db #0x01
   03D8 03                 2286 	.db #0x03
   03D9 01                 2287 	.db #0x01
   03DA 03                 2288 	.db #0x03
   03DB 01                 2289 	.db #0x01
   03DC 03                 2290 	.db #0x03
   03DD 01                 2291 	.db #0x01
   03DE FF                 2292 	.db #0xFF
   03DF FF                 2293 	.db #0xFF
   03E0 FF                 2294 	.db #0xFF
   03E1 FF                 2295 	.db #0xFF
   03E2 FF                 2296 	.db #0xFF
   03E3 FF                 2297 	.db #0xFF
   03E4 FF                 2298 	.db #0xFF
   03E5 FF                 2299 	.db #0xFF
   03E6 FF                 2300 	.db #0xFF
   03E7 FF                 2301 	.db #0xFF
   03E8 FF                 2302 	.db #0xFF
   03E9 FF                 2303 	.db #0xFF
   03EA FF                 2304 	.db #0xFF
   03EB FF                 2305 	.db #0xFF
   03EC FE                 2306 	.db #0xFE
   03ED FF                 2307 	.db #0xFF
   03EE FE                 2308 	.db #0xFE
   03EF FE                 2309 	.db #0xFE
   03F0 FE                 2310 	.db #0xFE
   03F1 FE                 2311 	.db #0xFE
   03F2 FE                 2312 	.db #0xFE
   03F3 FE                 2313 	.db #0xFE
   03F4 FF                 2314 	.db #0xFF
   03F5 FF                 2315 	.db #0xFF
   03F6 FF                 2316 	.db #0xFF
   03F7 FF                 2317 	.db #0xFF
   03F8 FF                 2318 	.db #0xFF
   03F9 FF                 2319 	.db #0xFF
   03FA FF                 2320 	.db #0xFF
   03FB FF                 2321 	.db #0xFF
   03FC 03                 2322 	.db #0x03
   03FD FF                 2323 	.db #0xFF
   03FE 07                 2324 	.db #0x07
   03FF 03                 2325 	.db #0x03
   0400 07                 2326 	.db #0x07
   0401 03                 2327 	.db #0x03
   0402 3F                 2328 	.db #0x3F
   0403 03                 2329 	.db #0x03
   0404 FF                 2330 	.db #0xFF
   0405 FF                 2331 	.db #0xFF
   0406 FF                 2332 	.db #0xFF
   0407 FF                 2333 	.db #0xFF
   0408 FF                 2334 	.db #0xFF
   0409 FF                 2335 	.db #0xFF
   040A FF                 2336 	.db #0xFF
   040B FF                 2337 	.db #0xFF
   040C FC                 2338 	.db #0xFC
   040D FF                 2339 	.db #0xFF
   040E FC                 2340 	.db #0xFC
   040F FC                 2341 	.db #0xFC
   0410 FC                 2342 	.db #0xFC
   0411 FC                 2343 	.db #0xFC
   0412 FC                 2344 	.db #0xFC
   0413 FC                 2345 	.db #0xFC
   0414 FF                 2346 	.db #0xFF
   0415 FF                 2347 	.db #0xFF
   0416 FF                 2348 	.db #0xFF
   0417 FF                 2349 	.db #0xFF
   0418 FF                 2350 	.db #0xFF
   0419 FF                 2351 	.db #0xFF
   041A FF                 2352 	.db #0xFF
   041B FF                 2353 	.db #0xFF
   041C 7C                 2354 	.db #0x7C
   041D FF                 2355 	.db #0xFF
   041E 78                 2356 	.db #0x78
   041F 7C                 2357 	.db #0x7C
   0420 78                 2358 	.db #0x78
   0421 7C                 2359 	.db #0x7C
   0422 78                 2360 	.db #0x78
   0423 7C                 2361 	.db #0x7C
   0424 FF                 2362 	.db #0xFF
   0425 FF                 2363 	.db #0xFF
   0426 FF                 2364 	.db #0xFF
   0427 FF                 2365 	.db #0xFF
   0428 FF                 2366 	.db #0xFF
   0429 FF                 2367 	.db #0xFF
   042A FF                 2368 	.db #0xFF
   042B FF                 2369 	.db #0xFF
   042C 7F                 2370 	.db #0x7F
   042D FF                 2371 	.db #0xFF
   042E FF                 2372 	.db #0xFF
   042F 7F                 2373 	.db #0x7F
   0430 FF                 2374 	.db #0xFF
   0431 7F                 2375 	.db #0x7F
   0432 FF                 2376 	.db #0xFF
   0433 7F                 2377 	.db #0x7F
   0434 FF                 2378 	.db #0xFF
   0435 FF                 2379 	.db #0xFF
   0436 FF                 2380 	.db #0xFF
   0437 FF                 2381 	.db #0xFF
   0438 FF                 2382 	.db #0xFF
   0439 FF                 2383 	.db #0xFF
   043A FF                 2384 	.db #0xFF
   043B FF                 2385 	.db #0xFF
   043C F0                 2386 	.db #0xF0
   043D FF                 2387 	.db #0xFF
   043E F8                 2388 	.db #0xF8
   043F F0                 2389 	.db #0xF0
   0440 F8                 2390 	.db #0xF8
   0441 F0                 2391 	.db #0xF0
   0442 F8                 2392 	.db #0xF8
   0443 F0                 2393 	.db #0xF0
   0444 FF                 2394 	.db #0xFF
   0445 FF                 2395 	.db #0xFF
   0446 FF                 2396 	.db #0xFF
   0447 FF                 2397 	.db #0xFF
   0448 FF                 2398 	.db #0xFF
   0449 FF                 2399 	.db #0xFF
   044A FF                 2400 	.db #0xFF
   044B FF                 2401 	.db #0xFF
   044C 11                 2402 	.db #0x11
   044D FF                 2403 	.db #0xFF
   044E 09                 2404 	.db #0x09
   044F 11                 2405 	.db #0x11
   0450 09                 2406 	.db #0x09
   0451 11                 2407 	.db #0x11
   0452 E9                 2408 	.db #0xE9
   0453 11                 2409 	.db #0x11
   0454 FF                 2410 	.db #0xFF
   0455 FF                 2411 	.db #0xFF
   0456 FF                 2412 	.db #0xFF
   0457 FF                 2413 	.db #0xFF
   0458 FF                 2414 	.db #0xFF
   0459 FF                 2415 	.db #0xFF
   045A FF                 2416 	.db #0xFF
   045B FF                 2417 	.db #0xFF
   045C C7                 2418 	.db #0xC7
   045D FF                 2419 	.db #0xFF
   045E E3                 2420 	.db #0xE3
   045F C7                 2421 	.db #0xC7
   0460 E3                 2422 	.db #0xE3
   0461 C7                 2423 	.db #0xC7
   0462 E3                 2424 	.db #0xE3
   0463 C7                 2425 	.db #0xC7
   0464 FF                 2426 	.db #0xFF
   0465 FF                 2427 	.db #0xFF
   0466 FE                 2428 	.db #0xFE
   0467 FE                 2429 	.db #0xFE
   0468 FE                 2430 	.db #0xFE
   0469 FE                 2431 	.db #0xFE
   046A FE                 2432 	.db #0xFE
   046B FE                 2433 	.db #0xFE
   046C FE                 2434 	.db #0xFE
   046D FE                 2435 	.db #0xFE
   046E FE                 2436 	.db #0xFE
   046F FE                 2437 	.db #0xFE
   0470 FE                 2438 	.db #0xFE
   0471 FE                 2439 	.db #0xFE
   0472 FE                 2440 	.db #0xFE
   0473 FE                 2441 	.db #0xFE
   0474 FE                 2442 	.db #0xFE
   0475 FE                 2443 	.db #0xFE
   0476 02                 2444 	.db #0x02
   0477 02                 2445 	.db #0x02
   0478 02                 2446 	.db #0x02
   0479 02                 2447 	.db #0x02
   047A 02                 2448 	.db #0x02
   047B 02                 2449 	.db #0x02
   047C 22                 2450 	.db #0x22
   047D 22                 2451 	.db #0x22
   047E 22                 2452 	.db #0x22
   047F 22                 2453 	.db #0x22
   0480 22                 2454 	.db #0x22
   0481 22                 2455 	.db #0x22
   0482 22                 2456 	.db #0x22
   0483 22                 2457 	.db #0x22
   0484 7F                 2458 	.db #0x7F
   0485 3F                 2459 	.db #0x3F
   0486 1F                 2460 	.db #0x1F
   0487 0F                 2461 	.db #0x0F
   0488 1F                 2462 	.db #0x1F
   0489 0F                 2463 	.db #0x0F
   048A 1F                 2464 	.db #0x1F
   048B 0F                 2465 	.db #0x0F
   048C 7F                 2466 	.db #0x7F
   048D 3F                 2467 	.db #0x3F
   048E 7F                 2468 	.db #0x7F
   048F 3F                 2469 	.db #0x3F
   0490 7F                 2470 	.db #0x7F
   0491 3F                 2471 	.db #0x3F
   0492 7F                 2472 	.db #0x7F
   0493 3F                 2473 	.db #0x3F
   0494 FC                 2474 	.db #0xFC
   0495 FC                 2475 	.db #0xFC
   0496 FC                 2476 	.db #0xFC
   0497 FC                 2477 	.db #0xFC
   0498 FC                 2478 	.db #0xFC
   0499 FC                 2479 	.db #0xFC
   049A FC                 2480 	.db #0xFC
   049B FC                 2481 	.db #0xFC
   049C FC                 2482 	.db #0xFC
   049D FC                 2483 	.db #0xFC
   049E FC                 2484 	.db #0xFC
   049F FC                 2485 	.db #0xFC
   04A0 FC                 2486 	.db #0xFC
   04A1 FC                 2487 	.db #0xFC
   04A2 FC                 2488 	.db #0xFC
   04A3 FC                 2489 	.db #0xFC
   04A4 78                 2490 	.db #0x78
   04A5 7C                 2491 	.db #0x7C
   04A6 08                 2492 	.db #0x08
   04A7 04                 2493 	.db #0x04
   04A8 08                 2494 	.db #0x08
   04A9 04                 2495 	.db #0x04
   04AA 08                 2496 	.db #0x08
   04AB 04                 2497 	.db #0x04
   04AC 78                 2498 	.db #0x78
   04AD 7C                 2499 	.db #0x7C
   04AE 48                 2500 	.db #0x48
   04AF 44                 2501 	.db #0x44
   04B0 48                 2502 	.db #0x48
   04B1 44                 2503 	.db #0x44
   04B2 48                 2504 	.db #0x48
   04B3 44                 2505 	.db #0x44
   04B4 FF                 2506 	.db #0xFF
   04B5 7F                 2507 	.db #0x7F
   04B6 0C                 2508 	.db #0x0C
   04B7 00                 2509 	.db #0x00
   04B8 0C                 2510 	.db #0x0C
   04B9 00                 2511 	.db #0x00
   04BA 0C                 2512 	.db #0x0C
   04BB 00                 2513 	.db #0x00
   04BC CC                 2514 	.db #0xCC
   04BD 00                 2515 	.db #0x00
   04BE CC                 2516 	.db #0xCC
   04BF 00                 2517 	.db #0x00
   04C0 CC                 2518 	.db #0xCC
   04C1 00                 2519 	.db #0x00
   04C2 CC                 2520 	.db #0xCC
   04C3 00                 2521 	.db #0x00
   04C4 FF                 2522 	.db #0xFF
   04C5 FF                 2523 	.db #0xFF
   04C6 0F                 2524 	.db #0x0F
   04C7 0F                 2525 	.db #0x0F
   04C8 0F                 2526 	.db #0x0F
   04C9 0F                 2527 	.db #0x0F
   04CA 0F                 2528 	.db #0x0F
   04CB 0F                 2529 	.db #0x0F
   04CC 4F                 2530 	.db #0x4F
   04CD 8F                 2531 	.db #0x8F
   04CE 0F                 2532 	.db #0x0F
   04CF 0F                 2533 	.db #0x0F
   04D0 0F                 2534 	.db #0x0F
   04D1 0F                 2535 	.db #0x0F
   04D2 0F                 2536 	.db #0x0F
   04D3 0F                 2537 	.db #0x0F
   04D4 F9                 2538 	.db #0xF9
   04D5 F0                 2539 	.db #0xF0
   04D6 F8                 2540 	.db #0xF8
   04D7 F0                 2541 	.db #0xF0
   04D8 F8                 2542 	.db #0xF8
   04D9 F0                 2543 	.db #0xF0
   04DA F8                 2544 	.db #0xF8
   04DB F0                 2545 	.db #0xF0
   04DC F9                 2546 	.db #0xF9
   04DD F0                 2547 	.db #0xF0
   04DE F9                 2548 	.db #0xF9
   04DF F0                 2549 	.db #0xF0
   04E0 F9                 2550 	.db #0xF9
   04E1 F0                 2551 	.db #0xF0
   04E2 F9                 2552 	.db #0xF9
   04E3 F0                 2553 	.db #0xF0
   04E4 F9                 2554 	.db #0xF9
   04E5 F1                 2555 	.db #0xF1
   04E6 09                 2556 	.db #0x09
   04E7 11                 2557 	.db #0x11
   04E8 09                 2558 	.db #0x09
   04E9 11                 2559 	.db #0x11
   04EA 09                 2560 	.db #0x09
   04EB 11                 2561 	.db #0x11
   04EC F9                 2562 	.db #0xF9
   04ED F1                 2563 	.db #0xF1
   04EE 89                 2564 	.db #0x89
   04EF 11                 2565 	.db #0x11
   04F0 89                 2566 	.db #0x89
   04F1 11                 2567 	.db #0x11
   04F2 89                 2568 	.db #0x89
   04F3 11                 2569 	.db #0x11
   04F4 FF                 2570 	.db #0xFF
   04F5 FF                 2571 	.db #0xFF
   04F6 03                 2572 	.db #0x03
   04F7 00                 2573 	.db #0x00
   04F8 01                 2574 	.db #0x01
   04F9 00                 2575 	.db #0x00
   04FA 01                 2576 	.db #0x01
   04FB 00                 2577 	.db #0x00
   04FC 11                 2578 	.db #0x11
   04FD 10                 2579 	.db #0x10
   04FE 01                 2580 	.db #0x01
   04FF 00                 2581 	.db #0x00
   0500 01                 2582 	.db #0x01
   0501 00                 2583 	.db #0x00
   0502 03                 2584 	.db #0x03
   0503 00                 2585 	.db #0x00
   0504 FF                 2586 	.db #0xFF
   0505 FF                 2587 	.db #0xFF
   0506 04                 2588 	.db #0x04
   0507 08                 2589 	.db #0x08
   0508 00                 2590 	.db #0x00
   0509 00                 2591 	.db #0x00
   050A 00                 2592 	.db #0x00
   050B 00                 2593 	.db #0x00
   050C 22                 2594 	.db #0x22
   050D 00                 2595 	.db #0x00
   050E 10                 2596 	.db #0x10
   050F 22                 2597 	.db #0x22
   0510 10                 2598 	.db #0x10
   0511 22                 2599 	.db #0x22
   0512 10                 2600 	.db #0x10
   0513 22                 2601 	.db #0x22
   0514 FF                 2602 	.db #0xFF
   0515 FF                 2603 	.db #0xFF
   0516 20                 2604 	.db #0x20
   0517 20                 2605 	.db #0x20
   0518 20                 2606 	.db #0x20
   0519 20                 2607 	.db #0x20
   051A 20                 2608 	.db #0x20
   051B 20                 2609 	.db #0x20
   051C 22                 2610 	.db #0x22
   051D 22                 2611 	.db #0x22
   051E 20                 2612 	.db #0x20
   051F 20                 2613 	.db #0x20
   0520 20                 2614 	.db #0x20
   0521 20                 2615 	.db #0x20
   0522 20                 2616 	.db #0x20
   0523 20                 2617 	.db #0x20
   0524 FF                 2618 	.db #0xFF
   0525 FF                 2619 	.db #0xFF
   0526 40                 2620 	.db #0x40
   0527 20                 2621 	.db #0x20
   0528 40                 2622 	.db #0x40
   0529 20                 2623 	.db #0x20
   052A 40                 2624 	.db #0x40
   052B 20                 2625 	.db #0x20
   052C 44                 2626 	.db #0x44
   052D 22                 2627 	.db #0x22
   052E 44                 2628 	.db #0x44
   052F 22                 2629 	.db #0x22
   0530 44                 2630 	.db #0x44
   0531 22                 2631 	.db #0x22
   0532 44                 2632 	.db #0x44
   0533 22                 2633 	.db #0x22
   0534 E3                 2634 	.db #0xE3
   0535 C7                 2635 	.db #0xC7
   0536 60                 2636 	.db #0x60
   0537 00                 2637 	.db #0x00
   0538 60                 2638 	.db #0x60
   0539 00                 2639 	.db #0x00
   053A 60                 2640 	.db #0x60
   053B 00                 2641 	.db #0x00
   053C 63                 2642 	.db #0x63
   053D 07                 2643 	.db #0x07
   053E 62                 2644 	.db #0x62
   053F 04                 2645 	.db #0x04
   0540 62                 2646 	.db #0x62
   0541 04                 2647 	.db #0x04
   0542 62                 2648 	.db #0x62
   0543 04                 2649 	.db #0x04
   0544 FF                 2650 	.db #0xFF
   0545 FF                 2651 	.db #0xFF
   0546 20                 2652 	.db #0x20
   0547 40                 2653 	.db #0x40
   0548 00                 2654 	.db #0x00
   0549 40                 2655 	.db #0x40
   054A 00                 2656 	.db #0x00
   054B 40                 2657 	.db #0x40
   054C C7                 2658 	.db #0xC7
   054D C7                 2659 	.db #0xC7
   054E 00                 2660 	.db #0x00
   054F 40                 2661 	.db #0x40
   0550 00                 2662 	.db #0x00
   0551 40                 2663 	.db #0x40
   0552 20                 2664 	.db #0x20
   0553 40                 2665 	.db #0x40
   0554 FF                 2666 	.db #0xFF
   0555 FF                 2667 	.db #0xFF
   0556 7F                 2668 	.db #0x7F
   0557 7F                 2669 	.db #0x7F
   0558 7F                 2670 	.db #0x7F
   0559 7F                 2671 	.db #0x7F
   055A FF                 2672 	.db #0xFF
   055B 7F                 2673 	.db #0x7F
   055C FF                 2674 	.db #0xFF
   055D FF                 2675 	.db #0xFF
   055E FF                 2676 	.db #0xFF
   055F 7F                 2677 	.db #0x7F
   0560 7F                 2678 	.db #0x7F
   0561 7F                 2679 	.db #0x7F
   0562 7F                 2680 	.db #0x7F
   0563 7F                 2681 	.db #0x7F
   0564 FE                 2682 	.db #0xFE
   0565 FE                 2683 	.db #0xFE
   0566 FE                 2684 	.db #0xFE
   0567 FE                 2685 	.db #0xFE
   0568 FE                 2686 	.db #0xFE
   0569 FE                 2687 	.db #0xFE
   056A FE                 2688 	.db #0xFE
   056B FE                 2689 	.db #0xFE
   056C FF                 2690 	.db #0xFF
   056D FF                 2691 	.db #0xFF
   056E FF                 2692 	.db #0xFF
   056F FF                 2693 	.db #0xFF
   0570 FF                 2694 	.db #0xFF
   0571 FF                 2695 	.db #0xFF
   0572 FF                 2696 	.db #0xFF
   0573 FF                 2697 	.db #0xFF
   0574 22                 2698 	.db #0x22
   0575 22                 2699 	.db #0x22
   0576 02                 2700 	.db #0x02
   0577 02                 2701 	.db #0x02
   0578 02                 2702 	.db #0x02
   0579 02                 2703 	.db #0x02
   057A 02                 2704 	.db #0x02
   057B 02                 2705 	.db #0x02
   057C FF                 2706 	.db #0xFF
   057D FF                 2707 	.db #0xFF
   057E FF                 2708 	.db #0xFF
   057F FF                 2709 	.db #0xFF
   0580 FF                 2710 	.db #0xFF
   0581 FF                 2711 	.db #0xFF
   0582 FF                 2712 	.db #0xFF
   0583 FF                 2713 	.db #0xFF
   0584 7F                 2714 	.db #0x7F
   0585 3F                 2715 	.db #0x3F
   0586 7F                 2716 	.db #0x7F
   0587 3F                 2717 	.db #0x3F
   0588 7F                 2718 	.db #0x7F
   0589 3F                 2719 	.db #0x3F
   058A 7F                 2720 	.db #0x7F
   058B 3F                 2721 	.db #0x3F
   058C FF                 2722 	.db #0xFF
   058D FF                 2723 	.db #0xFF
   058E FF                 2724 	.db #0xFF
   058F FF                 2725 	.db #0xFF
   0590 FF                 2726 	.db #0xFF
   0591 FF                 2727 	.db #0xFF
   0592 FF                 2728 	.db #0xFF
   0593 FF                 2729 	.db #0xFF
   0594 FC                 2730 	.db #0xFC
   0595 FC                 2731 	.db #0xFC
   0596 FC                 2732 	.db #0xFC
   0597 FC                 2733 	.db #0xFC
   0598 FC                 2734 	.db #0xFC
   0599 FC                 2735 	.db #0xFC
   059A FC                 2736 	.db #0xFC
   059B FC                 2737 	.db #0xFC
   059C FF                 2738 	.db #0xFF
   059D FF                 2739 	.db #0xFF
   059E FF                 2740 	.db #0xFF
   059F FF                 2741 	.db #0xFF
   05A0 FF                 2742 	.db #0xFF
   05A1 FF                 2743 	.db #0xFF
   05A2 FF                 2744 	.db #0xFF
   05A3 FF                 2745 	.db #0xFF
   05A4 48                 2746 	.db #0x48
   05A5 44                 2747 	.db #0x44
   05A6 08                 2748 	.db #0x08
   05A7 04                 2749 	.db #0x04
   05A8 08                 2750 	.db #0x08
   05A9 04                 2751 	.db #0x04
   05AA 08                 2752 	.db #0x08
   05AB 04                 2753 	.db #0x04
   05AC FF                 2754 	.db #0xFF
   05AD FF                 2755 	.db #0xFF
   05AE FF                 2756 	.db #0xFF
   05AF FF                 2757 	.db #0xFF
   05B0 FF                 2758 	.db #0xFF
   05B1 FF                 2759 	.db #0xFF
   05B2 FF                 2760 	.db #0xFF
   05B3 FF                 2761 	.db #0xFF
   05B4 CC                 2762 	.db #0xCC
   05B5 00                 2763 	.db #0x00
   05B6 CC                 2764 	.db #0xCC
   05B7 00                 2765 	.db #0x00
   05B8 CC                 2766 	.db #0xCC
   05B9 00                 2767 	.db #0x00
   05BA CC                 2768 	.db #0xCC
   05BB 00                 2769 	.db #0x00
   05BC FF                 2770 	.db #0xFF
   05BD FF                 2771 	.db #0xFF
   05BE FF                 2772 	.db #0xFF
   05BF FF                 2773 	.db #0xFF
   05C0 FF                 2774 	.db #0xFF
   05C1 FF                 2775 	.db #0xFF
   05C2 FF                 2776 	.db #0xFF
   05C3 FF                 2777 	.db #0xFF
   05C4 7F                 2778 	.db #0x7F
   05C5 FF                 2779 	.db #0xFF
   05C6 0F                 2780 	.db #0x0F
   05C7 0F                 2781 	.db #0x0F
   05C8 0F                 2782 	.db #0x0F
   05C9 0F                 2783 	.db #0x0F
   05CA 0F                 2784 	.db #0x0F
   05CB 0F                 2785 	.db #0x0F
   05CC FF                 2786 	.db #0xFF
   05CD FF                 2787 	.db #0xFF
   05CE FF                 2788 	.db #0xFF
   05CF FF                 2789 	.db #0xFF
   05D0 FF                 2790 	.db #0xFF
   05D1 FF                 2791 	.db #0xFF
   05D2 FF                 2792 	.db #0xFF
   05D3 FF                 2793 	.db #0xFF
   05D4 F9                 2794 	.db #0xF9
   05D5 F0                 2795 	.db #0xF0
   05D6 F8                 2796 	.db #0xF8
   05D7 F0                 2797 	.db #0xF0
   05D8 F8                 2798 	.db #0xF8
   05D9 F0                 2799 	.db #0xF0
   05DA F8                 2800 	.db #0xF8
   05DB F0                 2801 	.db #0xF0
   05DC FF                 2802 	.db #0xFF
   05DD FF                 2803 	.db #0xFF
   05DE FF                 2804 	.db #0xFF
   05DF FF                 2805 	.db #0xFF
   05E0 FF                 2806 	.db #0xFF
   05E1 FF                 2807 	.db #0xFF
   05E2 FF                 2808 	.db #0xFF
   05E3 FF                 2809 	.db #0xFF
   05E4 89                 2810 	.db #0x89
   05E5 11                 2811 	.db #0x11
   05E6 09                 2812 	.db #0x09
   05E7 11                 2813 	.db #0x11
   05E8 09                 2814 	.db #0x09
   05E9 11                 2815 	.db #0x11
   05EA 09                 2816 	.db #0x09
   05EB 11                 2817 	.db #0x11
   05EC FF                 2818 	.db #0xFF
   05ED FF                 2819 	.db #0xFF
   05EE FF                 2820 	.db #0xFF
   05EF FF                 2821 	.db #0xFF
   05F0 FF                 2822 	.db #0xFF
   05F1 FF                 2823 	.db #0xFF
   05F2 FF                 2824 	.db #0xFF
   05F3 FF                 2825 	.db #0xFF
   05F4 1F                 2826 	.db #0x1F
   05F5 1E                 2827 	.db #0x1E
   05F6 03                 2828 	.db #0x03
   05F7 00                 2829 	.db #0x00
   05F8 01                 2830 	.db #0x01
   05F9 00                 2831 	.db #0x00
   05FA 03                 2832 	.db #0x03
   05FB 00                 2833 	.db #0x00
   05FC FF                 2834 	.db #0xFF
   05FD FF                 2835 	.db #0xFF
   05FE FF                 2836 	.db #0xFF
   05FF FF                 2837 	.db #0xFF
   0600 FF                 2838 	.db #0xFF
   0601 FF                 2839 	.db #0xFF
   0602 FF                 2840 	.db #0xFF
   0603 FF                 2841 	.db #0xFF
   0604 10                 2842 	.db #0x10
   0605 22                 2843 	.db #0x22
   0606 10                 2844 	.db #0x10
   0607 22                 2845 	.db #0x22
   0608 10                 2846 	.db #0x10
   0609 22                 2847 	.db #0x22
   060A 11                 2848 	.db #0x11
   060B 22                 2849 	.db #0x22
   060C FF                 2850 	.db #0xFF
   060D FF                 2851 	.db #0xFF
   060E FF                 2852 	.db #0xFF
   060F FF                 2853 	.db #0xFF
   0610 FF                 2854 	.db #0xFF
   0611 FF                 2855 	.db #0xFF
   0612 FF                 2856 	.db #0xFF
   0613 FF                 2857 	.db #0xFF
   0614 23                 2858 	.db #0x23
   0615 23                 2859 	.db #0x23
   0616 20                 2860 	.db #0x20
   0617 20                 2861 	.db #0x20
   0618 20                 2862 	.db #0x20
   0619 20                 2863 	.db #0x20
   061A 20                 2864 	.db #0x20
   061B 20                 2865 	.db #0x20
   061C FF                 2866 	.db #0xFF
   061D FF                 2867 	.db #0xFF
   061E FF                 2868 	.db #0xFF
   061F FF                 2869 	.db #0xFF
   0620 FF                 2870 	.db #0xFF
   0621 FF                 2871 	.db #0xFF
   0622 FF                 2872 	.db #0xFF
   0623 FF                 2873 	.db #0xFF
   0624 C4                 2874 	.db #0xC4
   0625 E2                 2875 	.db #0xE2
   0626 44                 2876 	.db #0x44
   0627 22                 2877 	.db #0x22
   0628 44                 2878 	.db #0x44
   0629 22                 2879 	.db #0x22
   062A 44                 2880 	.db #0x44
   062B 22                 2881 	.db #0x22
   062C FF                 2882 	.db #0xFF
   062D FF                 2883 	.db #0xFF
   062E FF                 2884 	.db #0xFF
   062F FF                 2885 	.db #0xFF
   0630 FF                 2886 	.db #0xFF
   0631 FF                 2887 	.db #0xFF
   0632 FF                 2888 	.db #0xFF
   0633 FF                 2889 	.db #0xFF
   0634 62                 2890 	.db #0x62
   0635 04                 2891 	.db #0x04
   0636 60                 2892 	.db #0x60
   0637 00                 2893 	.db #0x00
   0638 60                 2894 	.db #0x60
   0639 00                 2895 	.db #0x00
   063A 60                 2896 	.db #0x60
   063B 00                 2897 	.db #0x00
   063C FF                 2898 	.db #0xFF
   063D FF                 2899 	.db #0xFF
   063E FF                 2900 	.db #0xFF
   063F FF                 2901 	.db #0xFF
   0640 FF                 2902 	.db #0xFF
   0641 FF                 2903 	.db #0xFF
   0642 FF                 2904 	.db #0xFF
   0643 FF                 2905 	.db #0xFF
   0644 3C                 2906 	.db #0x3C
   0645 7C                 2907 	.db #0x7C
   0646 20                 2908 	.db #0x20
   0647 40                 2909 	.db #0x40
   0648 00                 2910 	.db #0x00
   0649 40                 2911 	.db #0x40
   064A 20                 2912 	.db #0x20
   064B 40                 2913 	.db #0x40
   064C FF                 2914 	.db #0xFF
   064D FF                 2915 	.db #0xFF
   064E FF                 2916 	.db #0xFF
   064F FF                 2917 	.db #0xFF
   0650 FF                 2918 	.db #0xFF
   0651 FF                 2919 	.db #0xFF
   0652 FF                 2920 	.db #0xFF
   0653 FF                 2921 	.db #0xFF
   0654 7F                 2922 	.db #0x7F
   0655 7F                 2923 	.db #0x7F
   0656 7F                 2924 	.db #0x7F
   0657 7F                 2925 	.db #0x7F
   0658 7F                 2926 	.db #0x7F
   0659 7F                 2927 	.db #0x7F
   065A 7F                 2928 	.db #0x7F
   065B 7F                 2929 	.db #0x7F
   065C FF                 2930 	.db #0xFF
   065D FF                 2931 	.db #0xFF
   065E FF                 2932 	.db #0xFF
   065F FF                 2933 	.db #0xFF
   0660 FF                 2934 	.db #0xFF
   0661 FF                 2935 	.db #0xFF
   0662 FF                 2936 	.db #0xFF
   0663 FF                 2937 	.db #0xFF
   0664 FF                 2938 	.db #0xFF
   0665 FF                 2939 	.db #0xFF
   0666 FF                 2940 	.db #0xFF
   0667 FF                 2941 	.db #0xFF
   0668 FF                 2942 	.db #0xFF
   0669 FF                 2943 	.db #0xFF
   066A FF                 2944 	.db #0xFF
   066B FF                 2945 	.db #0xFF
   066C FB                 2946 	.db #0xFB
   066D FB                 2947 	.db #0xFB
   066E F5                 2948 	.db #0xF5
   066F F1                 2949 	.db #0xF1
   0670 F1                 2950 	.db #0xF1
   0671 F1                 2951 	.db #0xF1
   0672 F5                 2952 	.db #0xF5
   0673 F1                 2953 	.db #0xF1
   0674 FF                 2954 	.db #0xFF
   0675 FF                 2955 	.db #0xFF
   0676 FF                 2956 	.db #0xFF
   0677 FF                 2957 	.db #0xFF
   0678 FF                 2958 	.db #0xFF
   0679 FF                 2959 	.db #0xFF
   067A FF                 2960 	.db #0xFF
   067B FF                 2961 	.db #0xFF
   067C 8E                 2962 	.db #0x8E
   067D 8E                 2963 	.db #0x8E
   067E BD                 2964 	.db #0xBD
   067F 9C                 2965 	.db #0x9C
   0680 A4                 2966 	.db #0xA4
   0681 84                 2967 	.db #0x84
   0682 AD                 2968 	.db #0xAD
   0683 8C                 2969 	.db #0x8C
   0684 FF                 2970 	.db #0xFF
   0685 FF                 2971 	.db #0xFF
   0686 FF                 2972 	.db #0xFF
   0687 FF                 2973 	.db #0xFF
   0688 FF                 2974 	.db #0xFF
   0689 FF                 2975 	.db #0xFF
   068A FF                 2976 	.db #0xFF
   068B FF                 2977 	.db #0xFF
   068C C9                 2978 	.db #0xC9
   068D C9                 2979 	.db #0xC9
   068E 55                 2980 	.db #0x55
   068F 45                 2981 	.db #0x45
   0690 5D                 2982 	.db #0x5D
   0691 4D                 2983 	.db #0x4D
   0692 5D                 2984 	.db #0x5D
   0693 4D                 2985 	.db #0x4D
   0694 FF                 2986 	.db #0xFF
   0695 FF                 2987 	.db #0xFF
   0696 FF                 2988 	.db #0xFF
   0697 FF                 2989 	.db #0xFF
   0698 FF                 2990 	.db #0xFF
   0699 FF                 2991 	.db #0xFF
   069A FF                 2992 	.db #0xFF
   069B FF                 2993 	.db #0xFF
   069C 18                 2994 	.db #0x18
   069D 18                 2995 	.db #0x18
   069E 7A                 2996 	.db #0x7A
   069F 38                 2997 	.db #0x38
   06A0 19                 2998 	.db #0x19
   06A1 19                 2999 	.db #0x19
   06A2 7A                 3000 	.db #0x7A
   06A3 38                 3001 	.db #0x38
   06A4 FF                 3002 	.db #0xFF
   06A5 FF                 3003 	.db #0xFF
   06A6 FF                 3004 	.db #0xFF
   06A7 FF                 3005 	.db #0xFF
   06A8 FF                 3006 	.db #0xFF
   06A9 FF                 3007 	.db #0xFF
   06AA FF                 3008 	.db #0xFF
   06AB FF                 3009 	.db #0xFF
   06AC FF                 3010 	.db #0xFF
   06AD FF                 3011 	.db #0xFF
   06AE 5F                 3012 	.db #0x5F
   06AF 5F                 3013 	.db #0x5F
   06B0 B7                 3014 	.db #0xB7
   06B1 93                 3015 	.db #0x93
   06B2 BF                 3016 	.db #0xBF
   06B3 9F                 3017 	.db #0x9F
   06B4 FF                 3018 	.db #0xFF
   06B5 FF                 3019 	.db #0xFF
   06B6 FF                 3020 	.db #0xFF
   06B7 FF                 3021 	.db #0xFF
   06B8 FF                 3022 	.db #0xFF
   06B9 FF                 3023 	.db #0xFF
   06BA FF                 3024 	.db #0xFF
   06BB FF                 3025 	.db #0xFF
   06BC 8D                 3026 	.db #0x8D
   06BD 8C                 3027 	.db #0x8C
   06BE B7                 3028 	.db #0xB7
   06BF 97                 3029 	.db #0x97
   06C0 B5                 3030 	.db #0xB5
   06C1 94                 3031 	.db #0x94
   06C2 B5                 3032 	.db #0xB5
   06C3 94                 3033 	.db #0x94
   06C4 FF                 3034 	.db #0xFF
   06C5 FF                 3035 	.db #0xFF
   06C6 FF                 3036 	.db #0xFF
   06C7 FF                 3037 	.db #0xFF
   06C8 FF                 3038 	.db #0xFF
   06C9 FF                 3039 	.db #0xFF
   06CA FF                 3040 	.db #0xFF
   06CB FF                 3041 	.db #0xFF
   06CC B3                 3042 	.db #0xB3
   06CD B3                 3043 	.db #0xB3
   06CE 55                 3044 	.db #0x55
   06CF 11                 3045 	.db #0x11
   06D0 15                 3046 	.db #0x15
   06D1 11                 3047 	.db #0x11
   06D2 55                 3048 	.db #0x55
   06D3 11                 3049 	.db #0x11
   06D4 FF                 3050 	.db #0xFF
   06D5 FF                 3051 	.db #0xFF
   06D6 FF                 3052 	.db #0xFF
   06D7 FF                 3053 	.db #0xFF
   06D8 FF                 3054 	.db #0xFF
   06D9 FF                 3055 	.db #0xFF
   06DA FF                 3056 	.db #0xFF
   06DB FF                 3057 	.db #0xFF
   06DC BA                 3058 	.db #0xBA
   06DD B8                 3059 	.db #0xB8
   06DE 5A                 3060 	.db #0x5A
   06DF 18                 3061 	.db #0x18
   06E0 18                 3062 	.db #0x18
   06E1 18                 3063 	.db #0x18
   06E2 5A                 3064 	.db #0x5A
   06E3 18                 3065 	.db #0x18
   06E4 FF                 3066 	.db #0xFF
   06E5 FF                 3067 	.db #0xFF
   06E6 FF                 3068 	.db #0xFF
   06E7 FF                 3069 	.db #0xFF
   06E8 FF                 3070 	.db #0xFF
   06E9 FF                 3071 	.db #0xFF
   06EA FF                 3072 	.db #0xFF
   06EB FF                 3073 	.db #0xFF
   06EC DA                 3074 	.db #0xDA
   06ED D8                 3075 	.db #0xD8
   06EE AA                 3076 	.db #0xAA
   06EF 88                 3077 	.db #0x88
   06F0 89                 3078 	.db #0x89
   06F1 89                 3079 	.db #0x89
   06F2 AA                 3080 	.db #0xAA
   06F3 88                 3081 	.db #0x88
   06F4 FF                 3082 	.db #0xFF
   06F5 FF                 3083 	.db #0xFF
   06F6 FF                 3084 	.db #0xFF
   06F7 FF                 3085 	.db #0xFF
   06F8 FF                 3086 	.db #0xFF
   06F9 FF                 3087 	.db #0xFF
   06FA FF                 3088 	.db #0xFF
   06FB FF                 3089 	.db #0xFF
   06FC 89                 3090 	.db #0x89
   06FD 89                 3091 	.db #0x89
   06FE DA                 3092 	.db #0xDA
   06FF C8                 3093 	.db #0xC8
   0700 DB                 3094 	.db #0xDB
   0701 C9                 3095 	.db #0xC9
   0702 DB                 3096 	.db #0xDB
   0703 C9                 3097 	.db #0xC9
   0704 FF                 3098 	.db #0xFF
   0705 FF                 3099 	.db #0xFF
   0706 FF                 3100 	.db #0xFF
   0707 FF                 3101 	.db #0xFF
   0708 FF                 3102 	.db #0xFF
   0709 FF                 3103 	.db #0xFF
   070A FF                 3104 	.db #0xFF
   070B FF                 3105 	.db #0xFF
   070C 3D                 3106 	.db #0x3D
   070D 1D                 3107 	.db #0x1D
   070E BA                 3108 	.db #0xBA
   070F 98                 3109 	.db #0x98
   0710 BC                 3110 	.db #0xBC
   0711 9C                 3111 	.db #0x9C
   0712 BB                 3112 	.db #0xBB
   0713 98                 3113 	.db #0x98
   0714 FF                 3114 	.db #0xFF
   0715 FF                 3115 	.db #0xFF
   0716 FF                 3116 	.db #0xFF
   0717 FF                 3117 	.db #0xFF
   0718 FF                 3118 	.db #0xFF
   0719 FF                 3119 	.db #0xFF
   071A FF                 3120 	.db #0xFF
   071B FF                 3121 	.db #0xFF
   071C F1                 3122 	.db #0xF1
   071D F1                 3123 	.db #0xF1
   071E F6                 3124 	.db #0xF6
   071F F2                 3125 	.db #0xF2
   0720 B1                 3126 	.db #0xB1
   0721 B1                 3127 	.db #0xB1
   0722 77                 3128 	.db #0x77
   0723 73                 3129 	.db #0x73
   0724 FF                 3130 	.db #0xFF
   0725 FF                 3131 	.db #0xFF
   0726 FF                 3132 	.db #0xFF
   0727 FF                 3133 	.db #0xFF
   0728 FF                 3134 	.db #0xFF
   0729 FF                 3135 	.db #0xFF
   072A FF                 3136 	.db #0xFF
   072B FF                 3137 	.db #0xFF
   072C 8D                 3138 	.db #0x8D
   072D 8D                 3139 	.db #0x8D
   072E BA                 3140 	.db #0xBA
   072F 98                 3141 	.db #0x98
   0730 88                 3142 	.db #0x88
   0731 88                 3143 	.db #0x88
   0732 BA                 3144 	.db #0xBA
   0733 98                 3145 	.db #0x98
   0734 FF                 3146 	.db #0xFF
   0735 FF                 3147 	.db #0xFF
   0736 FF                 3148 	.db #0xFF
   0737 FF                 3149 	.db #0xFF
   0738 FF                 3150 	.db #0xFF
   0739 FF                 3151 	.db #0xFF
   073A FF                 3152 	.db #0xFF
   073B FF                 3153 	.db #0xFF
   073C 98                 3154 	.db #0x98
   073D 98                 3155 	.db #0x98
   073E AB                 3156 	.db #0xAB
   073F 89                 3157 	.db #0x89
   0740 9C                 3158 	.db #0x9C
   0741 9C                 3159 	.db #0x9C
   0742 AE                 3160 	.db #0xAE
   0743 8E                 3161 	.db #0x8E
   0744 FF                 3162 	.db #0xFF
   0745 FF                 3163 	.db #0xFF
   0746 FF                 3164 	.db #0xFF
   0747 FF                 3165 	.db #0xFF
   0748 FF                 3166 	.db #0xFF
   0749 FF                 3167 	.db #0xFF
   074A FF                 3168 	.db #0xFF
   074B FF                 3169 	.db #0xFF
   074C D9                 3170 	.db #0xD9
   074D D9                 3171 	.db #0xD9
   074E A9                 3172 	.db #0xA9
   074F 89                 3173 	.db #0x89
   0750 AA                 3174 	.db #0xAA
   0751 88                 3175 	.db #0x88
   0752 AA                 3176 	.db #0xAA
   0753 88                 3177 	.db #0x88
   0754 FF                 3178 	.db #0xFF
   0755 FF                 3179 	.db #0xFF
   0756 FF                 3180 	.db #0xFF
   0757 FF                 3181 	.db #0xFF
   0758 FF                 3182 	.db #0xFF
   0759 FF                 3183 	.db #0xFF
   075A FF                 3184 	.db #0xFF
   075B FF                 3185 	.db #0xFF
   075C 63                 3186 	.db #0x63
   075D 63                 3187 	.db #0x63
   075E 6E                 3188 	.db #0x6E
   075F 66                 3189 	.db #0x66
   0760 66                 3190 	.db #0x66
   0761 66                 3191 	.db #0x66
   0762 6E                 3192 	.db #0x6E
   0763 66                 3193 	.db #0x66
   0764 FF                 3194 	.db #0xFF
   0765 FF                 3195 	.db #0xFF
   0766 FF                 3196 	.db #0xFF
   0767 FF                 3197 	.db #0xFF
   0768 FF                 3198 	.db #0xFF
   0769 FF                 3199 	.db #0xFF
   076A FF                 3200 	.db #0xFF
   076B FF                 3201 	.db #0xFF
   076C 6D                 3202 	.db #0x6D
   076D 64                 3203 	.db #0x64
   076E AD                 3204 	.db #0xAD
   076F 24                 3205 	.db #0x24
   0770 2D                 3206 	.db #0x2D
   0771 24                 3207 	.db #0x24
   0772 AD                 3208 	.db #0xAD
   0773 24                 3209 	.db #0x24
   0774 FF                 3210 	.db #0xFF
   0775 FF                 3211 	.db #0xFF
   0776 FF                 3212 	.db #0xFF
   0777 FF                 3213 	.db #0xFF
   0778 FF                 3214 	.db #0xFF
   0779 FF                 3215 	.db #0xFF
   077A FF                 3216 	.db #0xFF
   077B FF                 3217 	.db #0xFF
   077C 8F                 3218 	.db #0x8F
   077D 8F                 3219 	.db #0x8F
   077E BF                 3220 	.db #0xBF
   077F 9F                 3221 	.db #0x9F
   0780 CF                 3222 	.db #0xCF
   0781 CF                 3223 	.db #0xCF
   0782 EF                 3224 	.db #0xEF
   0783 EF                 3225 	.db #0xEF
   0784 F5                 3226 	.db #0xF5
   0785 F1                 3227 	.db #0xF1
   0786 FF                 3228 	.db #0xFF
   0787 FF                 3229 	.db #0xFF
   0788 FF                 3230 	.db #0xFF
   0789 FF                 3231 	.db #0xFF
   078A FF                 3232 	.db #0xFF
   078B FF                 3233 	.db #0xFF
   078C FF                 3234 	.db #0xFF
   078D FF                 3235 	.db #0xFF
   078E FF                 3236 	.db #0xFF
   078F FF                 3237 	.db #0xFF
   0790 FF                 3238 	.db #0xFF
   0791 FF                 3239 	.db #0xFF
   0792 FF                 3240 	.db #0xFF
   0793 FF                 3241 	.db #0xFF
   0794 8D                 3242 	.db #0x8D
   0795 8C                 3243 	.db #0x8C
   0796 FF                 3244 	.db #0xFF
   0797 FF                 3245 	.db #0xFF
   0798 FF                 3246 	.db #0xFF
   0799 FF                 3247 	.db #0xFF
   079A FF                 3248 	.db #0xFF
   079B FF                 3249 	.db #0xFF
   079C FF                 3250 	.db #0xFF
   079D FF                 3251 	.db #0xFF
   079E FF                 3252 	.db #0xFF
   079F FF                 3253 	.db #0xFF
   07A0 FF                 3254 	.db #0xFF
   07A1 FF                 3255 	.db #0xFF
   07A2 FF                 3256 	.db #0xFF
   07A3 FF                 3257 	.db #0xFF
   07A4 5D                 3258 	.db #0x5D
   07A5 4D                 3259 	.db #0x4D
   07A6 FF                 3260 	.db #0xFF
   07A7 FF                 3261 	.db #0xFF
   07A8 FF                 3262 	.db #0xFF
   07A9 FF                 3263 	.db #0xFF
   07AA FF                 3264 	.db #0xFF
   07AB FF                 3265 	.db #0xFF
   07AC FF                 3266 	.db #0xFF
   07AD FF                 3267 	.db #0xFF
   07AE FF                 3268 	.db #0xFF
   07AF FF                 3269 	.db #0xFF
   07B0 FF                 3270 	.db #0xFF
   07B1 FF                 3271 	.db #0xFF
   07B2 FF                 3272 	.db #0xFF
   07B3 FF                 3273 	.db #0xFF
   07B4 18                 3274 	.db #0x18
   07B5 18                 3275 	.db #0x18
   07B6 FF                 3276 	.db #0xFF
   07B7 FF                 3277 	.db #0xFF
   07B8 FF                 3278 	.db #0xFF
   07B9 FF                 3279 	.db #0xFF
   07BA FF                 3280 	.db #0xFF
   07BB FF                 3281 	.db #0xFF
   07BC FF                 3282 	.db #0xFF
   07BD FF                 3283 	.db #0xFF
   07BE FF                 3284 	.db #0xFF
   07BF FF                 3285 	.db #0xFF
   07C0 FF                 3286 	.db #0xFF
   07C1 FF                 3287 	.db #0xFF
   07C2 FF                 3288 	.db #0xFF
   07C3 FF                 3289 	.db #0xFF
   07C4 B7                 3290 	.db #0xB7
   07C5 93                 3291 	.db #0x93
   07C6 FF                 3292 	.db #0xFF
   07C7 FF                 3293 	.db #0xFF
   07C8 FF                 3294 	.db #0xFF
   07C9 FF                 3295 	.db #0xFF
   07CA FF                 3296 	.db #0xFF
   07CB FF                 3297 	.db #0xFF
   07CC FF                 3298 	.db #0xFF
   07CD FF                 3299 	.db #0xFF
   07CE FF                 3300 	.db #0xFF
   07CF FF                 3301 	.db #0xFF
   07D0 FF                 3302 	.db #0xFF
   07D1 FF                 3303 	.db #0xFF
   07D2 FF                 3304 	.db #0xFF
   07D3 FF                 3305 	.db #0xFF
   07D4 55                 3306 	.db #0x55
   07D5 11                 3307 	.db #0x11
   07D6 FF                 3308 	.db #0xFF
   07D7 FF                 3309 	.db #0xFF
   07D8 FF                 3310 	.db #0xFF
   07D9 FF                 3311 	.db #0xFF
   07DA FF                 3312 	.db #0xFF
   07DB FF                 3313 	.db #0xFF
   07DC FF                 3314 	.db #0xFF
   07DD FF                 3315 	.db #0xFF
   07DE FF                 3316 	.db #0xFF
   07DF FF                 3317 	.db #0xFF
   07E0 FF                 3318 	.db #0xFF
   07E1 FF                 3319 	.db #0xFF
   07E2 FF                 3320 	.db #0xFF
   07E3 FF                 3321 	.db #0xFF
   07E4 58                 3322 	.db #0x58
   07E5 1A                 3323 	.db #0x1A
   07E6 FF                 3324 	.db #0xFF
   07E7 FF                 3325 	.db #0xFF
   07E8 FF                 3326 	.db #0xFF
   07E9 FF                 3327 	.db #0xFF
   07EA FF                 3328 	.db #0xFF
   07EB FF                 3329 	.db #0xFF
   07EC FF                 3330 	.db #0xFF
   07ED FF                 3331 	.db #0xFF
   07EE FF                 3332 	.db #0xFF
   07EF FF                 3333 	.db #0xFF
   07F0 FF                 3334 	.db #0xFF
   07F1 FF                 3335 	.db #0xFF
   07F2 FF                 3336 	.db #0xFF
   07F3 FF                 3337 	.db #0xFF
   07F4 AA                 3338 	.db #0xAA
   07F5 88                 3339 	.db #0x88
   07F6 FF                 3340 	.db #0xFF
   07F7 FF                 3341 	.db #0xFF
   07F8 FF                 3342 	.db #0xFF
   07F9 FF                 3343 	.db #0xFF
   07FA FF                 3344 	.db #0xFF
   07FB FF                 3345 	.db #0xFF
   07FC FF                 3346 	.db #0xFF
   07FD FF                 3347 	.db #0xFF
   07FE FF                 3348 	.db #0xFF
   07FF FF                 3349 	.db #0xFF
   0800 FF                 3350 	.db #0xFF
   0801 FF                 3351 	.db #0xFF
   0802 FF                 3352 	.db #0xFF
   0803 FF                 3353 	.db #0xFF
   0804 8B                 3354 	.db #0x8B
   0805 89                 3355 	.db #0x89
   0806 FF                 3356 	.db #0xFF
   0807 FF                 3357 	.db #0xFF
   0808 FF                 3358 	.db #0xFF
   0809 FF                 3359 	.db #0xFF
   080A FF                 3360 	.db #0xFF
   080B FF                 3361 	.db #0xFF
   080C FF                 3362 	.db #0xFF
   080D FF                 3363 	.db #0xFF
   080E FF                 3364 	.db #0xFF
   080F FF                 3365 	.db #0xFF
   0810 FF                 3366 	.db #0xFF
   0811 FF                 3367 	.db #0xFF
   0812 FF                 3368 	.db #0xFF
   0813 FF                 3369 	.db #0xFF
   0814 BC                 3370 	.db #0xBC
   0815 9C                 3371 	.db #0x9C
   0816 FF                 3372 	.db #0xFF
   0817 FF                 3373 	.db #0xFF
   0818 FF                 3374 	.db #0xFF
   0819 FF                 3375 	.db #0xFF
   081A FF                 3376 	.db #0xFF
   081B FF                 3377 	.db #0xFF
   081C FF                 3378 	.db #0xFF
   081D FF                 3379 	.db #0xFF
   081E FF                 3380 	.db #0xFF
   081F FF                 3381 	.db #0xFF
   0820 FF                 3382 	.db #0xFF
   0821 FF                 3383 	.db #0xFF
   0822 FF                 3384 	.db #0xFF
   0823 FF                 3385 	.db #0xFF
   0824 F7                 3386 	.db #0xF7
   0825 F3                 3387 	.db #0xF3
   0826 FF                 3388 	.db #0xFF
   0827 FF                 3389 	.db #0xFF
   0828 FF                 3390 	.db #0xFF
   0829 FF                 3391 	.db #0xFF
   082A FF                 3392 	.db #0xFF
   082B FF                 3393 	.db #0xFF
   082C FF                 3394 	.db #0xFF
   082D FF                 3395 	.db #0xFF
   082E FF                 3396 	.db #0xFF
   082F FF                 3397 	.db #0xFF
   0830 FF                 3398 	.db #0xFF
   0831 FF                 3399 	.db #0xFF
   0832 FF                 3400 	.db #0xFF
   0833 FF                 3401 	.db #0xFF
   0834 8A                 3402 	.db #0x8A
   0835 88                 3403 	.db #0x88
   0836 FF                 3404 	.db #0xFF
   0837 FF                 3405 	.db #0xFF
   0838 FF                 3406 	.db #0xFF
   0839 FF                 3407 	.db #0xFF
   083A FF                 3408 	.db #0xFF
   083B FF                 3409 	.db #0xFF
   083C FF                 3410 	.db #0xFF
   083D FF                 3411 	.db #0xFF
   083E FF                 3412 	.db #0xFF
   083F FF                 3413 	.db #0xFF
   0840 FF                 3414 	.db #0xFF
   0841 FF                 3415 	.db #0xFF
   0842 FF                 3416 	.db #0xFF
   0843 FF                 3417 	.db #0xFF
   0844 A9                 3418 	.db #0xA9
   0845 88                 3419 	.db #0x88
   0846 FF                 3420 	.db #0xFF
   0847 FF                 3421 	.db #0xFF
   0848 FF                 3422 	.db #0xFF
   0849 FF                 3423 	.db #0xFF
   084A FF                 3424 	.db #0xFF
   084B FF                 3425 	.db #0xFF
   084C FF                 3426 	.db #0xFF
   084D FF                 3427 	.db #0xFF
   084E FF                 3428 	.db #0xFF
   084F FF                 3429 	.db #0xFF
   0850 FF                 3430 	.db #0xFF
   0851 FF                 3431 	.db #0xFF
   0852 FF                 3432 	.db #0xFF
   0853 FF                 3433 	.db #0xFF
   0854 DB                 3434 	.db #0xDB
   0855 D9                 3435 	.db #0xD9
   0856 FF                 3436 	.db #0xFF
   0857 FF                 3437 	.db #0xFF
   0858 FF                 3438 	.db #0xFF
   0859 FF                 3439 	.db #0xFF
   085A FF                 3440 	.db #0xFF
   085B FF                 3441 	.db #0xFF
   085C FF                 3442 	.db #0xFF
   085D FF                 3443 	.db #0xFF
   085E FF                 3444 	.db #0xFF
   085F FF                 3445 	.db #0xFF
   0860 FF                 3446 	.db #0xFF
   0861 FF                 3447 	.db #0xFF
   0862 FF                 3448 	.db #0xFF
   0863 FF                 3449 	.db #0xFF
   0864 6E                 3450 	.db #0x6E
   0865 66                 3451 	.db #0x66
   0866 FF                 3452 	.db #0xFF
   0867 FF                 3453 	.db #0xFF
   0868 FF                 3454 	.db #0xFF
   0869 FF                 3455 	.db #0xFF
   086A FF                 3456 	.db #0xFF
   086B FF                 3457 	.db #0xFF
   086C FF                 3458 	.db #0xFF
   086D FF                 3459 	.db #0xFF
   086E FF                 3460 	.db #0xFF
   086F FF                 3461 	.db #0xFF
   0870 FF                 3462 	.db #0xFF
   0871 FF                 3463 	.db #0xFF
   0872 FF                 3464 	.db #0xFF
   0873 FF                 3465 	.db #0xFF
   0874 A4                 3466 	.db #0xA4
   0875 24                 3467 	.db #0x24
   0876 FF                 3468 	.db #0xFF
   0877 FF                 3469 	.db #0xFF
   0878 FF                 3470 	.db #0xFF
   0879 FF                 3471 	.db #0xFF
   087A FF                 3472 	.db #0xFF
   087B FF                 3473 	.db #0xFF
   087C FF                 3474 	.db #0xFF
   087D FF                 3475 	.db #0xFF
   087E FF                 3476 	.db #0xFF
   087F FF                 3477 	.db #0xFF
   0880 FF                 3478 	.db #0xFF
   0881 FF                 3479 	.db #0xFF
   0882 FF                 3480 	.db #0xFF
   0883 FF                 3481 	.db #0xFF
   0884 9F                 3482 	.db #0x9F
   0885 8F                 3483 	.db #0x8F
   0886 FF                 3484 	.db #0xFF
   0887 FF                 3485 	.db #0xFF
   0888 FF                 3486 	.db #0xFF
   0889 FF                 3487 	.db #0xFF
   088A FF                 3488 	.db #0xFF
   088B FF                 3489 	.db #0xFF
   088C FF                 3490 	.db #0xFF
   088D FF                 3491 	.db #0xFF
   088E FF                 3492 	.db #0xFF
   088F FF                 3493 	.db #0xFF
   0890 FF                 3494 	.db #0xFF
   0891 FF                 3495 	.db #0xFF
   0892 FF                 3496 	.db #0xFF
   0893 FF                 3497 	.db #0xFF
   0894                    3498 _splashscreen_map:
   0894 00                 3499 	.db #0x00
   0895 00                 3500 	.db #0x00
   0896 00                 3501 	.db #0x00
   0897 00                 3502 	.db #0x00
   0898 00                 3503 	.db #0x00
   0899 00                 3504 	.db #0x00
   089A 00                 3505 	.db #0x00
   089B 00                 3506 	.db #0x00
   089C 00                 3507 	.db #0x00
   089D 00                 3508 	.db #0x00
   089E 00                 3509 	.db #0x00
   089F 00                 3510 	.db #0x00
   08A0 00                 3511 	.db #0x00
   08A1 00                 3512 	.db #0x00
   08A2 00                 3513 	.db #0x00
   08A3 00                 3514 	.db #0x00
   08A4 00                 3515 	.db #0x00
   08A5 00                 3516 	.db #0x00
   08A6 00                 3517 	.db #0x00
   08A7 00                 3518 	.db #0x00
   08A8 00                 3519 	.db #0x00
   08A9 00                 3520 	.db #0x00
   08AA 00                 3521 	.db #0x00
   08AB 00                 3522 	.db #0x00
   08AC 00                 3523 	.db #0x00
   08AD 00                 3524 	.db #0x00
   08AE 00                 3525 	.db #0x00
   08AF 00                 3526 	.db #0x00
   08B0 00                 3527 	.db #0x00
   08B1 00                 3528 	.db #0x00
   08B2 00                 3529 	.db #0x00
   08B3 00                 3530 	.db #0x00
   08B4 00                 3531 	.db #0x00
   08B5 00                 3532 	.db #0x00
   08B6 00                 3533 	.db #0x00
   08B7 00                 3534 	.db #0x00
   08B8 00                 3535 	.db #0x00
   08B9 00                 3536 	.db #0x00
   08BA 00                 3537 	.db #0x00
   08BB 00                 3538 	.db #0x00
   08BC 00                 3539 	.db #0x00
   08BD 00                 3540 	.db #0x00
   08BE 01                 3541 	.db #0x01
   08BF 02                 3542 	.db #0x02
   08C0 03                 3543 	.db #0x03
   08C1 00                 3544 	.db #0x00
   08C2 00                 3545 	.db #0x00
   08C3 00                 3546 	.db #0x00
   08C4 00                 3547 	.db #0x00
   08C5 00                 3548 	.db #0x00
   08C6 04                 3549 	.db #0x04
   08C7 05                 3550 	.db #0x05
   08C8 00                 3551 	.db #0x00
   08C9 00                 3552 	.db #0x00
   08CA 00                 3553 	.db #0x00
   08CB 00                 3554 	.db #0x00
   08CC 00                 3555 	.db #0x00
   08CD 00                 3556 	.db #0x00
   08CE 00                 3557 	.db #0x00
   08CF 00                 3558 	.db #0x00
   08D0 00                 3559 	.db #0x00
   08D1 00                 3560 	.db #0x00
   08D2 06                 3561 	.db #0x06
   08D3 07                 3562 	.db #0x07
   08D4 08                 3563 	.db #0x08
   08D5 09                 3564 	.db #0x09
   08D6 0A                 3565 	.db #0x0A
   08D7 0B                 3566 	.db #0x0B
   08D8 0C                 3567 	.db #0x0C
   08D9 0B                 3568 	.db #0x0B
   08DA 0D                 3569 	.db #0x0D
   08DB 0E                 3570 	.db #0x0E
   08DC 0F                 3571 	.db #0x0F
   08DD 0B                 3572 	.db #0x0B
   08DE 10                 3573 	.db #0x10
   08DF 11                 3574 	.db #0x11
   08E0 12                 3575 	.db #0x12
   08E1 13                 3576 	.db #0x13
   08E2 00                 3577 	.db #0x00
   08E3 00                 3578 	.db #0x00
   08E4 00                 3579 	.db #0x00
   08E5 00                 3580 	.db #0x00
   08E6 14                 3581 	.db #0x14
   08E7 15                 3582 	.db #0x15
   08E8 16                 3583 	.db #0x16
   08E9 17                 3584 	.db #0x17
   08EA 18                 3585 	.db #0x18
   08EB 19                 3586 	.db #0x19
   08EC 1A                 3587 	.db #0x1A
   08ED 1B                 3588 	.db #0x1B
   08EE 1C                 3589 	.db #0x1C
   08EF 1D                 3590 	.db #0x1D
   08F0 1E                 3591 	.db #0x1E
   08F1 1F                 3592 	.db #0x1F
   08F2 20                 3593 	.db #0x20
   08F3 21                 3594 	.db #0x21
   08F4 22                 3595 	.db #0x22
   08F5 23                 3596 	.db #0x23
   08F6 00                 3597 	.db #0x00
   08F7 00                 3598 	.db #0x00
   08F8 00                 3599 	.db #0x00
   08F9 00                 3600 	.db #0x00
   08FA 14                 3601 	.db #0x14
   08FB 15                 3602 	.db #0x15
   08FC 16                 3603 	.db #0x16
   08FD 24                 3604 	.db #0x24
   08FE 18                 3605 	.db #0x18
   08FF 25                 3606 	.db #0x25
   0900 26                 3607 	.db #0x26
   0901 27                 3608 	.db #0x27
   0902 28                 3609 	.db #0x28
   0903 29                 3610 	.db #0x29
   0904 2A                 3611 	.db #0x2A
   0905 2B                 3612 	.db #0x2B
   0906 2C                 3613 	.db #0x2C
   0907 2D                 3614 	.db #0x2D
   0908 2E                 3615 	.db #0x2E
   0909 2F                 3616 	.db #0x2F
   090A 00                 3617 	.db #0x00
   090B 00                 3618 	.db #0x00
   090C 00                 3619 	.db #0x00
   090D 00                 3620 	.db #0x00
   090E 30                 3621 	.db #0x30
   090F 31                 3622 	.db #0x31
   0910 32                 3623 	.db #0x32
   0911 33                 3624 	.db #0x33
   0912 34                 3625 	.db #0x34
   0913 35                 3626 	.db #0x35
   0914 36                 3627 	.db #0x36
   0915 37                 3628 	.db #0x37
   0916 38                 3629 	.db #0x38
   0917 37                 3630 	.db #0x37
   0918 39                 3631 	.db #0x39
   0919 37                 3632 	.db #0x37
   091A 3A                 3633 	.db #0x3A
   091B 00                 3634 	.db #0x00
   091C 3B                 3635 	.db #0x3B
   091D 3C                 3636 	.db #0x3C
   091E 00                 3637 	.db #0x00
   091F 00                 3638 	.db #0x00
   0920 00                 3639 	.db #0x00
   0921 00                 3640 	.db #0x00
   0922 00                 3641 	.db #0x00
   0923 3D                 3642 	.db #0x3D
   0924 3E                 3643 	.db #0x3E
   0925 3F                 3644 	.db #0x3F
   0926 40                 3645 	.db #0x40
   0927 41                 3646 	.db #0x41
   0928 00                 3647 	.db #0x00
   0929 42                 3648 	.db #0x42
   092A 43                 3649 	.db #0x43
   092B 00                 3650 	.db #0x00
   092C 00                 3651 	.db #0x00
   092D 00                 3652 	.db #0x00
   092E 00                 3653 	.db #0x00
   092F 44                 3654 	.db #0x44
   0930 00                 3655 	.db #0x00
   0931 00                 3656 	.db #0x00
   0932 00                 3657 	.db #0x00
   0933 00                 3658 	.db #0x00
   0934 00                 3659 	.db #0x00
   0935 00                 3660 	.db #0x00
   0936 45                 3661 	.db #0x45
   0937 46                 3662 	.db #0x46
   0938 47                 3663 	.db #0x47
   0939 48                 3664 	.db #0x48
   093A 49                 3665 	.db #0x49
   093B 4A                 3666 	.db #0x4A
   093C 4B                 3667 	.db #0x4B
   093D 4C                 3668 	.db #0x4C
   093E 4D                 3669 	.db #0x4D
   093F 4E                 3670 	.db #0x4E
   0940 4F                 3671 	.db #0x4F
   0941 50                 3672 	.db #0x50
   0942 51                 3673 	.db #0x51
   0943 52                 3674 	.db #0x52
   0944 53                 3675 	.db #0x53
   0945 54                 3676 	.db #0x54
   0946 00                 3677 	.db #0x00
   0947 00                 3678 	.db #0x00
   0948 00                 3679 	.db #0x00
   0949 00                 3680 	.db #0x00
   094A 55                 3681 	.db #0x55
   094B 56                 3682 	.db #0x56
   094C 57                 3683 	.db #0x57
   094D 58                 3684 	.db #0x58
   094E 59                 3685 	.db #0x59
   094F 5A                 3686 	.db #0x5A
   0950 5B                 3687 	.db #0x5B
   0951 5C                 3688 	.db #0x5C
   0952 5D                 3689 	.db #0x5D
   0953 5E                 3690 	.db #0x5E
   0954 5F                 3691 	.db #0x5F
   0955 60                 3692 	.db #0x60
   0956 61                 3693 	.db #0x61
   0957 62                 3694 	.db #0x62
   0958 63                 3695 	.db #0x63
   0959 64                 3696 	.db #0x64
   095A 00                 3697 	.db #0x00
   095B 00                 3698 	.db #0x00
   095C 00                 3699 	.db #0x00
   095D 65                 3700 	.db #0x65
   095E 66                 3701 	.db #0x66
   095F 67                 3702 	.db #0x67
   0960 68                 3703 	.db #0x68
   0961 69                 3704 	.db #0x69
   0962 6A                 3705 	.db #0x6A
   0963 6B                 3706 	.db #0x6B
   0964 6C                 3707 	.db #0x6C
   0965 6D                 3708 	.db #0x6D
   0966 6E                 3709 	.db #0x6E
   0967 6F                 3710 	.db #0x6F
   0968 70                 3711 	.db #0x70
   0969 71                 3712 	.db #0x71
   096A 72                 3713 	.db #0x72
   096B 73                 3714 	.db #0x73
   096C 74                 3715 	.db #0x74
   096D 75                 3716 	.db #0x75
   096E 76                 3717 	.db #0x76
   096F 00                 3718 	.db #0x00
   0970 00                 3719 	.db #0x00
   0971 77                 3720 	.db #0x77
   0972 78                 3721 	.db #0x78
   0973 79                 3722 	.db #0x79
   0974 7A                 3723 	.db #0x7A
   0975 7B                 3724 	.db #0x7B
   0976 78                 3725 	.db #0x78
   0977 7C                 3726 	.db #0x7C
   0978 7D                 3727 	.db #0x7D
   0979 7E                 3728 	.db #0x7E
   097A 7F                 3729 	.db #0x7F
   097B 80                 3730 	.db #0x80
   097C 81                 3731 	.db #0x81
   097D 82                 3732 	.db #0x82
   097E 83                 3733 	.db #0x83
   097F 84                 3734 	.db #0x84
   0980 85                 3735 	.db #0x85
   0981 86                 3736 	.db #0x86
   0982 87                 3737 	.db #0x87
   0983 00                 3738 	.db #0x00
   0984 00                 3739 	.db #0x00
   0985 00                 3740 	.db #0x00
   0986 00                 3741 	.db #0x00
   0987 00                 3742 	.db #0x00
   0988 00                 3743 	.db #0x00
   0989 00                 3744 	.db #0x00
   098A 00                 3745 	.db #0x00
   098B 00                 3746 	.db #0x00
   098C 00                 3747 	.db #0x00
   098D 00                 3748 	.db #0x00
   098E 00                 3749 	.db #0x00
   098F 00                 3750 	.db #0x00
   0990 00                 3751 	.db #0x00
   0991 00                 3752 	.db #0x00
   0992 00                 3753 	.db #0x00
   0993 00                 3754 	.db #0x00
   0994 00                 3755 	.db #0x00
   0995 00                 3756 	.db #0x00
   0996 00                 3757 	.db #0x00
   0997 00                 3758 	.db #0x00
   0998 00                 3759 	.db #0x00
   0999 00                 3760 	.db #0x00
   099A 00                 3761 	.db #0x00
   099B 00                 3762 	.db #0x00
   099C 00                 3763 	.db #0x00
   099D 00                 3764 	.db #0x00
   099E 00                 3765 	.db #0x00
   099F 00                 3766 	.db #0x00
   09A0 00                 3767 	.db #0x00
   09A1 00                 3768 	.db #0x00
   09A2 00                 3769 	.db #0x00
   09A3 00                 3770 	.db #0x00
   09A4 00                 3771 	.db #0x00
   09A5 00                 3772 	.db #0x00
   09A6 00                 3773 	.db #0x00
   09A7 00                 3774 	.db #0x00
   09A8 00                 3775 	.db #0x00
   09A9 00                 3776 	.db #0x00
   09AA 00                 3777 	.db #0x00
   09AB 00                 3778 	.db #0x00
   09AC 00                 3779 	.db #0x00
   09AD 00                 3780 	.db #0x00
   09AE 00                 3781 	.db #0x00
   09AF 00                 3782 	.db #0x00
   09B0 00                 3783 	.db #0x00
   09B1 00                 3784 	.db #0x00
   09B2 00                 3785 	.db #0x00
   09B3 00                 3786 	.db #0x00
   09B4 00                 3787 	.db #0x00
   09B5 00                 3788 	.db #0x00
   09B6 00                 3789 	.db #0x00
   09B7 00                 3790 	.db #0x00
   09B8 00                 3791 	.db #0x00
   09B9 00                 3792 	.db #0x00
   09BA 00                 3793 	.db #0x00
   09BB 00                 3794 	.db #0x00
   09BC 00                 3795 	.db #0x00
   09BD 00                 3796 	.db #0x00
   09BE 00                 3797 	.db #0x00
   09BF 00                 3798 	.db #0x00
   09C0 00                 3799 	.db #0x00
   09C1 00                 3800 	.db #0x00
   09C2 00                 3801 	.db #0x00
   09C3 00                 3802 	.db #0x00
   09C4 00                 3803 	.db #0x00
   09C5 00                 3804 	.db #0x00
   09C6 00                 3805 	.db #0x00
   09C7 00                 3806 	.db #0x00
   09C8 00                 3807 	.db #0x00
   09C9 00                 3808 	.db #0x00
   09CA 00                 3809 	.db #0x00
   09CB 00                 3810 	.db #0x00
   09CC 00                 3811 	.db #0x00
   09CD 00                 3812 	.db #0x00
   09CE 00                 3813 	.db #0x00
   09CF 00                 3814 	.db #0x00
   09D0 00                 3815 	.db #0x00
   09D1 00                 3816 	.db #0x00
   09D2 00                 3817 	.db #0x00
   09D3 00                 3818 	.db #0x00
   09D4 00                 3819 	.db #0x00
   09D5 00                 3820 	.db #0x00
   09D6 00                 3821 	.db #0x00
   09D7 00                 3822 	.db #0x00
   09D8 00                 3823 	.db #0x00
   09D9 00                 3824 	.db #0x00
   09DA 00                 3825 	.db #0x00
   09DB 00                 3826 	.db #0x00
   09DC 00                 3827 	.db #0x00
   09DD 00                 3828 	.db #0x00
   09DE 00                 3829 	.db #0x00
   09DF 00                 3830 	.db #0x00
   09E0 00                 3831 	.db #0x00
   09E1 00                 3832 	.db #0x00
   09E2 00                 3833 	.db #0x00
   09E3 00                 3834 	.db #0x00
   09E4 00                 3835 	.db #0x00
   09E5 00                 3836 	.db #0x00
   09E6 00                 3837 	.db #0x00
   09E7 00                 3838 	.db #0x00
   09E8 00                 3839 	.db #0x00
   09E9 00                 3840 	.db #0x00
   09EA 00                 3841 	.db #0x00
   09EB 00                 3842 	.db #0x00
   09EC 00                 3843 	.db #0x00
   09ED 00                 3844 	.db #0x00
   09EE 00                 3845 	.db #0x00
   09EF 00                 3846 	.db #0x00
   09F0 00                 3847 	.db #0x00
   09F1 00                 3848 	.db #0x00
   09F2 00                 3849 	.db #0x00
   09F3 00                 3850 	.db #0x00
   09F4 00                 3851 	.db #0x00
   09F5 00                 3852 	.db #0x00
   09F6 00                 3853 	.db #0x00
   09F7 00                 3854 	.db #0x00
   09F8 00                 3855 	.db #0x00
   09F9 00                 3856 	.db #0x00
   09FA 00                 3857 	.db #0x00
   09FB 00                 3858 	.db #0x00
                           3859 ;	SplashPage/SplashPage.c 12
                           3860 ; genLabel
                           3861 ; genFunction
                           3862 ;	---------------------------------
                           3863 ; Function fadeout
                           3864 ; ---------------------------------
   09FC                    3865 ___fadeout_start:
   09FC                    3866 _fadeout:
                           3867 	
                           3868 ;	SplashPage/SplashPage.c 13
                           3869 ; genAssign
                           3870 ; AOP_HL for _i
   09FC 21 00 00           3871 	ld	hl,#_i + 0
   09FF 36 00              3872 	ld	(hl),#0x00
                           3873 ; genLabel
   0A01                    3874 00106$:
                           3875 ; genCmpLt
                           3876 ; AOP_HL for _i
   0A01 21 00 00           3877 	ld	hl,#_i + 0
   0A04 7E                 3878 	ld	a,(hl)
   0A05 FE 04              3879 	cp	#0x04
   0A07 D2 51 0A           3880 	jp	nc,00110$
                           3881 ;	SplashPage/SplashPage.c 14
                           3882 ; genCmpGt
                           3883 ; AOP_HL for _i
   0A0A AF                 3884 	xor	a,a
   0A0B 3E 03              3885 	ld	a,#0x03
   0A0D 9E                 3886 	sbc	a,(hl) ; 2
   0A0E DA 40 0A           3887 	jp	c,00105$
                           3888 ; genJumpTab
                           3889 ; AOP_HL for _i
   0A11 5E                 3890 	ld	e,(hl)
   0A12 16 00              3891 	ld	d,#0x00
   0A14 21 1B 0A           3892 	ld	hl,#00115$
   0A17 19                 3893 	add	hl,de
   0A18 19                 3894 	add	hl,de
   0A19 19                 3895 	add	hl,de
   0A1A E9                 3896 	jp	(hl)
   0A1B                    3897 00115$:
   0A1B C3 27 0A           3898 	jp	00101$
   0A1E C3 2E 0A           3899 	jp	00102$
   0A21 C3 35 0A           3900 	jp	00103$
   0A24 C3 3C 0A           3901 	jp	00104$
                           3902 ;	SplashPage/SplashPage.c 16
                           3903 ; genLabel
   0A27                    3904 00101$:
                           3905 ; genAssign
                           3906 ; AOP_SFR for _BGP_REG
   0A27 3E E4              3907 	ld	a,#0xE4
   0A29 E0 00              3908 	ldh	(_BGP_REG+0),a
                           3909 ;	SplashPage/SplashPage.c 17
                           3910 ; genGoto
   0A2B C3 40 0A           3911 	jp	00105$
                           3912 ;	SplashPage/SplashPage.c 19
                           3913 ; genLabel
   0A2E                    3914 00102$:
                           3915 ; genAssign
                           3916 ; AOP_SFR for _BGP_REG
   0A2E 3E F9              3917 	ld	a,#0xF9
   0A30 E0 00              3918 	ldh	(_BGP_REG+0),a
                           3919 ;	SplashPage/SplashPage.c 20
                           3920 ; genGoto
   0A32 C3 40 0A           3921 	jp	00105$
                           3922 ;	SplashPage/SplashPage.c 22
                           3923 ; genLabel
   0A35                    3924 00103$:
                           3925 ; genAssign
                           3926 ; AOP_SFR for _BGP_REG
   0A35 3E FE              3927 	ld	a,#0xFE
   0A37 E0 00              3928 	ldh	(_BGP_REG+0),a
                           3929 ;	SplashPage/SplashPage.c 23
                           3930 ; genGoto
   0A39 C3 40 0A           3931 	jp	00105$
                           3932 ;	SplashPage/SplashPage.c 25
                           3933 ; genLabel
   0A3C                    3934 00104$:
                           3935 ; genAssign
                           3936 ; AOP_SFR for _BGP_REG
   0A3C 3E FF              3937 	ld	a,#0xFF
   0A3E E0 00              3938 	ldh	(_BGP_REG+0),a
                           3939 ;	SplashPage/SplashPage.c 27
                           3940 ; genLabel
   0A40                    3941 00105$:
                           3942 ;	SplashPage/SplashPage.c 28
                           3943 ; genIpush
                           3944 ; AOP_STK for 
   0A40 F8 02              3945 	lda	hl,2(sp)
   0A42 7E                 3946 	ld	a,(hl)
   0A43 F5                 3947 	push	af
   0A44 33                 3948 	inc	sp
                           3949 ; genCall
   0A45 CD 00 00           3950 	call	_performantdelay
   0A48 E8 01              3951 	lda	sp,1(sp)
                           3952 ;	SplashPage/SplashPage.c 13
                           3953 ; genPlus
                           3954 ; AOP_HL for _i
                           3955 ; genPlusIncr
   0A4A 21 00 00           3956 	ld	hl,#_i + 0
   0A4D 34                 3957 	inc	(hl)
                           3958 ; genGoto
   0A4E C3 01 0A           3959 	jp	00106$
                           3960 ; genLabel
   0A51                    3961 00110$:
                           3962 ; genEndFunction
                           3963 	
   0A51 C9                 3964 	ret
   0A52                    3965 ___fadeout_end:
                           3966 ;	SplashPage/SplashPage.c 32
                           3967 ; genLabel
                           3968 ; genFunction
                           3969 ;	---------------------------------
                           3970 ; Function fadein
                           3971 ; ---------------------------------
   0A52                    3972 ___fadein_start:
   0A52                    3973 _fadein:
                           3974 	
                           3975 ;	SplashPage/SplashPage.c 33
                           3976 ; genAssign
                           3977 ; AOP_HL for _i
   0A52 21 00 00           3978 	ld	hl,#_i + 0
   0A55 36 00              3979 	ld	(hl),#0x00
                           3980 ; genLabel
   0A57                    3981 00105$:
                           3982 ; genCmpLt
                           3983 ; AOP_HL for _i
   0A57 21 00 00           3984 	ld	hl,#_i + 0
   0A5A 7E                 3985 	ld	a,(hl)
   0A5B FE 03              3986 	cp	#0x03
   0A5D D2 9D 0A           3987 	jp	nc,00109$
                           3988 ;	SplashPage/SplashPage.c 34
                           3989 ; genCmpEq
                           3990 ; AOP_HL for _i
   0A60 7E                 3991 	ld	a,(hl)
   0A61 B7                 3992 	or	a,a
                           3993 ; Rule 5
   0A62 CA 7A 0A           3994 	jp	z,00101$
   0A65                    3995 00116$:
                           3996 ; genCmpEq
                           3997 ; AOP_HL for _i
   0A65 21 00 00           3998 	ld	hl,#_i + 0
   0A68 7E                 3999 	ld	a,(hl) ; 2
   0A69 FE 01              4000 	cp	a,#0x01
                           4001 ; Rule 5
   0A6B CA 81 0A           4002 	jp	z,00102$
   0A6E                    4003 00117$:
                           4004 ; genCmpEq
                           4005 ; AOP_HL for _i
   0A6E 21 00 00           4006 	ld	hl,#_i + 0
   0A71 7E                 4007 	ld	a,(hl) ; 2
   0A72 FE 02              4008 	cp	a,#0x02
                           4009 ; Rule 5
   0A74 CA 88 0A           4010 	jp	z,00103$
   0A77                    4011 00118$:
                           4012 ; genGoto
   0A77 C3 8C 0A           4013 	jp	00104$
                           4014 ;	SplashPage/SplashPage.c 36
                           4015 ; genLabel
   0A7A                    4016 00101$:
                           4017 ; genAssign
                           4018 ; AOP_SFR for _BGP_REG
   0A7A 3E FE              4019 	ld	a,#0xFE
   0A7C E0 00              4020 	ldh	(_BGP_REG+0),a
                           4021 ;	SplashPage/SplashPage.c 37
                           4022 ; genGoto
   0A7E C3 8C 0A           4023 	jp	00104$
                           4024 ;	SplashPage/SplashPage.c 39
                           4025 ; genLabel
   0A81                    4026 00102$:
                           4027 ; genAssign
                           4028 ; AOP_SFR for _BGP_REG
   0A81 3E F9              4029 	ld	a,#0xF9
   0A83 E0 00              4030 	ldh	(_BGP_REG+0),a
                           4031 ;	SplashPage/SplashPage.c 40
                           4032 ; genGoto
   0A85 C3 8C 0A           4033 	jp	00104$
                           4034 ;	SplashPage/SplashPage.c 42
                           4035 ; genLabel
   0A88                    4036 00103$:
                           4037 ; genAssign
                           4038 ; AOP_SFR for _BGP_REG
   0A88 3E E4              4039 	ld	a,#0xE4
   0A8A E0 00              4040 	ldh	(_BGP_REG+0),a
                           4041 ;	SplashPage/SplashPage.c 44
                           4042 ; genLabel
   0A8C                    4043 00104$:
                           4044 ;	SplashPage/SplashPage.c 45
                           4045 ; genIpush
                           4046 ; AOP_STK for 
   0A8C F8 02              4047 	lda	hl,2(sp)
   0A8E 7E                 4048 	ld	a,(hl)
   0A8F F5                 4049 	push	af
   0A90 33                 4050 	inc	sp
                           4051 ; genCall
   0A91 CD 00 00           4052 	call	_performantdelay
   0A94 E8 01              4053 	lda	sp,1(sp)
                           4054 ;	SplashPage/SplashPage.c 33
                           4055 ; genPlus
                           4056 ; AOP_HL for _i
                           4057 ; genPlusIncr
   0A96 21 00 00           4058 	ld	hl,#_i + 0
   0A99 34                 4059 	inc	(hl)
                           4060 ; genGoto
   0A9A C3 57 0A           4061 	jp	00105$
                           4062 ; genLabel
   0A9D                    4063 00109$:
                           4064 ; genEndFunction
                           4065 	
   0A9D C9                 4066 	ret
   0A9E                    4067 ___fadein_end:
                           4068 ;	SplashPage/SplashPage.c 50
                           4069 ; genLabel
                           4070 ; genFunction
                           4071 ;	---------------------------------
                           4072 ; Function splashPage
                           4073 ; ---------------------------------
   0A9E                    4074 ___splashPage_start:
   0A9E                    4075 _splashPage:
                           4076 	
                           4077 ;	SplashPage/SplashPage.c 52
                           4078 ; genIpush
   0A9E 21 14 00           4079 	ld	hl,#_splashscreen_data + 0
   0AA1 E5                 4080 	push	hl
                           4081 ; genIpush
   0AA2 3E 88              4082 	ld	a,#0x88
   0AA4 F5                 4083 	push	af
   0AA5 33                 4084 	inc	sp
                           4085 ; genIpush
   0AA6 3E 00              4086 	ld	a,#0x00
   0AA8 F5                 4087 	push	af
   0AA9 33                 4088 	inc	sp
                           4089 ; genCall
   0AAA CD 00 00           4090 	call	_set_bkg_data
   0AAD E8 04              4091 	lda	sp,4(sp)
                           4092 ;	SplashPage/SplashPage.c 53
                           4093 ; genIpush
   0AAF 21 94 08           4094 	ld	hl,#_splashscreen_map + 0
   0AB2 E5                 4095 	push	hl
                           4096 ; genIpush
   0AB3 3E 12              4097 	ld	a,#0x12
   0AB5 F5                 4098 	push	af
   0AB6 33                 4099 	inc	sp
                           4100 ; genIpush
   0AB7 3E 14              4101 	ld	a,#0x14
   0AB9 F5                 4102 	push	af
   0ABA 33                 4103 	inc	sp
                           4104 ; genIpush
   0ABB 3E 00              4105 	ld	a,#0x00
   0ABD F5                 4106 	push	af
   0ABE 33                 4107 	inc	sp
                           4108 ; genIpush
   0ABF 3E 00              4109 	ld	a,#0x00
   0AC1 F5                 4110 	push	af
   0AC2 33                 4111 	inc	sp
                           4112 ; genCall
   0AC3 CD 00 00           4113 	call	_set_bkg_tiles
   0AC6 E8 06              4114 	lda	sp,6(sp)
                           4115 ;	SplashPage/SplashPage.c 55
                           4116 ; genOr
                           4117 ; AOP_SFR for _LCDC_REG
                           4118 ; Type res[4] = l[4]&r[1]
                           4119 ; Size res[1] = l[1]&r[1]
   0AC8 F0 00              4120 	ldh	a,(_LCDC_REG+0) ; x
   0ACA F6 01              4121 	or	a,#0x01
   0ACC E0 00              4122 	ldh	(_LCDC_REG+0),a
                           4123 ;	SplashPage/SplashPage.c 56
                           4124 ; genOr
                           4125 ; AOP_SFR for _LCDC_REG
                           4126 ; Type res[4] = l[4]&r[1]
                           4127 ; Size res[1] = l[1]&r[1]
   0ACE F0 00              4128 	ldh	a,(_LCDC_REG+0) ; x
   0AD0 F6 80              4129 	or	a,#0x80
   0AD2 E0 00              4130 	ldh	(_LCDC_REG+0),a
                           4131 ;	SplashPage/SplashPage.c 59
                           4132 ; genIpush
   0AD4 3E 80              4133 	ld	a,#0x80
   0AD6 F5                 4134 	push	af
   0AD7 33                 4135 	inc	sp
                           4136 ; genCall
   0AD8 CD 00 00           4137 	call	_waitpad
   0ADB E8 01              4138 	lda	sp,1(sp)
                           4139 ;	SplashPage/SplashPage.c 61
                           4140 ; genIpush
   0ADD 3E 0A              4141 	ld	a,#0x0A
   0ADF F5                 4142 	push	af
   0AE0 33                 4143 	inc	sp
                           4144 ; genCall
   0AE1 CD FC 09           4145 	call	_fadeout
   0AE4 E8 01              4146 	lda	sp,1(sp)
                           4147 ; genLabel
   0AE6                    4148 00101$:
                           4149 ; genEndFunction
                           4150 	
   0AE6 C9                 4151 	ret
   0AE7                    4152 ___splashPage_end:
                           4153 ;	Assests/Sound/Effects/Effects.c 3
                           4154 ; genLabel
                           4155 ; genFunction
                           4156 ;	---------------------------------
                           4157 ; Function playDoorSound
                           4158 ; ---------------------------------
   0AE7                    4159 ___playDoorSound_start:
   0AE7                    4160 _playDoorSound:
                           4161 	
                           4162 ;	Assests/Sound/Effects/Effects.c 4
                           4163 ; genAssign
                           4164 ; AOP_SFR for _NR41_REG
   0AE7 3E 3D              4165 	ld	a,#0x3D
   0AE9 E0 00              4166 	ldh	(_NR41_REG+0),a
                           4167 ;	Assests/Sound/Effects/Effects.c 5
                           4168 ; genAssign
                           4169 ; AOP_SFR for _NR42_REG
   0AEB 3E A2              4170 	ld	a,#0xA2
   0AED E0 00              4171 	ldh	(_NR42_REG+0),a
                           4172 ;	Assests/Sound/Effects/Effects.c 6
                           4173 ; genAssign
                           4174 ; AOP_SFR for _NR43_REG
   0AEF 3E 09              4175 	ld	a,#0x09
   0AF1 E0 00              4176 	ldh	(_NR43_REG+0),a
                           4177 ;	Assests/Sound/Effects/Effects.c 7
                           4178 ; genAssign
                           4179 ; AOP_SFR for _NR44_REG
   0AF3 3E C0              4180 	ld	a,#0xC0
   0AF5 E0 00              4181 	ldh	(_NR44_REG+0),a
                           4182 ; genLabel
   0AF7                    4183 00101$:
                           4184 ; genEndFunction
                           4185 	
   0AF7 C9                 4186 	ret
   0AF8                    4187 ___playDoorSound_end:
                           4188 ;	Assests/Sound/Effects/Effects.c 10
                           4189 ; genLabel
                           4190 ; genFunction
                           4191 ;	---------------------------------
                           4192 ; Function playCollisionSound
                           4193 ; ---------------------------------
   0AF8                    4194 ___playCollisionSound_start:
   0AF8                    4195 _playCollisionSound:
                           4196 	
                           4197 ;	Assests/Sound/Effects/Effects.c 11
                           4198 ; genAssign
                           4199 ; AOP_SFR for _NR10_REG
   0AF8 3E 16              4200 	ld	a,#0x16
   0AFA E0 00              4201 	ldh	(_NR10_REG+0),a
                           4202 ;	Assests/Sound/Effects/Effects.c 12
                           4203 ; genAssign
                           4204 ; AOP_SFR for _NR11_REG
   0AFC 3E 40              4205 	ld	a,#0x40
   0AFE E0 00              4206 	ldh	(_NR11_REG+0),a
                           4207 ;	Assests/Sound/Effects/Effects.c 13
                           4208 ; genAssign
                           4209 ; AOP_SFR for _NR12_REG
   0B00 3E 73              4210 	ld	a,#0x73
   0B02 E0 00              4211 	ldh	(_NR12_REG+0),a
                           4212 ;	Assests/Sound/Effects/Effects.c 14
                           4213 ; genAssign
                           4214 ; AOP_SFR for _NR13_REG
   0B04 3E 00              4215 	ld	a,#0x00
   0B06 E0 00              4216 	ldh	(_NR13_REG+0),a
                           4217 ;	Assests/Sound/Effects/Effects.c 15
                           4218 ; genAssign
                           4219 ; AOP_SFR for _NR14_REG
   0B08 3E C3              4220 	ld	a,#0xC3
   0B0A E0 00              4221 	ldh	(_NR14_REG+0),a
                           4222 ; genLabel
   0B0C                    4223 00101$:
                           4224 ; genEndFunction
                           4225 	
   0B0C C9                 4226 	ret
   0B0D                    4227 ___playCollisionSound_end:
                           4228 ;	MonsterSelect/monsterSelect.c 37
                           4229 ; genLabel
                           4230 ; genFunction
                           4231 ;	---------------------------------
                           4232 ; Function selectMonsters
                           4233 ; ---------------------------------
   0B0D                    4234 ___selectMonsters_start:
   0B0D                    4235 _selectMonsters:
   0B0D C5                 4236 	push	bc
   0B0E E8 F8              4237 	lda	sp,-8(sp)
                           4238 ;	MonsterSelect/monsterSelect.c 40
                           4239 ; genAssign
                           4240 ; AOP_STK for _selectMonsters_row_1_1
   0B10 F8 04              4241 	lda	hl,4(sp)
   0B12 36 03              4242 	ld	(hl),#0x03
   0B14 23                 4243 	inc	hl
   0B15 36 00              4244 	ld	(hl),#0x00
                           4245 ;	MonsterSelect/monsterSelect.c 42
                           4246 ; genOr
                           4247 ; AOP_SFR for _LCDC_REG
                           4248 ; Type res[4] = l[4]&r[1]
                           4249 ; Size res[1] = l[1]&r[1]
   0B17 F0 00              4250 	ldh	a,(_LCDC_REG+0) ; x
   0B19 F6 02              4251 	or	a,#0x02
   0B1B E0 00              4252 	ldh	(_LCDC_REG+0),a
                           4253 ;	MonsterSelect/monsterSelect.c 43
                           4254 ; genIpush
   0B1D 21 5C 17           4255 	ld	hl,#_Select_Screen_data + 0
   0B20 E5                 4256 	push	hl
                           4257 ; genIpush
   0B21 3E 40              4258 	ld	a,#0x40
   0B23 F5                 4259 	push	af
   0B24 33                 4260 	inc	sp
                           4261 ; genIpush
   0B25 3E 00              4262 	ld	a,#0x00
   0B27 F5                 4263 	push	af
   0B28 33                 4264 	inc	sp
                           4265 ; genCall
   0B29 CD 00 00           4266 	call	_set_bkg_data
   0B2C E8 04              4267 	lda	sp,4(sp)
                           4268 ;	MonsterSelect/monsterSelect.c 44
                           4269 ; genIpush
   0B2E 21 5C 1B           4270 	ld	hl,#_Select_Screen_map + 0
   0B31 E5                 4271 	push	hl
                           4272 ; genIpush
   0B32 3E 12              4273 	ld	a,#0x12
   0B34 F5                 4274 	push	af
   0B35 33                 4275 	inc	sp
                           4276 ; genIpush
   0B36 3E 14              4277 	ld	a,#0x14
   0B38 F5                 4278 	push	af
   0B39 33                 4279 	inc	sp
                           4280 ; genIpush
   0B3A 3E 00              4281 	ld	a,#0x00
   0B3C F5                 4282 	push	af
   0B3D 33                 4283 	inc	sp
                           4284 ; genIpush
   0B3E 3E 00              4285 	ld	a,#0x00
   0B40 F5                 4286 	push	af
   0B41 33                 4287 	inc	sp
                           4288 ; genCall
   0B42 CD 00 00           4289 	call	_set_bkg_tiles
   0B45 E8 06              4290 	lda	sp,6(sp)
                           4291 ;	MonsterSelect/monsterSelect.c 48
                           4292 ; genIpush
   0B47 21 A2 00           4293 	ld	hl,#_Cursors + 0
   0B4A E5                 4294 	push	hl
                           4295 ; genIpush
   0B4B 3E 01              4296 	ld	a,#0x01
   0B4D F5                 4297 	push	af
   0B4E 33                 4298 	inc	sp
                           4299 ; genIpush
   0B4F 3E 00              4300 	ld	a,#0x00
   0B51 F5                 4301 	push	af
   0B52 33                 4302 	inc	sp
                           4303 ; genCall
   0B53 CD 00 00           4304 	call	_set_sprite_data
   0B56 E8 04              4305 	lda	sp,4(sp)
                           4306 ;	MonsterSelect/monsterSelect.c 49
                           4307 ; genIpush
   0B58 3E 00              4308 	ld	a,#0x00
   0B5A F5                 4309 	push	af
   0B5B 33                 4310 	inc	sp
                           4311 ; genIpush
   0B5C 3E 11              4312 	ld	a,#0x11
   0B5E F5                 4313 	push	af
   0B5F 33                 4314 	inc	sp
                           4315 ; genCall
   0B60 CD 00 00           4316 	call	_set_sprite_tile
   0B63 E8 02              4317 	lda	sp,2(sp)
                           4318 ;	MonsterSelect/monsterSelect.c 50
                           4319 ; genIpush
   0B65 3E 1E              4320 	ld	a,#0x1E
   0B67 F5                 4321 	push	af
   0B68 33                 4322 	inc	sp
                           4323 ; genIpush
   0B69 3E 14              4324 	ld	a,#0x14
   0B6B F5                 4325 	push	af
   0B6C 33                 4326 	inc	sp
                           4327 ; genIpush
   0B6D 3E 11              4328 	ld	a,#0x11
   0B6F F5                 4329 	push	af
   0B70 33                 4330 	inc	sp
                           4331 ; genCall
   0B71 CD 00 00           4332 	call	_move_sprite
   0B74 E8 03              4333 	lda	sp,3(sp)
                           4334 ;	MonsterSelect/monsterSelect.c 53
                           4335 ; genAssign
                           4336 ; AOP_STK for _selectMonsters_cursor_loc_1_1
   0B76 F8 02              4337 	lda	hl,2(sp)
   0B78 36 28              4338 	ld	(hl),#0x28
   0B7A 23                 4339 	inc	hl
   0B7B 36 00              4340 	ld	(hl),#0x00
                           4341 ;	MonsterSelect/monsterSelect.c 56
                           4342 ; genAssign
                           4343 ; AOP_STK for _selectMonsters_i_1_1
   0B7D F8 06              4344 	lda	hl,6(sp)
   0B7F 36 00              4345 	ld	(hl),#0x00
   0B81 23                 4346 	inc	hl
   0B82 36 00              4347 	ld	(hl),#0x00
                           4348 ; genLabel
   0B84                    4349 00101$:
                           4350 ; genCmpLt
                           4351 ; AOP_STK for _selectMonsters_i_1_1
   0B84 F8 06              4352 	lda	hl,6(sp)
   0B86 5E                 4353 	ld	e,(hl)
   0B87 23                 4354 	inc	hl
   0B88 7E                 4355 	ld	a,(hl)
   0B89 EE 80              4356 	xor	a,#0x80
   0B8B 57                 4357 	ld	d,a
   0B8C 21 F6 7F           4358 	ld	hl,#0x7FF6
   0B8F 19                 4359 	add	hl,de
   0B90 DA 23 0C           4360 	jp	c,00104$
                           4361 ;	MonsterSelect/monsterSelect.c 57
                           4362 ; genPlus
                           4363 ; AOP_STK for _selectMonsters_i_1_1
                           4364 ; AOP_STK for _selectMonsters_sloc0_1_0
                           4365 ; genPlusIncr
                           4366 ;	genPlusIncr failed
   0B93 F8 06              4367 	lda	hl,6(sp)
   0B95 5E                 4368 	ld	e,(hl)
   0B96 23                 4369 	inc	hl
   0B97 56                 4370 	ld	d,(hl)
   0B98 21 12 00           4371 	ld	hl,#0x0012
   0B9B 19                 4372 	add	hl,de
   0B9C 7D                 4373 	ld	a,l
   0B9D 54                 4374 	ld	d,h
   0B9E F8 00              4375 	lda	hl,0(sp)
   0BA0 22                 4376 	ld	(hl+),a
   0BA1 72                 4377 	ld	(hl),d
                           4378 ; genCast
                           4379 ; AOP_STK for _selectMonsters_sloc0_1_0
   0BA2 2B                 4380 	dec	hl
   0BA3 4E                 4381 	ld	c,(hl)
                           4382 ; genIpush
   0BA4 21 A2 00           4383 	ld	hl,#_Cursors + 0
   0BA7 E5                 4384 	push	hl
                           4385 ; genIpush
   0BA8 3E 08              4386 	ld	a,#0x08
   0BAA F5                 4387 	push	af
   0BAB 33                 4388 	inc	sp
                           4389 ; genIpush
   0BAC 79                 4390 	ld	a,c
   0BAD F5                 4391 	push	af
   0BAE 33                 4392 	inc	sp
                           4393 ; genCall
   0BAF CD 00 00           4394 	call	_set_sprite_data
   0BB2 E8 04              4395 	lda	sp,4(sp)
                           4396 ;	MonsterSelect/monsterSelect.c 58
                           4397 ; genIpush
   0BB4 3E 00              4398 	ld	a,#0x00
   0BB6 F5                 4399 	push	af
   0BB7 33                 4400 	inc	sp
                           4401 ; genIpush
   0BB8 79                 4402 	ld	a,c
   0BB9 F5                 4403 	push	af
   0BBA 33                 4404 	inc	sp
                           4405 ; genCall
   0BBB CD 00 00           4406 	call	_set_sprite_tile
   0BBE E8 02              4407 	lda	sp,2(sp)
                           4408 ;	MonsterSelect/monsterSelect.c 60
                           4409 ; genCast
                           4410 ; AOP_STK for _selectMonsters_cursor_loc_1_1
   0BC0 F8 02              4411 	lda	hl,2(sp)
   0BC2 46                 4412 	ld	b,(hl)
                           4413 ; genIpush
   0BC3 78                 4414 	ld	a,b
   0BC4 F5                 4415 	push	af
   0BC5 33                 4416 	inc	sp
                           4417 ; genIpush
   0BC6 3E 09              4418 	ld	a,#0x09
   0BC8 F5                 4419 	push	af
   0BC9 33                 4420 	inc	sp
                           4421 ; genIpush
   0BCA 79                 4422 	ld	a,c
   0BCB F5                 4423 	push	af
   0BCC 33                 4424 	inc	sp
                           4425 ; genCall
   0BCD CD 00 00           4426 	call	_move_sprite
   0BD0 E8 03              4427 	lda	sp,3(sp)
                           4428 ;	MonsterSelect/monsterSelect.c 61
                           4429 ; genPlus
                           4430 ; AOP_STK for _selectMonsters_cursor_loc_1_1
                           4431 ; genPlusIncr
                           4432 ;	genPlusIncr failed
   0BD2 F8 02              4433 	lda	hl,2(sp)
   0BD4 5E                 4434 	ld	e,(hl)
   0BD5 23                 4435 	inc	hl
   0BD6 56                 4436 	ld	d,(hl)
   0BD7 21 08 00           4437 	ld	hl,#0x0008
   0BDA 19                 4438 	add	hl,de
   0BDB 7D                 4439 	ld	a,l
   0BDC 54                 4440 	ld	d,h
   0BDD F8 02              4441 	lda	hl,2(sp)
   0BDF 22                 4442 	ld	(hl+),a
   0BE0 72                 4443 	ld	(hl),d
                           4444 ;	MonsterSelect/monsterSelect.c 62
                           4445 ; genCast
                           4446 ; AOP_STK for _selectMonsters_row_1_1
   0BE1 23                 4447 	inc	hl
   0BE2 4E                 4448 	ld	c,(hl)
                           4449 ; genIpush
   0BE3 79                 4450 	ld	a,c
   0BE4 F5                 4451 	push	af
   0BE5 33                 4452 	inc	sp
                           4453 ; genIpush
   0BE6 3E 01              4454 	ld	a,#0x01
   0BE8 F5                 4455 	push	af
   0BE9 33                 4456 	inc	sp
                           4457 ; genCall
   0BEA CD 00 00           4458 	call	_gotoxy
   0BED E8 02              4459 	lda	sp,2(sp)
                           4460 ;	MonsterSelect/monsterSelect.c 63
                           4461 ; genIpush
   0BEF 21 22 00           4462 	ld	hl,#0x0022
   0BF2 E5                 4463 	push	hl
                           4464 ; genIpush
                           4465 ; AOP_STK for _selectMonsters_i_1_1
   0BF3 F8 08              4466 	lda	hl,8(sp)
   0BF5 2A                 4467 	ld	a,(hl+)
   0BF6 66                 4468 	ld	h,(hl)
   0BF7 6F                 4469 	ld	l,a
   0BF8 E5                 4470 	push	hl
                           4471 ; genCall
   0BF9 CD 00 00           4472 	call	__mulsint
   0BFC 42                 4473 	ld	b,d
   0BFD 4B                 4474 	ld	c,e
   0BFE E8 04              4475 	lda	sp,4(sp)
                           4476 ; genPlus
                           4477 ;	genPlusIncr failed
   0C00 3E B4              4478 	ld	a,#<_monsters
   0C02 81                 4479 	add	a,c
   0C03 4F                 4480 	ld	c,a
   0C04 3E 14              4481 	ld	a,#>_monsters
   0C06 88                 4482 	adc	a,b
   0C07 47                 4483 	ld	b,a
                           4484 ; genIpush
   0C08 C5                 4485 	push	bc
                           4486 ; genIpush
   0C09 21 C4 1C           4487 	ld	hl,#__str_0 + 0
   0C0C E5                 4488 	push	hl
                           4489 ; genCall
   0C0D CD 00 00           4490 	call	_printf
   0C10 E8 04              4491 	lda	sp,4(sp)
                           4492 ;	MonsterSelect/monsterSelect.c 64
                           4493 ; genPlus
                           4494 ; AOP_STK for _selectMonsters_row_1_1
                           4495 ; genPlusIncr
   0C12 F8 04              4496 	lda	hl,4(sp)
   0C14 34                 4497 	inc	(hl)
   0C15 20 02              4498 	jr	nz,00109$
   0C17 23                 4499 	inc	hl
   0C18 34                 4500 	inc	(hl)
   0C19                    4501 00109$:
                           4502 ;	MonsterSelect/monsterSelect.c 56
                           4503 ; genPlus
                           4504 ; AOP_STK for _selectMonsters_i_1_1
                           4505 ; genPlusIncr
   0C19 F8 06              4506 	lda	hl,6(sp)
   0C1B 34                 4507 	inc	(hl)
   0C1C 20 02              4508 	jr	nz,00110$
   0C1E 23                 4509 	inc	hl
   0C1F 34                 4510 	inc	(hl)
   0C20                    4511 00110$:
                           4512 ; genGoto
   0C20 C3 84 0B           4513 	jp	00101$
                           4514 ; genLabel
   0C23                    4515 00104$:
                           4516 ;	MonsterSelect/monsterSelect.c 70
                           4517 ; genIpush
   0C23 3E 80              4518 	ld	a,#0x80
   0C25 F5                 4519 	push	af
   0C26 33                 4520 	inc	sp
                           4521 ; genCall
   0C27 CD 00 00           4522 	call	_waitpad
   0C2A E8 01              4523 	lda	sp,1(sp)
                           4524 ; genLabel
   0C2C                    4525 00105$:
                           4526 ; genEndFunction
   0C2C E8 08              4527 	lda	sp,8(sp)
   0C2E C1                 4528 	pop	bc
   0C2F C9                 4529 	ret
   0C30                    4530 ___selectMonsters_end:
   0C30                    4531 _room_middle_data:
   0C30 FF                 4532 	.db #0xFF
   0C31 FF                 4533 	.db #0xFF
   0C32 FF                 4534 	.db #0xFF
   0C33 FF                 4535 	.db #0xFF
   0C34 FF                 4536 	.db #0xFF
   0C35 FF                 4537 	.db #0xFF
   0C36 FF                 4538 	.db #0xFF
   0C37 FF                 4539 	.db #0xFF
   0C38 FF                 4540 	.db #0xFF
   0C39 FF                 4541 	.db #0xFF
   0C3A FF                 4542 	.db #0xFF
   0C3B FF                 4543 	.db #0xFF
   0C3C FF                 4544 	.db #0xFF
   0C3D FF                 4545 	.db #0xFF
   0C3E FF                 4546 	.db #0xFF
   0C3F FF                 4547 	.db #0xFF
   0C40 FF                 4548 	.db #0xFF
   0C41 FF                 4549 	.db #0xFF
   0C42 FF                 4550 	.db #0xFF
   0C43 FF                 4551 	.db #0xFF
   0C44 FF                 4552 	.db #0xFF
   0C45 FF                 4553 	.db #0xFF
   0C46 FF                 4554 	.db #0xFF
   0C47 FF                 4555 	.db #0xFF
   0C48 FF                 4556 	.db #0xFF
   0C49 FF                 4557 	.db #0xFF
   0C4A FF                 4558 	.db #0xFF
   0C4B FF                 4559 	.db #0xFF
   0C4C FF                 4560 	.db #0xFF
   0C4D FF                 4561 	.db #0xFF
   0C4E FE                 4562 	.db #0xFE
   0C4F FE                 4563 	.db #0xFE
   0C50 FF                 4564 	.db #0xFF
   0C51 FF                 4565 	.db #0xFF
   0C52 FF                 4566 	.db #0xFF
   0C53 FF                 4567 	.db #0xFF
   0C54 FF                 4568 	.db #0xFF
   0C55 FF                 4569 	.db #0xFF
   0C56 FF                 4570 	.db #0xFF
   0C57 FF                 4571 	.db #0xFF
   0C58 FF                 4572 	.db #0xFF
   0C59 FF                 4573 	.db #0xFF
   0C5A FF                 4574 	.db #0xFF
   0C5B FF                 4575 	.db #0xFF
   0C5C 00                 4576 	.db #0x00
   0C5D 00                 4577 	.db #0x00
   0C5E 00                 4578 	.db #0x00
   0C5F FF                 4579 	.db #0xFF
   0C60 FD                 4580 	.db #0xFD
   0C61 FD                 4581 	.db #0xFD
   0C62 FD                 4582 	.db #0xFD
   0C63 FD                 4583 	.db #0xFD
   0C64 FD                 4584 	.db #0xFD
   0C65 FD                 4585 	.db #0xFD
   0C66 FC                 4586 	.db #0xFC
   0C67 FD                 4587 	.db #0xFD
   0C68 FC                 4588 	.db #0xFC
   0C69 FD                 4589 	.db #0xFD
   0C6A FC                 4590 	.db #0xFC
   0C6B FD                 4591 	.db #0xFD
   0C6C 00                 4592 	.db #0x00
   0C6D 01                 4593 	.db #0x01
   0C6E 00                 4594 	.db #0x00
   0C6F FF                 4595 	.db #0xFF
   0C70 55                 4596 	.db #0x55
   0C71 FF                 4597 	.db #0xFF
   0C72 AA                 4598 	.db #0xAA
   0C73 FF                 4599 	.db #0xFF
   0C74 AA                 4600 	.db #0xAA
   0C75 00                 4601 	.db #0x00
   0C76 55                 4602 	.db #0x55
   0C77 00                 4603 	.db #0x00
   0C78 00                 4604 	.db #0x00
   0C79 00                 4605 	.db #0x00
   0C7A 00                 4606 	.db #0x00
   0C7B 00                 4607 	.db #0x00
   0C7C 00                 4608 	.db #0x00
   0C7D 00                 4609 	.db #0x00
   0C7E 00                 4610 	.db #0x00
   0C7F 00                 4611 	.db #0x00
   0C80 BF                 4612 	.db #0xBF
   0C81 BF                 4613 	.db #0xBF
   0C82 BF                 4614 	.db #0xBF
   0C83 BF                 4615 	.db #0xBF
   0C84 BF                 4616 	.db #0xBF
   0C85 BF                 4617 	.db #0xBF
   0C86 BF                 4618 	.db #0xBF
   0C87 BF                 4619 	.db #0xBF
   0C88 3F                 4620 	.db #0x3F
   0C89 BF                 4621 	.db #0xBF
   0C8A 3F                 4622 	.db #0x3F
   0C8B BF                 4623 	.db #0xBF
   0C8C 00                 4624 	.db #0x00
   0C8D 80                 4625 	.db #0x80
   0C8E 00                 4626 	.db #0x00
   0C8F FF                 4627 	.db #0xFF
   0C90 FF                 4628 	.db #0xFF
   0C91 FF                 4629 	.db #0xFF
   0C92 FF                 4630 	.db #0xFF
   0C93 FF                 4631 	.db #0xFF
   0C94 FF                 4632 	.db #0xFF
   0C95 FF                 4633 	.db #0xFF
   0C96 FF                 4634 	.db #0xFF
   0C97 FF                 4635 	.db #0xFF
   0C98 FF                 4636 	.db #0xFF
   0C99 FF                 4637 	.db #0xFF
   0C9A FF                 4638 	.db #0xFF
   0C9B FF                 4639 	.db #0xFF
   0C9C FF                 4640 	.db #0xFF
   0C9D FF                 4641 	.db #0xFF
   0C9E 7F                 4642 	.db #0x7F
   0C9F 7F                 4643 	.db #0x7F
   0CA0 FC                 4644 	.db #0xFC
   0CA1 FD                 4645 	.db #0xFD
   0CA2 FC                 4646 	.db #0xFC
   0CA3 FD                 4647 	.db #0xFD
   0CA4 FC                 4648 	.db #0xFC
   0CA5 FD                 4649 	.db #0xFD
   0CA6 FC                 4650 	.db #0xFC
   0CA7 FD                 4651 	.db #0xFD
   0CA8 FC                 4652 	.db #0xFC
   0CA9 FD                 4653 	.db #0xFD
   0CAA FC                 4654 	.db #0xFC
   0CAB FD                 4655 	.db #0xFD
   0CAC FC                 4656 	.db #0xFC
   0CAD FD                 4657 	.db #0xFD
   0CAE FC                 4658 	.db #0xFC
   0CAF FD                 4659 	.db #0xFD
   0CB0 00                 4660 	.db #0x00
   0CB1 00                 4661 	.db #0x00
   0CB2 00                 4662 	.db #0x00
   0CB3 00                 4663 	.db #0x00
   0CB4 00                 4664 	.db #0x00
   0CB5 00                 4665 	.db #0x00
   0CB6 00                 4666 	.db #0x00
   0CB7 00                 4667 	.db #0x00
   0CB8 00                 4668 	.db #0x00
   0CB9 00                 4669 	.db #0x00
   0CBA 00                 4670 	.db #0x00
   0CBB 00                 4671 	.db #0x00
   0CBC 00                 4672 	.db #0x00
   0CBD 00                 4673 	.db #0x00
   0CBE 00                 4674 	.db #0x00
   0CBF 00                 4675 	.db #0x00
   0CC0 3F                 4676 	.db #0x3F
   0CC1 BF                 4677 	.db #0xBF
   0CC2 3F                 4678 	.db #0x3F
   0CC3 BF                 4679 	.db #0xBF
   0CC4 3F                 4680 	.db #0x3F
   0CC5 BF                 4681 	.db #0xBF
   0CC6 3F                 4682 	.db #0x3F
   0CC7 BF                 4683 	.db #0xBF
   0CC8 3F                 4684 	.db #0x3F
   0CC9 BF                 4685 	.db #0xBF
   0CCA 3F                 4686 	.db #0x3F
   0CCB BF                 4687 	.db #0xBF
   0CCC 3F                 4688 	.db #0x3F
   0CCD BF                 4689 	.db #0xBF
   0CCE 3F                 4690 	.db #0x3F
   0CCF BF                 4691 	.db #0xBF
   0CD0 FC                 4692 	.db #0xFC
   0CD1 FD                 4693 	.db #0xFD
   0CD2 FC                 4694 	.db #0xFC
   0CD3 FD                 4695 	.db #0xFD
   0CD4 FC                 4696 	.db #0xFC
   0CD5 FD                 4697 	.db #0xFD
   0CD6 FC                 4698 	.db #0xFC
   0CD7 FD                 4699 	.db #0xFD
   0CD8 FC                 4700 	.db #0xFC
   0CD9 FD                 4701 	.db #0xFD
   0CDA FC                 4702 	.db #0xFC
   0CDB FD                 4703 	.db #0xFD
   0CDC FC                 4704 	.db #0xFC
   0CDD FD                 4705 	.db #0xFD
   0CDE FE                 4706 	.db #0xFE
   0CDF FE                 4707 	.db #0xFE
   0CE0 00                 4708 	.db #0x00
   0CE1 00                 4709 	.db #0x00
   0CE2 00                 4710 	.db #0x00
   0CE3 00                 4711 	.db #0x00
   0CE4 00                 4712 	.db #0x00
   0CE5 00                 4713 	.db #0x00
   0CE6 00                 4714 	.db #0x00
   0CE7 00                 4715 	.db #0x00
   0CE8 00                 4716 	.db #0x00
   0CE9 00                 4717 	.db #0x00
   0CEA 00                 4718 	.db #0x00
   0CEB 00                 4719 	.db #0x00
   0CEC 00                 4720 	.db #0x00
   0CED 00                 4721 	.db #0x00
   0CEE 00                 4722 	.db #0x00
   0CEF FF                 4723 	.db #0xFF
   0CF0 00                 4724 	.db #0x00
   0CF1 00                 4725 	.db #0x00
   0CF2 00                 4726 	.db #0x00
   0CF3 00                 4727 	.db #0x00
   0CF4 00                 4728 	.db #0x00
   0CF5 00                 4729 	.db #0x00
   0CF6 00                 4730 	.db #0x00
   0CF7 00                 4731 	.db #0x00
   0CF8 00                 4732 	.db #0x00
   0CF9 00                 4733 	.db #0x00
   0CFA 00                 4734 	.db #0x00
   0CFB 00                 4735 	.db #0x00
   0CFC 00                 4736 	.db #0x00
   0CFD 00                 4737 	.db #0x00
   0CFE 01                 4738 	.db #0x01
   0CFF FE                 4739 	.db #0xFE
   0D00 00                 4740 	.db #0x00
   0D01 00                 4741 	.db #0x00
   0D02 00                 4742 	.db #0x00
   0D03 00                 4743 	.db #0x00
   0D04 00                 4744 	.db #0x00
   0D05 00                 4745 	.db #0x00
   0D06 00                 4746 	.db #0x00
   0D07 00                 4747 	.db #0x00
   0D08 00                 4748 	.db #0x00
   0D09 00                 4749 	.db #0x00
   0D0A 00                 4750 	.db #0x00
   0D0B 00                 4751 	.db #0x00
   0D0C 00                 4752 	.db #0x00
   0D0D 00                 4753 	.db #0x00
   0D0E 80                 4754 	.db #0x80
   0D0F 7F                 4755 	.db #0x7F
   0D10 3F                 4756 	.db #0x3F
   0D11 BF                 4757 	.db #0xBF
   0D12 3F                 4758 	.db #0x3F
   0D13 BF                 4759 	.db #0xBF
   0D14 3F                 4760 	.db #0x3F
   0D15 BF                 4761 	.db #0xBF
   0D16 3F                 4762 	.db #0x3F
   0D17 BF                 4763 	.db #0xBF
   0D18 3F                 4764 	.db #0x3F
   0D19 BF                 4765 	.db #0xBF
   0D1A 3F                 4766 	.db #0x3F
   0D1B BF                 4767 	.db #0xBF
   0D1C 3F                 4768 	.db #0x3F
   0D1D BF                 4769 	.db #0xBF
   0D1E 7F                 4770 	.db #0x7F
   0D1F 7F                 4771 	.db #0x7F
   0D20 00                 4772 	.db #0x00
   0D21 00                 4773 	.db #0x00
   0D22 FF                 4774 	.db #0xFF
   0D23 FF                 4775 	.db #0xFF
   0D24 FF                 4776 	.db #0xFF
   0D25 FF                 4777 	.db #0xFF
   0D26 FF                 4778 	.db #0xFF
   0D27 FF                 4779 	.db #0xFF
   0D28 FF                 4780 	.db #0xFF
   0D29 FF                 4781 	.db #0xFF
   0D2A FF                 4782 	.db #0xFF
   0D2B FF                 4783 	.db #0xFF
   0D2C FF                 4784 	.db #0xFF
   0D2D FF                 4785 	.db #0xFF
   0D2E FF                 4786 	.db #0xFF
   0D2F FF                 4787 	.db #0xFF
   0D30 00                 4788 	.db #0x00
   0D31 01                 4789 	.db #0x01
   0D32 FC                 4790 	.db #0xFC
   0D33 FD                 4791 	.db #0xFD
   0D34 FC                 4792 	.db #0xFC
   0D35 FD                 4793 	.db #0xFD
   0D36 FC                 4794 	.db #0xFC
   0D37 FD                 4795 	.db #0xFD
   0D38 FD                 4796 	.db #0xFD
   0D39 FD                 4797 	.db #0xFD
   0D3A FD                 4798 	.db #0xFD
   0D3B FD                 4799 	.db #0xFD
   0D3C FD                 4800 	.db #0xFD
   0D3D FD                 4801 	.db #0xFD
   0D3E FF                 4802 	.db #0xFF
   0D3F FF                 4803 	.db #0xFF
   0D40 00                 4804 	.db #0x00
   0D41 00                 4805 	.db #0x00
   0D42 00                 4806 	.db #0x00
   0D43 00                 4807 	.db #0x00
   0D44 00                 4808 	.db #0x00
   0D45 00                 4809 	.db #0x00
   0D46 55                 4810 	.db #0x55
   0D47 00                 4811 	.db #0x00
   0D48 AA                 4812 	.db #0xAA
   0D49 00                 4813 	.db #0x00
   0D4A AA                 4814 	.db #0xAA
   0D4B FF                 4815 	.db #0xFF
   0D4C 55                 4816 	.db #0x55
   0D4D FF                 4817 	.db #0xFF
   0D4E FF                 4818 	.db #0xFF
   0D4F FF                 4819 	.db #0xFF
   0D50 00                 4820 	.db #0x00
   0D51 80                 4821 	.db #0x80
   0D52 3F                 4822 	.db #0x3F
   0D53 BF                 4823 	.db #0xBF
   0D54 3F                 4824 	.db #0x3F
   0D55 BF                 4825 	.db #0xBF
   0D56 BF                 4826 	.db #0xBF
   0D57 BF                 4827 	.db #0xBF
   0D58 BF                 4828 	.db #0xBF
   0D59 BF                 4829 	.db #0xBF
   0D5A BF                 4830 	.db #0xBF
   0D5B BF                 4831 	.db #0xBF
   0D5C BF                 4832 	.db #0xBF
   0D5D BF                 4833 	.db #0xBF
   0D5E FF                 4834 	.db #0xFF
   0D5F FF                 4835 	.db #0xFF
   0D60                    4836 _room_bottom_data:
   0D60 FF                 4837 	.db #0xFF
   0D61 FF                 4838 	.db #0xFF
   0D62 FF                 4839 	.db #0xFF
   0D63 FF                 4840 	.db #0xFF
   0D64 FF                 4841 	.db #0xFF
   0D65 FF                 4842 	.db #0xFF
   0D66 FF                 4843 	.db #0xFF
   0D67 FF                 4844 	.db #0xFF
   0D68 FF                 4845 	.db #0xFF
   0D69 FF                 4846 	.db #0xFF
   0D6A FF                 4847 	.db #0xFF
   0D6B FF                 4848 	.db #0xFF
   0D6C FF                 4849 	.db #0xFF
   0D6D FF                 4850 	.db #0xFF
   0D6E FF                 4851 	.db #0xFF
   0D6F FF                 4852 	.db #0xFF
   0D70 FF                 4853 	.db #0xFF
   0D71 FF                 4854 	.db #0xFF
   0D72 FF                 4855 	.db #0xFF
   0D73 FF                 4856 	.db #0xFF
   0D74 FF                 4857 	.db #0xFF
   0D75 FF                 4858 	.db #0xFF
   0D76 FF                 4859 	.db #0xFF
   0D77 FF                 4860 	.db #0xFF
   0D78 FF                 4861 	.db #0xFF
   0D79 FF                 4862 	.db #0xFF
   0D7A FF                 4863 	.db #0xFF
   0D7B FF                 4864 	.db #0xFF
   0D7C FF                 4865 	.db #0xFF
   0D7D FF                 4866 	.db #0xFF
   0D7E FF                 4867 	.db #0xFF
   0D7F FE                 4868 	.db #0xFE
   0D80 FF                 4869 	.db #0xFF
   0D81 FF                 4870 	.db #0xFF
   0D82 FF                 4871 	.db #0xFF
   0D83 FF                 4872 	.db #0xFF
   0D84 FF                 4873 	.db #0xFF
   0D85 FF                 4874 	.db #0xFF
   0D86 FF                 4875 	.db #0xFF
   0D87 FF                 4876 	.db #0xFF
   0D88 FF                 4877 	.db #0xFF
   0D89 FF                 4878 	.db #0xFF
   0D8A FF                 4879 	.db #0xFF
   0D8B FF                 4880 	.db #0xFF
   0D8C FF                 4881 	.db #0xFF
   0D8D 00                 4882 	.db #0x00
   0D8E FF                 4883 	.db #0xFF
   0D8F FF                 4884 	.db #0xFF
   0D90 FF                 4885 	.db #0xFF
   0D91 FF                 4886 	.db #0xFF
   0D92 FF                 4887 	.db #0xFF
   0D93 FF                 4888 	.db #0xFF
   0D94 FF                 4889 	.db #0xFF
   0D95 FF                 4890 	.db #0xFF
   0D96 FF                 4891 	.db #0xFF
   0D97 FF                 4892 	.db #0xFF
   0D98 FF                 4893 	.db #0xFF
   0D99 FF                 4894 	.db #0xFF
   0D9A FF                 4895 	.db #0xFF
   0D9B FF                 4896 	.db #0xFF
   0D9C FF                 4897 	.db #0xFF
   0D9D FF                 4898 	.db #0xFF
   0D9E FF                 4899 	.db #0xFF
   0D9F 7F                 4900 	.db #0x7F
   0DA0 FF                 4901 	.db #0xFF
   0DA1 FD                 4902 	.db #0xFD
   0DA2 FF                 4903 	.db #0xFF
   0DA3 FD                 4904 	.db #0xFD
   0DA4 FF                 4905 	.db #0xFF
   0DA5 FD                 4906 	.db #0xFD
   0DA6 FF                 4907 	.db #0xFF
   0DA7 FD                 4908 	.db #0xFD
   0DA8 FF                 4909 	.db #0xFF
   0DA9 FD                 4910 	.db #0xFD
   0DAA FF                 4911 	.db #0xFF
   0DAB FD                 4912 	.db #0xFD
   0DAC FF                 4913 	.db #0xFF
   0DAD FD                 4914 	.db #0xFD
   0DAE FF                 4915 	.db #0xFF
   0DAF FD                 4916 	.db #0xFD
   0DB0 FF                 4917 	.db #0xFF
   0DB1 00                 4918 	.db #0x00
   0DB2 FF                 4919 	.db #0xFF
   0DB3 00                 4920 	.db #0x00
   0DB4 FF                 4921 	.db #0xFF
   0DB5 00                 4922 	.db #0x00
   0DB6 FF                 4923 	.db #0xFF
   0DB7 00                 4924 	.db #0x00
   0DB8 FF                 4925 	.db #0xFF
   0DB9 00                 4926 	.db #0x00
   0DBA FF                 4927 	.db #0xFF
   0DBB 00                 4928 	.db #0x00
   0DBC FF                 4929 	.db #0xFF
   0DBD 00                 4930 	.db #0x00
   0DBE FF                 4931 	.db #0xFF
   0DBF 00                 4932 	.db #0x00
   0DC0 FF                 4933 	.db #0xFF
   0DC1 BF                 4934 	.db #0xBF
   0DC2 FF                 4935 	.db #0xFF
   0DC3 BF                 4936 	.db #0xBF
   0DC4 FF                 4937 	.db #0xFF
   0DC5 BF                 4938 	.db #0xBF
   0DC6 FF                 4939 	.db #0xFF
   0DC7 BF                 4940 	.db #0xBF
   0DC8 FF                 4941 	.db #0xFF
   0DC9 BF                 4942 	.db #0xBF
   0DCA FF                 4943 	.db #0xFF
   0DCB BF                 4944 	.db #0xBF
   0DCC FF                 4945 	.db #0xFF
   0DCD BF                 4946 	.db #0xBF
   0DCE FF                 4947 	.db #0xFF
   0DCF BF                 4948 	.db #0xBF
   0DD0 FF                 4949 	.db #0xFF
   0DD1 00                 4950 	.db #0x00
   0DD2 FF                 4951 	.db #0xFF
   0DD3 00                 4952 	.db #0x00
   0DD4 FF                 4953 	.db #0xFF
   0DD5 00                 4954 	.db #0x00
   0DD6 FF                 4955 	.db #0xFF
   0DD7 00                 4956 	.db #0x00
   0DD8 FF                 4957 	.db #0xFF
   0DD9 00                 4958 	.db #0x00
   0DDA FF                 4959 	.db #0xFF
   0DDB 00                 4960 	.db #0x00
   0DDC FF                 4961 	.db #0xFF
   0DDD 00                 4962 	.db #0x00
   0DDE FF                 4963 	.db #0xFF
   0DDF FF                 4964 	.db #0xFF
   0DE0 00                 4965 	.db #0x00
   0DE1 00                 4966 	.db #0x00
   0DE2 00                 4967 	.db #0x00
   0DE3 00                 4968 	.db #0x00
   0DE4 00                 4969 	.db #0x00
   0DE5 00                 4970 	.db #0x00
   0DE6 00                 4971 	.db #0x00
   0DE7 00                 4972 	.db #0x00
   0DE8 00                 4973 	.db #0x00
   0DE9 00                 4974 	.db #0x00
   0DEA 00                 4975 	.db #0x00
   0DEB 00                 4976 	.db #0x00
   0DEC 00                 4977 	.db #0x00
   0DED 00                 4978 	.db #0x00
   0DEE 00                 4979 	.db #0x00
   0DEF 00                 4980 	.db #0x00
   0DF0 FF                 4981 	.db #0xFF
   0DF1 FE                 4982 	.db #0xFE
   0DF2 FF                 4983 	.db #0xFF
   0DF3 FF                 4984 	.db #0xFF
   0DF4 FF                 4985 	.db #0xFF
   0DF5 FF                 4986 	.db #0xFF
   0DF6 FF                 4987 	.db #0xFF
   0DF7 FF                 4988 	.db #0xFF
   0DF8 FF                 4989 	.db #0xFF
   0DF9 FF                 4990 	.db #0xFF
   0DFA FF                 4991 	.db #0xFF
   0DFB FF                 4992 	.db #0xFF
   0DFC FF                 4993 	.db #0xFF
   0DFD FF                 4994 	.db #0xFF
   0DFE FF                 4995 	.db #0xFF
   0DFF FF                 4996 	.db #0xFF
   0E00 FF                 4997 	.db #0xFF
   0E01 FF                 4998 	.db #0xFF
   0E02 FF                 4999 	.db #0xFF
   0E03 00                 5000 	.db #0x00
   0E04 FF                 5001 	.db #0xFF
   0E05 FF                 5002 	.db #0xFF
   0E06 FF                 5003 	.db #0xFF
   0E07 FF                 5004 	.db #0xFF
   0E08 FF                 5005 	.db #0xFF
   0E09 FF                 5006 	.db #0xFF
   0E0A FF                 5007 	.db #0xFF
   0E0B FF                 5008 	.db #0xFF
   0E0C FF                 5009 	.db #0xFF
   0E0D FF                 5010 	.db #0xFF
   0E0E FF                 5011 	.db #0xFF
   0E0F FF                 5012 	.db #0xFF
   0E10 FF                 5013 	.db #0xFF
   0E11 FF                 5014 	.db #0xFF
   0E12 FF                 5015 	.db #0xFF
   0E13 01                 5016 	.db #0x01
   0E14 FF                 5017 	.db #0xFF
   0E15 FD                 5018 	.db #0xFD
   0E16 FF                 5019 	.db #0xFF
   0E17 FD                 5020 	.db #0xFD
   0E18 FF                 5021 	.db #0xFF
   0E19 FD                 5022 	.db #0xFD
   0E1A FF                 5023 	.db #0xFF
   0E1B FD                 5024 	.db #0xFD
   0E1C FF                 5025 	.db #0xFF
   0E1D FD                 5026 	.db #0xFD
   0E1E FF                 5027 	.db #0xFF
   0E1F FD                 5028 	.db #0xFD
   0E20 00                 5029 	.db #0x00
   0E21 00                 5030 	.db #0x00
   0E22 00                 5031 	.db #0x00
   0E23 00                 5032 	.db #0x00
   0E24 AA                 5033 	.db #0xAA
   0E25 00                 5034 	.db #0x00
   0E26 55                 5035 	.db #0x55
   0E27 00                 5036 	.db #0x00
   0E28 AA                 5037 	.db #0xAA
   0E29 55                 5038 	.db #0x55
   0E2A 55                 5039 	.db #0x55
   0E2B AA                 5040 	.db #0xAA
   0E2C AA                 5041 	.db #0xAA
   0E2D FF                 5042 	.db #0xFF
   0E2E 55                 5043 	.db #0x55
   0E2F FF                 5044 	.db #0xFF
   0E30 FF                 5045 	.db #0xFF
   0E31 FF                 5046 	.db #0xFF
   0E32 FF                 5047 	.db #0xFF
   0E33 80                 5048 	.db #0x80
   0E34 FF                 5049 	.db #0xFF
   0E35 BF                 5050 	.db #0xBF
   0E36 FF                 5051 	.db #0xFF
   0E37 BF                 5052 	.db #0xBF
   0E38 FF                 5053 	.db #0xFF
   0E39 BF                 5054 	.db #0xBF
   0E3A FF                 5055 	.db #0xFF
   0E3B BF                 5056 	.db #0xBF
   0E3C FF                 5057 	.db #0xFF
   0E3D BF                 5058 	.db #0xBF
   0E3E FF                 5059 	.db #0xFF
   0E3F BF                 5060 	.db #0xBF
   0E40 FF                 5061 	.db #0xFF
   0E41 7F                 5062 	.db #0x7F
   0E42 FF                 5063 	.db #0xFF
   0E43 FF                 5064 	.db #0xFF
   0E44 FF                 5065 	.db #0xFF
   0E45 FF                 5066 	.db #0xFF
   0E46 FF                 5067 	.db #0xFF
   0E47 FF                 5068 	.db #0xFF
   0E48 FF                 5069 	.db #0xFF
   0E49 FF                 5070 	.db #0xFF
   0E4A FF                 5071 	.db #0xFF
   0E4B FF                 5072 	.db #0xFF
   0E4C FF                 5073 	.db #0xFF
   0E4D FF                 5074 	.db #0xFF
   0E4E FF                 5075 	.db #0xFF
   0E4F FF                 5076 	.db #0xFF
   0E50                    5077 _room_top_data:
   0E50 FF                 5078 	.db #0xFF
   0E51 FF                 5079 	.db #0xFF
   0E52 FF                 5080 	.db #0xFF
   0E53 FF                 5081 	.db #0xFF
   0E54 FF                 5082 	.db #0xFF
   0E55 FF                 5083 	.db #0xFF
   0E56 FF                 5084 	.db #0xFF
   0E57 FF                 5085 	.db #0xFF
   0E58 FF                 5086 	.db #0xFF
   0E59 FF                 5087 	.db #0xFF
   0E5A FF                 5088 	.db #0xFF
   0E5B FF                 5089 	.db #0xFF
   0E5C FF                 5090 	.db #0xFF
   0E5D FF                 5091 	.db #0xFF
   0E5E FF                 5092 	.db #0xFF
   0E5F FF                 5093 	.db #0xFF
   0E60 FF                 5094 	.db #0xFF
   0E61 FF                 5095 	.db #0xFF
   0E62 FF                 5096 	.db #0xFF
   0E63 FF                 5097 	.db #0xFF
   0E64 FF                 5098 	.db #0xFF
   0E65 FF                 5099 	.db #0xFF
   0E66 FF                 5100 	.db #0xFF
   0E67 FF                 5101 	.db #0xFF
   0E68 FF                 5102 	.db #0xFF
   0E69 FF                 5103 	.db #0xFF
   0E6A FF                 5104 	.db #0xFF
   0E6B FF                 5105 	.db #0xFF
   0E6C FF                 5106 	.db #0xFF
   0E6D FF                 5107 	.db #0xFF
   0E6E FF                 5108 	.db #0xFF
   0E6F FE                 5109 	.db #0xFE
   0E70 FF                 5110 	.db #0xFF
   0E71 FF                 5111 	.db #0xFF
   0E72 FF                 5112 	.db #0xFF
   0E73 FF                 5113 	.db #0xFF
   0E74 FF                 5114 	.db #0xFF
   0E75 FF                 5115 	.db #0xFF
   0E76 FF                 5116 	.db #0xFF
   0E77 FF                 5117 	.db #0xFF
   0E78 FF                 5118 	.db #0xFF
   0E79 FF                 5119 	.db #0xFF
   0E7A FF                 5120 	.db #0xFF
   0E7B FF                 5121 	.db #0xFF
   0E7C FF                 5122 	.db #0xFF
   0E7D 00                 5123 	.db #0x00
   0E7E FF                 5124 	.db #0xFF
   0E7F FF                 5125 	.db #0xFF
   0E80 FF                 5126 	.db #0xFF
   0E81 FD                 5127 	.db #0xFD
   0E82 FF                 5128 	.db #0xFF
   0E83 FD                 5129 	.db #0xFD
   0E84 FF                 5130 	.db #0xFF
   0E85 FD                 5131 	.db #0xFD
   0E86 FF                 5132 	.db #0xFF
   0E87 FD                 5133 	.db #0xFD
   0E88 FF                 5134 	.db #0xFF
   0E89 FD                 5135 	.db #0xFD
   0E8A FF                 5136 	.db #0xFF
   0E8B FD                 5137 	.db #0xFD
   0E8C FF                 5138 	.db #0xFF
   0E8D 01                 5139 	.db #0x01
   0E8E FF                 5140 	.db #0xFF
   0E8F FF                 5141 	.db #0xFF
   0E90 AA                 5142 	.db #0xAA
   0E91 FF                 5143 	.db #0xFF
   0E92 55                 5144 	.db #0x55
   0E93 FF                 5145 	.db #0xFF
   0E94 AA                 5146 	.db #0xAA
   0E95 55                 5147 	.db #0x55
   0E96 55                 5148 	.db #0x55
   0E97 AA                 5149 	.db #0xAA
   0E98 AA                 5150 	.db #0xAA
   0E99 00                 5151 	.db #0x00
   0E9A 55                 5152 	.db #0x55
   0E9B 00                 5153 	.db #0x00
   0E9C 00                 5154 	.db #0x00
   0E9D 00                 5155 	.db #0x00
   0E9E 00                 5156 	.db #0x00
   0E9F 00                 5157 	.db #0x00
   0EA0 FF                 5158 	.db #0xFF
   0EA1 BF                 5159 	.db #0xBF
   0EA2 FF                 5160 	.db #0xFF
   0EA3 BF                 5161 	.db #0xBF
   0EA4 FF                 5162 	.db #0xFF
   0EA5 BF                 5163 	.db #0xBF
   0EA6 FF                 5164 	.db #0xFF
   0EA7 BF                 5165 	.db #0xBF
   0EA8 FF                 5166 	.db #0xFF
   0EA9 BF                 5167 	.db #0xBF
   0EAA FF                 5168 	.db #0xFF
   0EAB BF                 5169 	.db #0xBF
   0EAC FF                 5170 	.db #0xFF
   0EAD 80                 5171 	.db #0x80
   0EAE FF                 5172 	.db #0xFF
   0EAF FF                 5173 	.db #0xFF
   0EB0 FF                 5174 	.db #0xFF
   0EB1 FF                 5175 	.db #0xFF
   0EB2 FF                 5176 	.db #0xFF
   0EB3 FF                 5177 	.db #0xFF
   0EB4 FF                 5178 	.db #0xFF
   0EB5 FF                 5179 	.db #0xFF
   0EB6 FF                 5180 	.db #0xFF
   0EB7 FF                 5181 	.db #0xFF
   0EB8 FF                 5182 	.db #0xFF
   0EB9 FF                 5183 	.db #0xFF
   0EBA FF                 5184 	.db #0xFF
   0EBB FF                 5185 	.db #0xFF
   0EBC FF                 5186 	.db #0xFF
   0EBD FF                 5187 	.db #0xFF
   0EBE FF                 5188 	.db #0xFF
   0EBF 7F                 5189 	.db #0x7F
   0EC0 FF                 5190 	.db #0xFF
   0EC1 FD                 5191 	.db #0xFD
   0EC2 FF                 5192 	.db #0xFF
   0EC3 FD                 5193 	.db #0xFD
   0EC4 FF                 5194 	.db #0xFF
   0EC5 FD                 5195 	.db #0xFD
   0EC6 FF                 5196 	.db #0xFF
   0EC7 FD                 5197 	.db #0xFD
   0EC8 FF                 5198 	.db #0xFF
   0EC9 FD                 5199 	.db #0xFD
   0ECA FF                 5200 	.db #0xFF
   0ECB FD                 5201 	.db #0xFD
   0ECC FF                 5202 	.db #0xFF
   0ECD FD                 5203 	.db #0xFD
   0ECE FF                 5204 	.db #0xFF
   0ECF FD                 5205 	.db #0xFD
   0ED0 00                 5206 	.db #0x00
   0ED1 00                 5207 	.db #0x00
   0ED2 00                 5208 	.db #0x00
   0ED3 00                 5209 	.db #0x00
   0ED4 00                 5210 	.db #0x00
   0ED5 00                 5211 	.db #0x00
   0ED6 00                 5212 	.db #0x00
   0ED7 00                 5213 	.db #0x00
   0ED8 00                 5214 	.db #0x00
   0ED9 00                 5215 	.db #0x00
   0EDA 00                 5216 	.db #0x00
   0EDB 00                 5217 	.db #0x00
   0EDC 00                 5218 	.db #0x00
   0EDD 00                 5219 	.db #0x00
   0EDE 00                 5220 	.db #0x00
   0EDF 00                 5221 	.db #0x00
   0EE0 FF                 5222 	.db #0xFF
   0EE1 BF                 5223 	.db #0xBF
   0EE2 FF                 5224 	.db #0xFF
   0EE3 BF                 5225 	.db #0xBF
   0EE4 FF                 5226 	.db #0xFF
   0EE5 BF                 5227 	.db #0xBF
   0EE6 FF                 5228 	.db #0xFF
   0EE7 BF                 5229 	.db #0xBF
   0EE8 FF                 5230 	.db #0xFF
   0EE9 BF                 5231 	.db #0xBF
   0EEA FF                 5232 	.db #0xFF
   0EEB BF                 5233 	.db #0xBF
   0EEC FF                 5234 	.db #0xFF
   0EED BF                 5235 	.db #0xBF
   0EEE FF                 5236 	.db #0xFF
   0EEF BF                 5237 	.db #0xBF
   0EF0 FF                 5238 	.db #0xFF
   0EF1 FF                 5239 	.db #0xFF
   0EF2 FF                 5240 	.db #0xFF
   0EF3 00                 5241 	.db #0x00
   0EF4 FF                 5242 	.db #0xFF
   0EF5 00                 5243 	.db #0x00
   0EF6 FF                 5244 	.db #0xFF
   0EF7 00                 5245 	.db #0x00
   0EF8 FF                 5246 	.db #0xFF
   0EF9 00                 5247 	.db #0x00
   0EFA FF                 5248 	.db #0xFF
   0EFB 00                 5249 	.db #0x00
   0EFC FF                 5250 	.db #0xFF
   0EFD 00                 5251 	.db #0x00
   0EFE FF                 5252 	.db #0xFF
   0EFF 00                 5253 	.db #0x00
   0F00 FF                 5254 	.db #0xFF
   0F01 00                 5255 	.db #0x00
   0F02 FF                 5256 	.db #0xFF
   0F03 00                 5257 	.db #0x00
   0F04 FF                 5258 	.db #0xFF
   0F05 00                 5259 	.db #0x00
   0F06 FF                 5260 	.db #0xFF
   0F07 00                 5261 	.db #0x00
   0F08 FF                 5262 	.db #0xFF
   0F09 00                 5263 	.db #0x00
   0F0A FF                 5264 	.db #0xFF
   0F0B 00                 5265 	.db #0x00
   0F0C FF                 5266 	.db #0xFF
   0F0D 00                 5267 	.db #0x00
   0F0E FF                 5268 	.db #0xFF
   0F0F 00                 5269 	.db #0x00
   0F10 FF                 5270 	.db #0xFF
   0F11 FE                 5271 	.db #0xFE
   0F12 FF                 5272 	.db #0xFF
   0F13 FF                 5273 	.db #0xFF
   0F14 FF                 5274 	.db #0xFF
   0F15 FF                 5275 	.db #0xFF
   0F16 FF                 5276 	.db #0xFF
   0F17 FF                 5277 	.db #0xFF
   0F18 FF                 5278 	.db #0xFF
   0F19 FF                 5279 	.db #0xFF
   0F1A FF                 5280 	.db #0xFF
   0F1B FF                 5281 	.db #0xFF
   0F1C FF                 5282 	.db #0xFF
   0F1D FF                 5283 	.db #0xFF
   0F1E FF                 5284 	.db #0xFF
   0F1F FF                 5285 	.db #0xFF
   0F20 FF                 5286 	.db #0xFF
   0F21 FF                 5287 	.db #0xFF
   0F22 FF                 5288 	.db #0xFF
   0F23 00                 5289 	.db #0x00
   0F24 FF                 5290 	.db #0xFF
   0F25 FF                 5291 	.db #0xFF
   0F26 FF                 5292 	.db #0xFF
   0F27 FF                 5293 	.db #0xFF
   0F28 FF                 5294 	.db #0xFF
   0F29 FF                 5295 	.db #0xFF
   0F2A FF                 5296 	.db #0xFF
   0F2B FF                 5297 	.db #0xFF
   0F2C FF                 5298 	.db #0xFF
   0F2D FF                 5299 	.db #0xFF
   0F2E FF                 5300 	.db #0xFF
   0F2F FF                 5301 	.db #0xFF
   0F30 FF                 5302 	.db #0xFF
   0F31 7F                 5303 	.db #0x7F
   0F32 FF                 5304 	.db #0xFF
   0F33 FF                 5305 	.db #0xFF
   0F34 FF                 5306 	.db #0xFF
   0F35 FF                 5307 	.db #0xFF
   0F36 FF                 5308 	.db #0xFF
   0F37 FF                 5309 	.db #0xFF
   0F38 FF                 5310 	.db #0xFF
   0F39 FF                 5311 	.db #0xFF
   0F3A FF                 5312 	.db #0xFF
   0F3B FF                 5313 	.db #0xFF
   0F3C FF                 5314 	.db #0xFF
   0F3D FF                 5315 	.db #0xFF
   0F3E FF                 5316 	.db #0xFF
   0F3F FF                 5317 	.db #0xFF
   0F40                    5318 _room_middle_map:
   0F40 00                 5319 	.db #0x00
   0F41 00                 5320 	.db #0x00
   0F42 00                 5321 	.db #0x00
   0F43 00                 5322 	.db #0x00
   0F44 00                 5323 	.db #0x00
   0F45 00                 5324 	.db #0x00
   0F46 00                 5325 	.db #0x00
   0F47 00                 5326 	.db #0x00
   0F48 00                 5327 	.db #0x00
   0F49 00                 5328 	.db #0x00
   0F4A 00                 5329 	.db #0x00
   0F4B 00                 5330 	.db #0x00
   0F4C 00                 5331 	.db #0x00
   0F4D 00                 5332 	.db #0x00
   0F4E 00                 5333 	.db #0x00
   0F4F 00                 5334 	.db #0x00
   0F50 00                 5335 	.db #0x00
   0F51 00                 5336 	.db #0x00
   0F52 00                 5337 	.db #0x00
   0F53 00                 5338 	.db #0x00
   0F54 00                 5339 	.db #0x00
   0F55 00                 5340 	.db #0x00
   0F56 00                 5341 	.db #0x00
   0F57 00                 5342 	.db #0x00
   0F58 00                 5343 	.db #0x00
   0F59 00                 5344 	.db #0x00
   0F5A 00                 5345 	.db #0x00
   0F5B 00                 5346 	.db #0x00
   0F5C 00                 5347 	.db #0x00
   0F5D 00                 5348 	.db #0x00
   0F5E 00                 5349 	.db #0x00
   0F5F 00                 5350 	.db #0x00
   0F60 00                 5351 	.db #0x00
   0F61 00                 5352 	.db #0x00
   0F62 00                 5353 	.db #0x00
   0F63 00                 5354 	.db #0x00
   0F64 00                 5355 	.db #0x00
   0F65 00                 5356 	.db #0x00
   0F66 00                 5357 	.db #0x00
   0F67 00                 5358 	.db #0x00
   0F68 00                 5359 	.db #0x00
   0F69 01                 5360 	.db #0x01
   0F6A 02                 5361 	.db #0x02
   0F6B 02                 5362 	.db #0x02
   0F6C 02                 5363 	.db #0x02
   0F6D 02                 5364 	.db #0x02
   0F6E 02                 5365 	.db #0x02
   0F6F 02                 5366 	.db #0x02
   0F70 03                 5367 	.db #0x03
   0F71 04                 5368 	.db #0x04
   0F72 04                 5369 	.db #0x04
   0F73 05                 5370 	.db #0x05
   0F74 02                 5371 	.db #0x02
   0F75 02                 5372 	.db #0x02
   0F76 02                 5373 	.db #0x02
   0F77 02                 5374 	.db #0x02
   0F78 02                 5375 	.db #0x02
   0F79 02                 5376 	.db #0x02
   0F7A 06                 5377 	.db #0x06
   0F7B 00                 5378 	.db #0x00
   0F7C 00                 5379 	.db #0x00
   0F7D 07                 5380 	.db #0x07
   0F7E 08                 5381 	.db #0x08
   0F7F 08                 5382 	.db #0x08
   0F80 08                 5383 	.db #0x08
   0F81 08                 5384 	.db #0x08
   0F82 08                 5385 	.db #0x08
   0F83 08                 5386 	.db #0x08
   0F84 08                 5387 	.db #0x08
   0F85 08                 5388 	.db #0x08
   0F86 08                 5389 	.db #0x08
   0F87 08                 5390 	.db #0x08
   0F88 08                 5391 	.db #0x08
   0F89 08                 5392 	.db #0x08
   0F8A 08                 5393 	.db #0x08
   0F8B 08                 5394 	.db #0x08
   0F8C 08                 5395 	.db #0x08
   0F8D 08                 5396 	.db #0x08
   0F8E 09                 5397 	.db #0x09
   0F8F 00                 5398 	.db #0x00
   0F90 00                 5399 	.db #0x00
   0F91 07                 5400 	.db #0x07
   0F92 08                 5401 	.db #0x08
   0F93 08                 5402 	.db #0x08
   0F94 08                 5403 	.db #0x08
   0F95 08                 5404 	.db #0x08
   0F96 08                 5405 	.db #0x08
   0F97 08                 5406 	.db #0x08
   0F98 08                 5407 	.db #0x08
   0F99 08                 5408 	.db #0x08
   0F9A 08                 5409 	.db #0x08
   0F9B 08                 5410 	.db #0x08
   0F9C 08                 5411 	.db #0x08
   0F9D 08                 5412 	.db #0x08
   0F9E 08                 5413 	.db #0x08
   0F9F 08                 5414 	.db #0x08
   0FA0 08                 5415 	.db #0x08
   0FA1 08                 5416 	.db #0x08
   0FA2 09                 5417 	.db #0x09
   0FA3 00                 5418 	.db #0x00
   0FA4 00                 5419 	.db #0x00
   0FA5 07                 5420 	.db #0x07
   0FA6 08                 5421 	.db #0x08
   0FA7 08                 5422 	.db #0x08
   0FA8 08                 5423 	.db #0x08
   0FA9 08                 5424 	.db #0x08
   0FAA 08                 5425 	.db #0x08
   0FAB 08                 5426 	.db #0x08
   0FAC 08                 5427 	.db #0x08
   0FAD 08                 5428 	.db #0x08
   0FAE 08                 5429 	.db #0x08
   0FAF 08                 5430 	.db #0x08
   0FB0 08                 5431 	.db #0x08
   0FB1 08                 5432 	.db #0x08
   0FB2 08                 5433 	.db #0x08
   0FB3 08                 5434 	.db #0x08
   0FB4 08                 5435 	.db #0x08
   0FB5 08                 5436 	.db #0x08
   0FB6 09                 5437 	.db #0x09
   0FB7 00                 5438 	.db #0x00
   0FB8 00                 5439 	.db #0x00
   0FB9 07                 5440 	.db #0x07
   0FBA 08                 5441 	.db #0x08
   0FBB 08                 5442 	.db #0x08
   0FBC 08                 5443 	.db #0x08
   0FBD 08                 5444 	.db #0x08
   0FBE 08                 5445 	.db #0x08
   0FBF 08                 5446 	.db #0x08
   0FC0 08                 5447 	.db #0x08
   0FC1 08                 5448 	.db #0x08
   0FC2 08                 5449 	.db #0x08
   0FC3 08                 5450 	.db #0x08
   0FC4 08                 5451 	.db #0x08
   0FC5 08                 5452 	.db #0x08
   0FC6 08                 5453 	.db #0x08
   0FC7 08                 5454 	.db #0x08
   0FC8 08                 5455 	.db #0x08
   0FC9 08                 5456 	.db #0x08
   0FCA 09                 5457 	.db #0x09
   0FCB 00                 5458 	.db #0x00
   0FCC 00                 5459 	.db #0x00
   0FCD 07                 5460 	.db #0x07
   0FCE 08                 5461 	.db #0x08
   0FCF 08                 5462 	.db #0x08
   0FD0 08                 5463 	.db #0x08
   0FD1 08                 5464 	.db #0x08
   0FD2 08                 5465 	.db #0x08
   0FD3 08                 5466 	.db #0x08
   0FD4 08                 5467 	.db #0x08
   0FD5 08                 5468 	.db #0x08
   0FD6 08                 5469 	.db #0x08
   0FD7 08                 5470 	.db #0x08
   0FD8 08                 5471 	.db #0x08
   0FD9 08                 5472 	.db #0x08
   0FDA 08                 5473 	.db #0x08
   0FDB 08                 5474 	.db #0x08
   0FDC 08                 5475 	.db #0x08
   0FDD 08                 5476 	.db #0x08
   0FDE 09                 5477 	.db #0x09
   0FDF 00                 5478 	.db #0x00
   0FE0 00                 5479 	.db #0x00
   0FE1 07                 5480 	.db #0x07
   0FE2 08                 5481 	.db #0x08
   0FE3 08                 5482 	.db #0x08
   0FE4 08                 5483 	.db #0x08
   0FE5 08                 5484 	.db #0x08
   0FE6 08                 5485 	.db #0x08
   0FE7 08                 5486 	.db #0x08
   0FE8 08                 5487 	.db #0x08
   0FE9 08                 5488 	.db #0x08
   0FEA 08                 5489 	.db #0x08
   0FEB 08                 5490 	.db #0x08
   0FEC 08                 5491 	.db #0x08
   0FED 08                 5492 	.db #0x08
   0FEE 08                 5493 	.db #0x08
   0FEF 08                 5494 	.db #0x08
   0FF0 08                 5495 	.db #0x08
   0FF1 08                 5496 	.db #0x08
   0FF2 09                 5497 	.db #0x09
   0FF3 00                 5498 	.db #0x00
   0FF4 00                 5499 	.db #0x00
   0FF5 07                 5500 	.db #0x07
   0FF6 08                 5501 	.db #0x08
   0FF7 08                 5502 	.db #0x08
   0FF8 08                 5503 	.db #0x08
   0FF9 08                 5504 	.db #0x08
   0FFA 08                 5505 	.db #0x08
   0FFB 08                 5506 	.db #0x08
   0FFC 08                 5507 	.db #0x08
   0FFD 08                 5508 	.db #0x08
   0FFE 08                 5509 	.db #0x08
   0FFF 08                 5510 	.db #0x08
   1000 08                 5511 	.db #0x08
   1001 08                 5512 	.db #0x08
   1002 08                 5513 	.db #0x08
   1003 08                 5514 	.db #0x08
   1004 08                 5515 	.db #0x08
   1005 08                 5516 	.db #0x08
   1006 09                 5517 	.db #0x09
   1007 00                 5518 	.db #0x00
   1008 00                 5519 	.db #0x00
   1009 07                 5520 	.db #0x07
   100A 08                 5521 	.db #0x08
   100B 08                 5522 	.db #0x08
   100C 08                 5523 	.db #0x08
   100D 08                 5524 	.db #0x08
   100E 08                 5525 	.db #0x08
   100F 08                 5526 	.db #0x08
   1010 08                 5527 	.db #0x08
   1011 08                 5528 	.db #0x08
   1012 08                 5529 	.db #0x08
   1013 08                 5530 	.db #0x08
   1014 08                 5531 	.db #0x08
   1015 08                 5532 	.db #0x08
   1016 08                 5533 	.db #0x08
   1017 08                 5534 	.db #0x08
   1018 08                 5535 	.db #0x08
   1019 08                 5536 	.db #0x08
   101A 09                 5537 	.db #0x09
   101B 00                 5538 	.db #0x00
   101C 00                 5539 	.db #0x00
   101D 07                 5540 	.db #0x07
   101E 08                 5541 	.db #0x08
   101F 08                 5542 	.db #0x08
   1020 08                 5543 	.db #0x08
   1021 08                 5544 	.db #0x08
   1022 08                 5545 	.db #0x08
   1023 08                 5546 	.db #0x08
   1024 08                 5547 	.db #0x08
   1025 08                 5548 	.db #0x08
   1026 08                 5549 	.db #0x08
   1027 08                 5550 	.db #0x08
   1028 08                 5551 	.db #0x08
   1029 08                 5552 	.db #0x08
   102A 08                 5553 	.db #0x08
   102B 08                 5554 	.db #0x08
   102C 08                 5555 	.db #0x08
   102D 08                 5556 	.db #0x08
   102E 09                 5557 	.db #0x09
   102F 00                 5558 	.db #0x00
   1030 00                 5559 	.db #0x00
   1031 07                 5560 	.db #0x07
   1032 08                 5561 	.db #0x08
   1033 08                 5562 	.db #0x08
   1034 08                 5563 	.db #0x08
   1035 08                 5564 	.db #0x08
   1036 08                 5565 	.db #0x08
   1037 08                 5566 	.db #0x08
   1038 08                 5567 	.db #0x08
   1039 08                 5568 	.db #0x08
   103A 08                 5569 	.db #0x08
   103B 08                 5570 	.db #0x08
   103C 08                 5571 	.db #0x08
   103D 08                 5572 	.db #0x08
   103E 08                 5573 	.db #0x08
   103F 08                 5574 	.db #0x08
   1040 08                 5575 	.db #0x08
   1041 08                 5576 	.db #0x08
   1042 09                 5577 	.db #0x09
   1043 00                 5578 	.db #0x00
   1044 00                 5579 	.db #0x00
   1045 07                 5580 	.db #0x07
   1046 08                 5581 	.db #0x08
   1047 08                 5582 	.db #0x08
   1048 08                 5583 	.db #0x08
   1049 08                 5584 	.db #0x08
   104A 08                 5585 	.db #0x08
   104B 08                 5586 	.db #0x08
   104C 08                 5587 	.db #0x08
   104D 08                 5588 	.db #0x08
   104E 08                 5589 	.db #0x08
   104F 08                 5590 	.db #0x08
   1050 08                 5591 	.db #0x08
   1051 08                 5592 	.db #0x08
   1052 08                 5593 	.db #0x08
   1053 08                 5594 	.db #0x08
   1054 08                 5595 	.db #0x08
   1055 08                 5596 	.db #0x08
   1056 09                 5597 	.db #0x09
   1057 00                 5598 	.db #0x00
   1058 00                 5599 	.db #0x00
   1059 0A                 5600 	.db #0x0A
   105A 0B                 5601 	.db #0x0B
   105B 0B                 5602 	.db #0x0B
   105C 0B                 5603 	.db #0x0B
   105D 0B                 5604 	.db #0x0B
   105E 0B                 5605 	.db #0x0B
   105F 0B                 5606 	.db #0x0B
   1060 0C                 5607 	.db #0x0C
   1061 08                 5608 	.db #0x08
   1062 08                 5609 	.db #0x08
   1063 0D                 5610 	.db #0x0D
   1064 0B                 5611 	.db #0x0B
   1065 0B                 5612 	.db #0x0B
   1066 0B                 5613 	.db #0x0B
   1067 0B                 5614 	.db #0x0B
   1068 0B                 5615 	.db #0x0B
   1069 0B                 5616 	.db #0x0B
   106A 0E                 5617 	.db #0x0E
   106B 00                 5618 	.db #0x00
   106C 00                 5619 	.db #0x00
   106D 00                 5620 	.db #0x00
   106E 0F                 5621 	.db #0x0F
   106F 0F                 5622 	.db #0x0F
   1070 0F                 5623 	.db #0x0F
   1071 0F                 5624 	.db #0x0F
   1072 0F                 5625 	.db #0x0F
   1073 0F                 5626 	.db #0x0F
   1074 10                 5627 	.db #0x10
   1075 11                 5628 	.db #0x11
   1076 11                 5629 	.db #0x11
   1077 12                 5630 	.db #0x12
   1078 0F                 5631 	.db #0x0F
   1079 0F                 5632 	.db #0x0F
   107A 0F                 5633 	.db #0x0F
   107B 0F                 5634 	.db #0x0F
   107C 0F                 5635 	.db #0x0F
   107D 0F                 5636 	.db #0x0F
   107E 00                 5637 	.db #0x00
   107F 00                 5638 	.db #0x00
   1080 00                 5639 	.db #0x00
   1081 00                 5640 	.db #0x00
   1082 00                 5641 	.db #0x00
   1083 00                 5642 	.db #0x00
   1084 00                 5643 	.db #0x00
   1085 00                 5644 	.db #0x00
   1086 00                 5645 	.db #0x00
   1087 00                 5646 	.db #0x00
   1088 00                 5647 	.db #0x00
   1089 00                 5648 	.db #0x00
   108A 00                 5649 	.db #0x00
   108B 00                 5650 	.db #0x00
   108C 00                 5651 	.db #0x00
   108D 00                 5652 	.db #0x00
   108E 00                 5653 	.db #0x00
   108F 00                 5654 	.db #0x00
   1090 00                 5655 	.db #0x00
   1091 00                 5656 	.db #0x00
   1092 00                 5657 	.db #0x00
   1093 00                 5658 	.db #0x00
   1094 00                 5659 	.db #0x00
   1095 00                 5660 	.db #0x00
   1096 00                 5661 	.db #0x00
   1097 00                 5662 	.db #0x00
   1098 00                 5663 	.db #0x00
   1099 00                 5664 	.db #0x00
   109A 00                 5665 	.db #0x00
   109B 00                 5666 	.db #0x00
   109C 00                 5667 	.db #0x00
   109D 00                 5668 	.db #0x00
   109E 00                 5669 	.db #0x00
   109F 00                 5670 	.db #0x00
   10A0 00                 5671 	.db #0x00
   10A1 00                 5672 	.db #0x00
   10A2 00                 5673 	.db #0x00
   10A3 00                 5674 	.db #0x00
   10A4 00                 5675 	.db #0x00
   10A5 00                 5676 	.db #0x00
   10A6 00                 5677 	.db #0x00
   10A7 00                 5678 	.db #0x00
   10A8                    5679 _room_bottom_map:
   10A8 00                 5680 	.db #0x00
   10A9 00                 5681 	.db #0x00
   10AA 00                 5682 	.db #0x00
   10AB 00                 5683 	.db #0x00
   10AC 00                 5684 	.db #0x00
   10AD 00                 5685 	.db #0x00
   10AE 00                 5686 	.db #0x00
   10AF 00                 5687 	.db #0x00
   10B0 00                 5688 	.db #0x00
   10B1 00                 5689 	.db #0x00
   10B2 00                 5690 	.db #0x00
   10B3 00                 5691 	.db #0x00
   10B4 00                 5692 	.db #0x00
   10B5 00                 5693 	.db #0x00
   10B6 00                 5694 	.db #0x00
   10B7 00                 5695 	.db #0x00
   10B8 00                 5696 	.db #0x00
   10B9 00                 5697 	.db #0x00
   10BA 00                 5698 	.db #0x00
   10BB 00                 5699 	.db #0x00
   10BC 00                 5700 	.db #0x00
   10BD 01                 5701 	.db #0x01
   10BE 02                 5702 	.db #0x02
   10BF 02                 5703 	.db #0x02
   10C0 02                 5704 	.db #0x02
   10C1 02                 5705 	.db #0x02
   10C2 02                 5706 	.db #0x02
   10C3 02                 5707 	.db #0x02
   10C4 02                 5708 	.db #0x02
   10C5 02                 5709 	.db #0x02
   10C6 02                 5710 	.db #0x02
   10C7 02                 5711 	.db #0x02
   10C8 02                 5712 	.db #0x02
   10C9 02                 5713 	.db #0x02
   10CA 02                 5714 	.db #0x02
   10CB 02                 5715 	.db #0x02
   10CC 02                 5716 	.db #0x02
   10CD 02                 5717 	.db #0x02
   10CE 03                 5718 	.db #0x03
   10CF 00                 5719 	.db #0x00
   10D0 00                 5720 	.db #0x00
   10D1 04                 5721 	.db #0x04
   10D2 05                 5722 	.db #0x05
   10D3 05                 5723 	.db #0x05
   10D4 05                 5724 	.db #0x05
   10D5 05                 5725 	.db #0x05
   10D6 05                 5726 	.db #0x05
   10D7 05                 5727 	.db #0x05
   10D8 05                 5728 	.db #0x05
   10D9 05                 5729 	.db #0x05
   10DA 05                 5730 	.db #0x05
   10DB 05                 5731 	.db #0x05
   10DC 05                 5732 	.db #0x05
   10DD 05                 5733 	.db #0x05
   10DE 05                 5734 	.db #0x05
   10DF 05                 5735 	.db #0x05
   10E0 05                 5736 	.db #0x05
   10E1 05                 5737 	.db #0x05
   10E2 06                 5738 	.db #0x06
   10E3 00                 5739 	.db #0x00
   10E4 00                 5740 	.db #0x00
   10E5 04                 5741 	.db #0x04
   10E6 07                 5742 	.db #0x07
   10E7 07                 5743 	.db #0x07
   10E8 07                 5744 	.db #0x07
   10E9 07                 5745 	.db #0x07
   10EA 07                 5746 	.db #0x07
   10EB 07                 5747 	.db #0x07
   10EC 07                 5748 	.db #0x07
   10ED 07                 5749 	.db #0x07
   10EE 07                 5750 	.db #0x07
   10EF 07                 5751 	.db #0x07
   10F0 07                 5752 	.db #0x07
   10F1 07                 5753 	.db #0x07
   10F2 07                 5754 	.db #0x07
   10F3 07                 5755 	.db #0x07
   10F4 07                 5756 	.db #0x07
   10F5 07                 5757 	.db #0x07
   10F6 06                 5758 	.db #0x06
   10F7 00                 5759 	.db #0x00
   10F8 00                 5760 	.db #0x00
   10F9 04                 5761 	.db #0x04
   10FA 08                 5762 	.db #0x08
   10FB 08                 5763 	.db #0x08
   10FC 08                 5764 	.db #0x08
   10FD 08                 5765 	.db #0x08
   10FE 08                 5766 	.db #0x08
   10FF 08                 5767 	.db #0x08
   1100 08                 5768 	.db #0x08
   1101 08                 5769 	.db #0x08
   1102 08                 5770 	.db #0x08
   1103 08                 5771 	.db #0x08
   1104 08                 5772 	.db #0x08
   1105 08                 5773 	.db #0x08
   1106 08                 5774 	.db #0x08
   1107 08                 5775 	.db #0x08
   1108 08                 5776 	.db #0x08
   1109 08                 5777 	.db #0x08
   110A 06                 5778 	.db #0x06
   110B 00                 5779 	.db #0x00
   110C 00                 5780 	.db #0x00
   110D 04                 5781 	.db #0x04
   110E 08                 5782 	.db #0x08
   110F 08                 5783 	.db #0x08
   1110 08                 5784 	.db #0x08
   1111 08                 5785 	.db #0x08
   1112 08                 5786 	.db #0x08
   1113 08                 5787 	.db #0x08
   1114 08                 5788 	.db #0x08
   1115 08                 5789 	.db #0x08
   1116 08                 5790 	.db #0x08
   1117 08                 5791 	.db #0x08
   1118 08                 5792 	.db #0x08
   1119 08                 5793 	.db #0x08
   111A 08                 5794 	.db #0x08
   111B 08                 5795 	.db #0x08
   111C 08                 5796 	.db #0x08
   111D 08                 5797 	.db #0x08
   111E 06                 5798 	.db #0x06
   111F 00                 5799 	.db #0x00
   1120 00                 5800 	.db #0x00
   1121 04                 5801 	.db #0x04
   1122 08                 5802 	.db #0x08
   1123 08                 5803 	.db #0x08
   1124 08                 5804 	.db #0x08
   1125 08                 5805 	.db #0x08
   1126 08                 5806 	.db #0x08
   1127 08                 5807 	.db #0x08
   1128 08                 5808 	.db #0x08
   1129 08                 5809 	.db #0x08
   112A 08                 5810 	.db #0x08
   112B 08                 5811 	.db #0x08
   112C 08                 5812 	.db #0x08
   112D 08                 5813 	.db #0x08
   112E 08                 5814 	.db #0x08
   112F 08                 5815 	.db #0x08
   1130 08                 5816 	.db #0x08
   1131 08                 5817 	.db #0x08
   1132 06                 5818 	.db #0x06
   1133 00                 5819 	.db #0x00
   1134 00                 5820 	.db #0x00
   1135 04                 5821 	.db #0x04
   1136 08                 5822 	.db #0x08
   1137 08                 5823 	.db #0x08
   1138 08                 5824 	.db #0x08
   1139 08                 5825 	.db #0x08
   113A 08                 5826 	.db #0x08
   113B 08                 5827 	.db #0x08
   113C 08                 5828 	.db #0x08
   113D 08                 5829 	.db #0x08
   113E 08                 5830 	.db #0x08
   113F 08                 5831 	.db #0x08
   1140 08                 5832 	.db #0x08
   1141 08                 5833 	.db #0x08
   1142 08                 5834 	.db #0x08
   1143 08                 5835 	.db #0x08
   1144 08                 5836 	.db #0x08
   1145 08                 5837 	.db #0x08
   1146 06                 5838 	.db #0x06
   1147 00                 5839 	.db #0x00
   1148 00                 5840 	.db #0x00
   1149 04                 5841 	.db #0x04
   114A 08                 5842 	.db #0x08
   114B 08                 5843 	.db #0x08
   114C 08                 5844 	.db #0x08
   114D 08                 5845 	.db #0x08
   114E 08                 5846 	.db #0x08
   114F 08                 5847 	.db #0x08
   1150 08                 5848 	.db #0x08
   1151 08                 5849 	.db #0x08
   1152 08                 5850 	.db #0x08
   1153 08                 5851 	.db #0x08
   1154 08                 5852 	.db #0x08
   1155 08                 5853 	.db #0x08
   1156 08                 5854 	.db #0x08
   1157 08                 5855 	.db #0x08
   1158 08                 5856 	.db #0x08
   1159 08                 5857 	.db #0x08
   115A 06                 5858 	.db #0x06
   115B 00                 5859 	.db #0x00
   115C 00                 5860 	.db #0x00
   115D 04                 5861 	.db #0x04
   115E 08                 5862 	.db #0x08
   115F 08                 5863 	.db #0x08
   1160 08                 5864 	.db #0x08
   1161 08                 5865 	.db #0x08
   1162 08                 5866 	.db #0x08
   1163 08                 5867 	.db #0x08
   1164 08                 5868 	.db #0x08
   1165 08                 5869 	.db #0x08
   1166 08                 5870 	.db #0x08
   1167 08                 5871 	.db #0x08
   1168 08                 5872 	.db #0x08
   1169 08                 5873 	.db #0x08
   116A 08                 5874 	.db #0x08
   116B 08                 5875 	.db #0x08
   116C 08                 5876 	.db #0x08
   116D 08                 5877 	.db #0x08
   116E 06                 5878 	.db #0x06
   116F 00                 5879 	.db #0x00
   1170 00                 5880 	.db #0x00
   1171 04                 5881 	.db #0x04
   1172 08                 5882 	.db #0x08
   1173 08                 5883 	.db #0x08
   1174 08                 5884 	.db #0x08
   1175 08                 5885 	.db #0x08
   1176 08                 5886 	.db #0x08
   1177 08                 5887 	.db #0x08
   1178 08                 5888 	.db #0x08
   1179 08                 5889 	.db #0x08
   117A 08                 5890 	.db #0x08
   117B 08                 5891 	.db #0x08
   117C 08                 5892 	.db #0x08
   117D 08                 5893 	.db #0x08
   117E 08                 5894 	.db #0x08
   117F 08                 5895 	.db #0x08
   1180 08                 5896 	.db #0x08
   1181 08                 5897 	.db #0x08
   1182 06                 5898 	.db #0x06
   1183 00                 5899 	.db #0x00
   1184 00                 5900 	.db #0x00
   1185 04                 5901 	.db #0x04
   1186 08                 5902 	.db #0x08
   1187 08                 5903 	.db #0x08
   1188 08                 5904 	.db #0x08
   1189 08                 5905 	.db #0x08
   118A 08                 5906 	.db #0x08
   118B 08                 5907 	.db #0x08
   118C 08                 5908 	.db #0x08
   118D 08                 5909 	.db #0x08
   118E 08                 5910 	.db #0x08
   118F 08                 5911 	.db #0x08
   1190 08                 5912 	.db #0x08
   1191 08                 5913 	.db #0x08
   1192 08                 5914 	.db #0x08
   1193 08                 5915 	.db #0x08
   1194 08                 5916 	.db #0x08
   1195 08                 5917 	.db #0x08
   1196 06                 5918 	.db #0x06
   1197 00                 5919 	.db #0x00
   1198 00                 5920 	.db #0x00
   1199 04                 5921 	.db #0x04
   119A 08                 5922 	.db #0x08
   119B 08                 5923 	.db #0x08
   119C 08                 5924 	.db #0x08
   119D 08                 5925 	.db #0x08
   119E 08                 5926 	.db #0x08
   119F 08                 5927 	.db #0x08
   11A0 08                 5928 	.db #0x08
   11A1 08                 5929 	.db #0x08
   11A2 08                 5930 	.db #0x08
   11A3 08                 5931 	.db #0x08
   11A4 08                 5932 	.db #0x08
   11A5 08                 5933 	.db #0x08
   11A6 08                 5934 	.db #0x08
   11A7 08                 5935 	.db #0x08
   11A8 08                 5936 	.db #0x08
   11A9 08                 5937 	.db #0x08
   11AA 06                 5938 	.db #0x06
   11AB 00                 5939 	.db #0x00
   11AC 00                 5940 	.db #0x00
   11AD 04                 5941 	.db #0x04
   11AE 08                 5942 	.db #0x08
   11AF 08                 5943 	.db #0x08
   11B0 08                 5944 	.db #0x08
   11B1 08                 5945 	.db #0x08
   11B2 08                 5946 	.db #0x08
   11B3 08                 5947 	.db #0x08
   11B4 08                 5948 	.db #0x08
   11B5 08                 5949 	.db #0x08
   11B6 08                 5950 	.db #0x08
   11B7 08                 5951 	.db #0x08
   11B8 08                 5952 	.db #0x08
   11B9 08                 5953 	.db #0x08
   11BA 08                 5954 	.db #0x08
   11BB 08                 5955 	.db #0x08
   11BC 08                 5956 	.db #0x08
   11BD 08                 5957 	.db #0x08
   11BE 06                 5958 	.db #0x06
   11BF 00                 5959 	.db #0x00
   11C0 00                 5960 	.db #0x00
   11C1 04                 5961 	.db #0x04
   11C2 08                 5962 	.db #0x08
   11C3 08                 5963 	.db #0x08
   11C4 08                 5964 	.db #0x08
   11C5 08                 5965 	.db #0x08
   11C6 08                 5966 	.db #0x08
   11C7 08                 5967 	.db #0x08
   11C8 08                 5968 	.db #0x08
   11C9 08                 5969 	.db #0x08
   11CA 08                 5970 	.db #0x08
   11CB 08                 5971 	.db #0x08
   11CC 08                 5972 	.db #0x08
   11CD 08                 5973 	.db #0x08
   11CE 08                 5974 	.db #0x08
   11CF 08                 5975 	.db #0x08
   11D0 08                 5976 	.db #0x08
   11D1 08                 5977 	.db #0x08
   11D2 06                 5978 	.db #0x06
   11D3 00                 5979 	.db #0x00
   11D4 00                 5980 	.db #0x00
   11D5 09                 5981 	.db #0x09
   11D6 0A                 5982 	.db #0x0A
   11D7 0A                 5983 	.db #0x0A
   11D8 0A                 5984 	.db #0x0A
   11D9 0A                 5985 	.db #0x0A
   11DA 0A                 5986 	.db #0x0A
   11DB 0A                 5987 	.db #0x0A
   11DC 0B                 5988 	.db #0x0B
   11DD 0C                 5989 	.db #0x0C
   11DE 0C                 5990 	.db #0x0C
   11DF 0D                 5991 	.db #0x0D
   11E0 0A                 5992 	.db #0x0A
   11E1 0A                 5993 	.db #0x0A
   11E2 0A                 5994 	.db #0x0A
   11E3 0A                 5995 	.db #0x0A
   11E4 0A                 5996 	.db #0x0A
   11E5 0A                 5997 	.db #0x0A
   11E6 0E                 5998 	.db #0x0E
   11E7 00                 5999 	.db #0x00
   11E8 00                 6000 	.db #0x00
   11E9 00                 6001 	.db #0x00
   11EA 00                 6002 	.db #0x00
   11EB 00                 6003 	.db #0x00
   11EC 00                 6004 	.db #0x00
   11ED 00                 6005 	.db #0x00
   11EE 00                 6006 	.db #0x00
   11EF 00                 6007 	.db #0x00
   11F0 00                 6008 	.db #0x00
   11F1 00                 6009 	.db #0x00
   11F2 00                 6010 	.db #0x00
   11F3 00                 6011 	.db #0x00
   11F4 00                 6012 	.db #0x00
   11F5 00                 6013 	.db #0x00
   11F6 00                 6014 	.db #0x00
   11F7 00                 6015 	.db #0x00
   11F8 00                 6016 	.db #0x00
   11F9 00                 6017 	.db #0x00
   11FA 00                 6018 	.db #0x00
   11FB 00                 6019 	.db #0x00
   11FC 00                 6020 	.db #0x00
   11FD 00                 6021 	.db #0x00
   11FE 00                 6022 	.db #0x00
   11FF 00                 6023 	.db #0x00
   1200 00                 6024 	.db #0x00
   1201 00                 6025 	.db #0x00
   1202 00                 6026 	.db #0x00
   1203 00                 6027 	.db #0x00
   1204 00                 6028 	.db #0x00
   1205 00                 6029 	.db #0x00
   1206 00                 6030 	.db #0x00
   1207 00                 6031 	.db #0x00
   1208 00                 6032 	.db #0x00
   1209 00                 6033 	.db #0x00
   120A 00                 6034 	.db #0x00
   120B 00                 6035 	.db #0x00
   120C 00                 6036 	.db #0x00
   120D 00                 6037 	.db #0x00
   120E 00                 6038 	.db #0x00
   120F 00                 6039 	.db #0x00
   1210                    6040 _room_top_map:
   1210 00                 6041 	.db #0x00
   1211 00                 6042 	.db #0x00
   1212 00                 6043 	.db #0x00
   1213 00                 6044 	.db #0x00
   1214 00                 6045 	.db #0x00
   1215 00                 6046 	.db #0x00
   1216 00                 6047 	.db #0x00
   1217 00                 6048 	.db #0x00
   1218 00                 6049 	.db #0x00
   1219 00                 6050 	.db #0x00
   121A 00                 6051 	.db #0x00
   121B 00                 6052 	.db #0x00
   121C 00                 6053 	.db #0x00
   121D 00                 6054 	.db #0x00
   121E 00                 6055 	.db #0x00
   121F 00                 6056 	.db #0x00
   1220 00                 6057 	.db #0x00
   1221 00                 6058 	.db #0x00
   1222 00                 6059 	.db #0x00
   1223 00                 6060 	.db #0x00
   1224 00                 6061 	.db #0x00
   1225 00                 6062 	.db #0x00
   1226 00                 6063 	.db #0x00
   1227 00                 6064 	.db #0x00
   1228 00                 6065 	.db #0x00
   1229 00                 6066 	.db #0x00
   122A 00                 6067 	.db #0x00
   122B 00                 6068 	.db #0x00
   122C 00                 6069 	.db #0x00
   122D 00                 6070 	.db #0x00
   122E 00                 6071 	.db #0x00
   122F 00                 6072 	.db #0x00
   1230 00                 6073 	.db #0x00
   1231 00                 6074 	.db #0x00
   1232 00                 6075 	.db #0x00
   1233 00                 6076 	.db #0x00
   1234 00                 6077 	.db #0x00
   1235 00                 6078 	.db #0x00
   1236 00                 6079 	.db #0x00
   1237 00                 6080 	.db #0x00
   1238 00                 6081 	.db #0x00
   1239 01                 6082 	.db #0x01
   123A 02                 6083 	.db #0x02
   123B 02                 6084 	.db #0x02
   123C 02                 6085 	.db #0x02
   123D 02                 6086 	.db #0x02
   123E 02                 6087 	.db #0x02
   123F 02                 6088 	.db #0x02
   1240 03                 6089 	.db #0x03
   1241 04                 6090 	.db #0x04
   1242 04                 6091 	.db #0x04
   1243 05                 6092 	.db #0x05
   1244 02                 6093 	.db #0x02
   1245 02                 6094 	.db #0x02
   1246 02                 6095 	.db #0x02
   1247 02                 6096 	.db #0x02
   1248 02                 6097 	.db #0x02
   1249 02                 6098 	.db #0x02
   124A 06                 6099 	.db #0x06
   124B 00                 6100 	.db #0x00
   124C 00                 6101 	.db #0x00
   124D 07                 6102 	.db #0x07
   124E 08                 6103 	.db #0x08
   124F 08                 6104 	.db #0x08
   1250 08                 6105 	.db #0x08
   1251 08                 6106 	.db #0x08
   1252 08                 6107 	.db #0x08
   1253 08                 6108 	.db #0x08
   1254 08                 6109 	.db #0x08
   1255 08                 6110 	.db #0x08
   1256 08                 6111 	.db #0x08
   1257 08                 6112 	.db #0x08
   1258 08                 6113 	.db #0x08
   1259 08                 6114 	.db #0x08
   125A 08                 6115 	.db #0x08
   125B 08                 6116 	.db #0x08
   125C 08                 6117 	.db #0x08
   125D 08                 6118 	.db #0x08
   125E 09                 6119 	.db #0x09
   125F 00                 6120 	.db #0x00
   1260 00                 6121 	.db #0x00
   1261 07                 6122 	.db #0x07
   1262 08                 6123 	.db #0x08
   1263 08                 6124 	.db #0x08
   1264 08                 6125 	.db #0x08
   1265 08                 6126 	.db #0x08
   1266 08                 6127 	.db #0x08
   1267 08                 6128 	.db #0x08
   1268 08                 6129 	.db #0x08
   1269 08                 6130 	.db #0x08
   126A 08                 6131 	.db #0x08
   126B 08                 6132 	.db #0x08
   126C 08                 6133 	.db #0x08
   126D 08                 6134 	.db #0x08
   126E 08                 6135 	.db #0x08
   126F 08                 6136 	.db #0x08
   1270 08                 6137 	.db #0x08
   1271 08                 6138 	.db #0x08
   1272 09                 6139 	.db #0x09
   1273 00                 6140 	.db #0x00
   1274 00                 6141 	.db #0x00
   1275 07                 6142 	.db #0x07
   1276 08                 6143 	.db #0x08
   1277 08                 6144 	.db #0x08
   1278 08                 6145 	.db #0x08
   1279 08                 6146 	.db #0x08
   127A 08                 6147 	.db #0x08
   127B 08                 6148 	.db #0x08
   127C 08                 6149 	.db #0x08
   127D 08                 6150 	.db #0x08
   127E 08                 6151 	.db #0x08
   127F 08                 6152 	.db #0x08
   1280 08                 6153 	.db #0x08
   1281 08                 6154 	.db #0x08
   1282 08                 6155 	.db #0x08
   1283 08                 6156 	.db #0x08
   1284 08                 6157 	.db #0x08
   1285 08                 6158 	.db #0x08
   1286 09                 6159 	.db #0x09
   1287 00                 6160 	.db #0x00
   1288 00                 6161 	.db #0x00
   1289 07                 6162 	.db #0x07
   128A 08                 6163 	.db #0x08
   128B 08                 6164 	.db #0x08
   128C 08                 6165 	.db #0x08
   128D 08                 6166 	.db #0x08
   128E 08                 6167 	.db #0x08
   128F 08                 6168 	.db #0x08
   1290 08                 6169 	.db #0x08
   1291 08                 6170 	.db #0x08
   1292 08                 6171 	.db #0x08
   1293 08                 6172 	.db #0x08
   1294 08                 6173 	.db #0x08
   1295 08                 6174 	.db #0x08
   1296 08                 6175 	.db #0x08
   1297 08                 6176 	.db #0x08
   1298 08                 6177 	.db #0x08
   1299 08                 6178 	.db #0x08
   129A 09                 6179 	.db #0x09
   129B 00                 6180 	.db #0x00
   129C 00                 6181 	.db #0x00
   129D 07                 6182 	.db #0x07
   129E 08                 6183 	.db #0x08
   129F 08                 6184 	.db #0x08
   12A0 08                 6185 	.db #0x08
   12A1 08                 6186 	.db #0x08
   12A2 08                 6187 	.db #0x08
   12A3 08                 6188 	.db #0x08
   12A4 08                 6189 	.db #0x08
   12A5 08                 6190 	.db #0x08
   12A6 08                 6191 	.db #0x08
   12A7 08                 6192 	.db #0x08
   12A8 08                 6193 	.db #0x08
   12A9 08                 6194 	.db #0x08
   12AA 08                 6195 	.db #0x08
   12AB 08                 6196 	.db #0x08
   12AC 08                 6197 	.db #0x08
   12AD 08                 6198 	.db #0x08
   12AE 09                 6199 	.db #0x09
   12AF 00                 6200 	.db #0x00
   12B0 00                 6201 	.db #0x00
   12B1 07                 6202 	.db #0x07
   12B2 08                 6203 	.db #0x08
   12B3 08                 6204 	.db #0x08
   12B4 08                 6205 	.db #0x08
   12B5 08                 6206 	.db #0x08
   12B6 08                 6207 	.db #0x08
   12B7 08                 6208 	.db #0x08
   12B8 08                 6209 	.db #0x08
   12B9 08                 6210 	.db #0x08
   12BA 08                 6211 	.db #0x08
   12BB 08                 6212 	.db #0x08
   12BC 08                 6213 	.db #0x08
   12BD 08                 6214 	.db #0x08
   12BE 08                 6215 	.db #0x08
   12BF 08                 6216 	.db #0x08
   12C0 08                 6217 	.db #0x08
   12C1 08                 6218 	.db #0x08
   12C2 09                 6219 	.db #0x09
   12C3 00                 6220 	.db #0x00
   12C4 00                 6221 	.db #0x00
   12C5 07                 6222 	.db #0x07
   12C6 08                 6223 	.db #0x08
   12C7 08                 6224 	.db #0x08
   12C8 08                 6225 	.db #0x08
   12C9 08                 6226 	.db #0x08
   12CA 08                 6227 	.db #0x08
   12CB 08                 6228 	.db #0x08
   12CC 08                 6229 	.db #0x08
   12CD 08                 6230 	.db #0x08
   12CE 08                 6231 	.db #0x08
   12CF 08                 6232 	.db #0x08
   12D0 08                 6233 	.db #0x08
   12D1 08                 6234 	.db #0x08
   12D2 08                 6235 	.db #0x08
   12D3 08                 6236 	.db #0x08
   12D4 08                 6237 	.db #0x08
   12D5 08                 6238 	.db #0x08
   12D6 09                 6239 	.db #0x09
   12D7 00                 6240 	.db #0x00
   12D8 00                 6241 	.db #0x00
   12D9 07                 6242 	.db #0x07
   12DA 08                 6243 	.db #0x08
   12DB 08                 6244 	.db #0x08
   12DC 08                 6245 	.db #0x08
   12DD 08                 6246 	.db #0x08
   12DE 08                 6247 	.db #0x08
   12DF 08                 6248 	.db #0x08
   12E0 08                 6249 	.db #0x08
   12E1 08                 6250 	.db #0x08
   12E2 08                 6251 	.db #0x08
   12E3 08                 6252 	.db #0x08
   12E4 08                 6253 	.db #0x08
   12E5 08                 6254 	.db #0x08
   12E6 08                 6255 	.db #0x08
   12E7 08                 6256 	.db #0x08
   12E8 08                 6257 	.db #0x08
   12E9 08                 6258 	.db #0x08
   12EA 09                 6259 	.db #0x09
   12EB 00                 6260 	.db #0x00
   12EC 00                 6261 	.db #0x00
   12ED 07                 6262 	.db #0x07
   12EE 08                 6263 	.db #0x08
   12EF 08                 6264 	.db #0x08
   12F0 08                 6265 	.db #0x08
   12F1 08                 6266 	.db #0x08
   12F2 08                 6267 	.db #0x08
   12F3 08                 6268 	.db #0x08
   12F4 08                 6269 	.db #0x08
   12F5 08                 6270 	.db #0x08
   12F6 08                 6271 	.db #0x08
   12F7 08                 6272 	.db #0x08
   12F8 08                 6273 	.db #0x08
   12F9 08                 6274 	.db #0x08
   12FA 08                 6275 	.db #0x08
   12FB 08                 6276 	.db #0x08
   12FC 08                 6277 	.db #0x08
   12FD 08                 6278 	.db #0x08
   12FE 09                 6279 	.db #0x09
   12FF 00                 6280 	.db #0x00
   1300 00                 6281 	.db #0x00
   1301 07                 6282 	.db #0x07
   1302 08                 6283 	.db #0x08
   1303 08                 6284 	.db #0x08
   1304 08                 6285 	.db #0x08
   1305 08                 6286 	.db #0x08
   1306 08                 6287 	.db #0x08
   1307 08                 6288 	.db #0x08
   1308 08                 6289 	.db #0x08
   1309 08                 6290 	.db #0x08
   130A 08                 6291 	.db #0x08
   130B 08                 6292 	.db #0x08
   130C 08                 6293 	.db #0x08
   130D 08                 6294 	.db #0x08
   130E 08                 6295 	.db #0x08
   130F 08                 6296 	.db #0x08
   1310 08                 6297 	.db #0x08
   1311 08                 6298 	.db #0x08
   1312 09                 6299 	.db #0x09
   1313 00                 6300 	.db #0x00
   1314 00                 6301 	.db #0x00
   1315 07                 6302 	.db #0x07
   1316 08                 6303 	.db #0x08
   1317 08                 6304 	.db #0x08
   1318 08                 6305 	.db #0x08
   1319 08                 6306 	.db #0x08
   131A 08                 6307 	.db #0x08
   131B 08                 6308 	.db #0x08
   131C 08                 6309 	.db #0x08
   131D 08                 6310 	.db #0x08
   131E 08                 6311 	.db #0x08
   131F 08                 6312 	.db #0x08
   1320 08                 6313 	.db #0x08
   1321 08                 6314 	.db #0x08
   1322 08                 6315 	.db #0x08
   1323 08                 6316 	.db #0x08
   1324 08                 6317 	.db #0x08
   1325 08                 6318 	.db #0x08
   1326 09                 6319 	.db #0x09
   1327 00                 6320 	.db #0x00
   1328 00                 6321 	.db #0x00
   1329 07                 6322 	.db #0x07
   132A 0A                 6323 	.db #0x0A
   132B 0A                 6324 	.db #0x0A
   132C 0A                 6325 	.db #0x0A
   132D 0A                 6326 	.db #0x0A
   132E 0A                 6327 	.db #0x0A
   132F 0A                 6328 	.db #0x0A
   1330 0A                 6329 	.db #0x0A
   1331 0A                 6330 	.db #0x0A
   1332 0A                 6331 	.db #0x0A
   1333 0A                 6332 	.db #0x0A
   1334 0A                 6333 	.db #0x0A
   1335 0A                 6334 	.db #0x0A
   1336 0A                 6335 	.db #0x0A
   1337 0A                 6336 	.db #0x0A
   1338 0A                 6337 	.db #0x0A
   1339 0A                 6338 	.db #0x0A
   133A 09                 6339 	.db #0x09
   133B 00                 6340 	.db #0x00
   133C 00                 6341 	.db #0x00
   133D 07                 6342 	.db #0x07
   133E 0B                 6343 	.db #0x0B
   133F 0B                 6344 	.db #0x0B
   1340 0B                 6345 	.db #0x0B
   1341 0B                 6346 	.db #0x0B
   1342 0B                 6347 	.db #0x0B
   1343 0B                 6348 	.db #0x0B
   1344 0B                 6349 	.db #0x0B
   1345 0B                 6350 	.db #0x0B
   1346 0B                 6351 	.db #0x0B
   1347 0B                 6352 	.db #0x0B
   1348 0B                 6353 	.db #0x0B
   1349 0B                 6354 	.db #0x0B
   134A 0B                 6355 	.db #0x0B
   134B 0B                 6356 	.db #0x0B
   134C 0B                 6357 	.db #0x0B
   134D 0B                 6358 	.db #0x0B
   134E 09                 6359 	.db #0x09
   134F 00                 6360 	.db #0x00
   1350 00                 6361 	.db #0x00
   1351 0C                 6362 	.db #0x0C
   1352 0D                 6363 	.db #0x0D
   1353 0D                 6364 	.db #0x0D
   1354 0D                 6365 	.db #0x0D
   1355 0D                 6366 	.db #0x0D
   1356 0D                 6367 	.db #0x0D
   1357 0D                 6368 	.db #0x0D
   1358 0D                 6369 	.db #0x0D
   1359 0D                 6370 	.db #0x0D
   135A 0D                 6371 	.db #0x0D
   135B 0D                 6372 	.db #0x0D
   135C 0D                 6373 	.db #0x0D
   135D 0D                 6374 	.db #0x0D
   135E 0D                 6375 	.db #0x0D
   135F 0D                 6376 	.db #0x0D
   1360 0D                 6377 	.db #0x0D
   1361 0D                 6378 	.db #0x0D
   1362 0E                 6379 	.db #0x0E
   1363 00                 6380 	.db #0x00
   1364 00                 6381 	.db #0x00
   1365 00                 6382 	.db #0x00
   1366 00                 6383 	.db #0x00
   1367 00                 6384 	.db #0x00
   1368 00                 6385 	.db #0x00
   1369 00                 6386 	.db #0x00
   136A 00                 6387 	.db #0x00
   136B 00                 6388 	.db #0x00
   136C 00                 6389 	.db #0x00
   136D 00                 6390 	.db #0x00
   136E 00                 6391 	.db #0x00
   136F 00                 6392 	.db #0x00
   1370 00                 6393 	.db #0x00
   1371 00                 6394 	.db #0x00
   1372 00                 6395 	.db #0x00
   1373 00                 6396 	.db #0x00
   1374 00                 6397 	.db #0x00
   1375 00                 6398 	.db #0x00
   1376 00                 6399 	.db #0x00
   1377 00                 6400 	.db #0x00
   1378                    6401 _wall:
   1378 00                 6402 	.db #0x00
   1379                    6403 _rooms:
   1379 50 0E              6404 	.dw _room_top_data
   137B 10 12              6405 	.dw _room_top_map
   137D 0F                 6406 	.db #0x0F
   137E 04                 6407 	.db #0x04
   137F 03                 6408 	.db #0x03
   1380 30 0C              6409 	.dw _room_middle_data
   1382 40 0F              6410 	.dw _room_middle_map
   1384 13                 6411 	.db #0x13
   1385 04                 6412 	.db #0x04
   1386 11                 6413 	.db #0x11
   1387 60 0D              6414 	.dw _room_bottom_data
   1389 A8 10              6415 	.dw _room_bottom_map
   138B 0F                 6416 	.db #0x0F
   138C 0C                 6417 	.db #0x0C
   138D 00                 6418 	.db #0x00
   138E                    6419 _CPU_info:
   138E 00                 6420 	.db #0x00
   138F 01                 6421 	.db #0x01
   1390 02                 6422 	.db #0x02
   1391 03                 6423 	.db #0x03
   1392 78                 6424 	.db #0x78
   1393 32                 6425 	.db #0x32
   1394 00 00              6426 	.dw #0x0000
   1396 01                 6427 	.db #0x01
   1397 C8 1C              6428 	.dw _str_1
   1399 00                 6429 	.db #0x00
   139A 00                 6430 	.db #0x00
   139B 01                 6431 	.db #0x01
   139C 02                 6432 	.db #0x02
   139D 03                 6433 	.db #0x03
   139E 50                 6434 	.db #0x50
   139F 4E                 6435 	.db #0x4E
   13A0 00 00              6436 	.dw #0x0000
   13A2 01                 6437 	.db #0x01
   13A3 DA 1C              6438 	.dw _str_2
   13A5 01                 6439 	.db #0x01
   13A6 00                 6440 	.db #0x00
   13A7 01                 6441 	.db #0x01
   13A8 02                 6442 	.db #0x02
   13A9 03                 6443 	.db #0x03
   13AA 78                 6444 	.db #0x78
   13AB 32                 6445 	.db #0x32
   13AC 00 00              6446 	.dw #0x0000
   13AE 01                 6447 	.db #0x01
   13AF E8 1C              6448 	.dw _str_3
   13B1 01                 6449 	.db #0x01
   13B2 00                 6450 	.db #0x00
   13B3 01                 6451 	.db #0x01
   13B4 02                 6452 	.db #0x02
   13B5 03                 6453 	.db #0x03
   13B6 50                 6454 	.db #0x50
   13B7 46                 6455 	.db #0x46
   13B8 00 00              6456 	.dw #0x0000
   13BA 01                 6457 	.db #0x01
   13BB FB 1C              6458 	.dw _str_4
   13BD 01                 6459 	.db #0x01
   13BE 04                 6460 	.db #0x04
   13BF                    6461 _ElementalTypes:
   13BF 00                 6462 	.db #0x00
   13C0 46 69 72 65        6463 	.ascii "Fire"
   13C4 00                 6464 	.db 0x00
   13C5 00                 6465 	.db 0x00
   13C6 00                 6466 	.db 0x00
   13C7 00                 6467 	.db 0x00
   13C8 00                 6468 	.db 0x00
   13C9 00                 6469 	.db 0x00
   13CA 00                 6470 	.db 0x00
   13CB 00                 6471 	.db 0x00
   13CC 00                 6472 	.db 0x00
   13CD 00                 6473 	.db 0x00
   13CE 00                 6474 	.db 0x00
   13CF 00                 6475 	.db 0x00
   13D0 00                 6476 	.db 0x00
   13D1 00                 6477 	.db 0x00
   13D2 00                 6478 	.db 0x00
   13D3 00                 6479 	.db 0x00
   13D4 32 00              6480 	.dw #0x0032
   13D6 96 00              6481 	.dw #0x0096
   13D8 32 00              6482 	.dw #0x0032
   13DA 64 00              6483 	.dw #0x0064
   13DC 96 00              6484 	.dw #0x0096
   13DE 00 00              6485 	.dw #0x0000
   13E0 64 00              6486 	.dw #0x0064
   13E2 01                 6487 	.db #0x01
   13E3 4E 61 74 75 72 65  6488 	.ascii "Nature"
   13E9 00                 6489 	.db 0x00
   13EA 00                 6490 	.db 0x00
   13EB 00                 6491 	.db 0x00
   13EC 00                 6492 	.db 0x00
   13ED 00                 6493 	.db 0x00
   13EE 00                 6494 	.db 0x00
   13EF 00                 6495 	.db 0x00
   13F0 00                 6496 	.db 0x00
   13F1 00                 6497 	.db 0x00
   13F2 00                 6498 	.db 0x00
   13F3 00                 6499 	.db 0x00
   13F4 00                 6500 	.db 0x00
   13F5 00                 6501 	.db 0x00
   13F6 00                 6502 	.db 0x00
   13F7 00 00              6503 	.dw #0x0000
   13F9 32 00              6504 	.dw #0x0032
   13FB 96 00              6505 	.dw #0x0096
   13FD 96 00              6506 	.dw #0x0096
   13FF 32 00              6507 	.dw #0x0032
   1401 64 00              6508 	.dw #0x0064
   1403 64 00              6509 	.dw #0x0064
   1405 02                 6510 	.db #0x02
   1406 45 61 72 74 68     6511 	.ascii "Earth"
   140B 00                 6512 	.db 0x00
   140C 00                 6513 	.db 0x00
   140D 00                 6514 	.db 0x00
   140E 00                 6515 	.db 0x00
   140F 00                 6516 	.db 0x00
   1410 00                 6517 	.db 0x00
   1411 00                 6518 	.db 0x00
   1412 00                 6519 	.db 0x00
   1413 00                 6520 	.db 0x00
   1414 00                 6521 	.db 0x00
   1415 00                 6522 	.db 0x00
   1416 00                 6523 	.db 0x00
   1417 00                 6524 	.db 0x00
   1418 00                 6525 	.db 0x00
   1419 00                 6526 	.db 0x00
   141A 96 00              6527 	.dw #0x0096
   141C 00 00              6528 	.dw #0x0000
   141E 32 00              6529 	.dw #0x0032
   1420 96 00              6530 	.dw #0x0096
   1422 64 00              6531 	.dw #0x0064
   1424 32 00              6532 	.dw #0x0032
   1426 64 00              6533 	.dw #0x0064
   1428 03                 6534 	.db #0x03
   1429 54 68 75 6E 64 65  6535 	.ascii "Thunder"
        72
   1430 00                 6536 	.db 0x00
   1431 00                 6537 	.db 0x00
   1432 00                 6538 	.db 0x00
   1433 00                 6539 	.db 0x00
   1434 00                 6540 	.db 0x00
   1435 00                 6541 	.db 0x00
   1436 00                 6542 	.db 0x00
   1437 00                 6543 	.db 0x00
   1438 00                 6544 	.db 0x00
   1439 00                 6545 	.db 0x00
   143A 00                 6546 	.db 0x00
   143B 00                 6547 	.db 0x00
   143C 00                 6548 	.db 0x00
   143D 64 00              6549 	.dw #0x0064
   143F 32 00              6550 	.dw #0x0032
   1441 00 00              6551 	.dw #0x0000
   1443 32 00              6552 	.dw #0x0032
   1445 96 00              6553 	.dw #0x0096
   1447 96 00              6554 	.dw #0x0096
   1449 64 00              6555 	.dw #0x0064
   144B 04                 6556 	.db #0x04
   144C 41 69 72           6557 	.ascii "Air"
   144F 00                 6558 	.db 0x00
   1450 00                 6559 	.db 0x00
   1451 00                 6560 	.db 0x00
   1452 00                 6561 	.db 0x00
   1453 00                 6562 	.db 0x00
   1454 00                 6563 	.db 0x00
   1455 00                 6564 	.db 0x00
   1456 00                 6565 	.db 0x00
   1457 00                 6566 	.db 0x00
   1458 00                 6567 	.db 0x00
   1459 00                 6568 	.db 0x00
   145A 00                 6569 	.db 0x00
   145B 00                 6570 	.db 0x00
   145C 00                 6571 	.db 0x00
   145D 00                 6572 	.db 0x00
   145E 00                 6573 	.db 0x00
   145F 00                 6574 	.db 0x00
   1460 32 00              6575 	.dw #0x0032
   1462 96 00              6576 	.dw #0x0096
   1464 64 00              6577 	.dw #0x0064
   1466 00 00              6578 	.dw #0x0000
   1468 32 00              6579 	.dw #0x0032
   146A 96 00              6580 	.dw #0x0096
   146C 64 00              6581 	.dw #0x0064
   146E 05                 6582 	.db #0x05
   146F 57 61 74 65 72     6583 	.ascii "Water"
   1474 00                 6584 	.db 0x00
   1475 00                 6585 	.db 0x00
   1476 00                 6586 	.db 0x00
   1477 00                 6587 	.db 0x00
   1478 00                 6588 	.db 0x00
   1479 00                 6589 	.db 0x00
   147A 00                 6590 	.db 0x00
   147B 00                 6591 	.db 0x00
   147C 00                 6592 	.db 0x00
   147D 00                 6593 	.db 0x00
   147E 00                 6594 	.db 0x00
   147F 00                 6595 	.db 0x00
   1480 00                 6596 	.db 0x00
   1481 00                 6597 	.db 0x00
   1482 00                 6598 	.db 0x00
   1483 96 00              6599 	.dw #0x0096
   1485 64 00              6600 	.dw #0x0064
   1487 96 00              6601 	.dw #0x0096
   1489 32 00              6602 	.dw #0x0032
   148B 00 00              6603 	.dw #0x0000
   148D 32 00              6604 	.dw #0x0032
   148F 64 00              6605 	.dw #0x0064
   1491 06                 6606 	.db #0x06
   1492 4E 6F 20 54 79 70  6607 	.ascii "No Type"
        65
   1499 00                 6608 	.db 0x00
   149A 00                 6609 	.db 0x00
   149B 00                 6610 	.db 0x00
   149C 00                 6611 	.db 0x00
   149D 00                 6612 	.db 0x00
   149E 00                 6613 	.db 0x00
   149F 00                 6614 	.db 0x00
   14A0 00                 6615 	.db 0x00
   14A1 00                 6616 	.db 0x00
   14A2 00                 6617 	.db 0x00
   14A3 00                 6618 	.db 0x00
   14A4 00                 6619 	.db 0x00
   14A5 00                 6620 	.db 0x00
   14A6 64 00              6621 	.dw #0x0064
   14A8 64 00              6622 	.dw #0x0064
   14AA 64 00              6623 	.dw #0x0064
   14AC 64 00              6624 	.dw #0x0064
   14AE 64 00              6625 	.dw #0x0064
   14B0 64 00              6626 	.dw #0x0064
   14B2 64 00              6627 	.dw #0x0064
   14B4                    6628 _monsters:
   14B4 43 68 61 72 6D 61  6629 	.ascii "Charmander"
        6E 64 65 72
   14BE 00                 6630 	.db 0x00
   14BF 00                 6631 	.db 0x00
   14C0 00                 6632 	.db 0x00
   14C1 00                 6633 	.db 0x00
   14C2 00                 6634 	.db 0x00
   14C3 00                 6635 	.db 0x00
   14C4 00                 6636 	.db 0x00
   14C5 00                 6637 	.db 0x00
   14C6 00                 6638 	.db 0x00
   14C7 00                 6639 	.db 0x00
   14C8 00                 6640 	.db #0x00
   14C9 04                 6641 	.db #0x04
   14CA 00                 6642 	.db #0x00
   14CB 01                 6643 	.db #0x01
   14CC 03                 6644 	.db #0x03
   14CD 06                 6645 	.db #0x06
   14CE 64 00              6646 	.dw #0x0064
   14D0 32 00              6647 	.dw #0x0032
   14D2 46 00              6648 	.dw #0x0046
   14D4 1E 00              6649 	.dw #0x001E
   14D6 53 71 75 69 72 74  6650 	.ascii "Squirtle"
        6C 65
   14DE 00                 6651 	.db 0x00
   14DF 00                 6652 	.db 0x00
   14E0 00                 6653 	.db 0x00
   14E1 00                 6654 	.db 0x00
   14E2 00                 6655 	.db 0x00
   14E3 00                 6656 	.db 0x00
   14E4 00                 6657 	.db 0x00
   14E5 00                 6658 	.db 0x00
   14E6 00                 6659 	.db 0x00
   14E7 00                 6660 	.db 0x00
   14E8 00                 6661 	.db 0x00
   14E9 00                 6662 	.db 0x00
   14EA 05                 6663 	.db #0x05
   14EB 05                 6664 	.db #0x05
   14EC 04                 6665 	.db #0x04
   14ED 0D                 6666 	.db #0x0D
   14EE 0A                 6667 	.db #0x0A
   14EF 0E                 6668 	.db #0x0E
   14F0 78 00              6669 	.dw #0x0078
   14F2 28 00              6670 	.dw #0x0028
   14F4 3C 00              6671 	.dw #0x003C
   14F6 32 00              6672 	.dw #0x0032
   14F8 42 75 6C 62 61 73  6673 	.ascii "Bulbasaur"
        61 75 72
   1501 00                 6674 	.db 0x00
   1502 00                 6675 	.db 0x00
   1503 00                 6676 	.db 0x00
   1504 00                 6677 	.db 0x00
   1505 00                 6678 	.db 0x00
   1506 00                 6679 	.db 0x00
   1507 00                 6680 	.db 0x00
   1508 00                 6681 	.db 0x00
   1509 00                 6682 	.db 0x00
   150A 00                 6683 	.db 0x00
   150B 00                 6684 	.db 0x00
   150C 01                 6685 	.db #0x01
   150D 01                 6686 	.db #0x01
   150E 08                 6687 	.db #0x08
   150F 0C                 6688 	.db #0x0C
   1510 02                 6689 	.db #0x02
   1511 06                 6690 	.db #0x06
   1512 6E 00              6691 	.dw #0x006E
   1514 3C 00              6692 	.dw #0x003C
   1516 28 00              6693 	.dw #0x0028
   1518 28 00              6694 	.dw #0x0028
   151A 44 72 61 67 6F 6E  6695 	.ascii "Dragonite"
        69 74 65
   1523 00                 6696 	.db 0x00
   1524 00                 6697 	.db 0x00
   1525 00                 6698 	.db 0x00
   1526 00                 6699 	.db 0x00
   1527 00                 6700 	.db 0x00
   1528 00                 6701 	.db 0x00
   1529 00                 6702 	.db 0x00
   152A 00                 6703 	.db 0x00
   152B 00                 6704 	.db 0x00
   152C 00                 6705 	.db 0x00
   152D 00                 6706 	.db 0x00
   152E 00                 6707 	.db #0x00
   152F 04                 6708 	.db #0x04
   1530 10                 6709 	.db #0x10
   1531 14                 6710 	.db #0x14
   1532 0F                 6711 	.db #0x0F
   1533 06                 6712 	.db #0x06
   1534 96 00              6713 	.dw #0x0096
   1536 50 00              6714 	.dw #0x0050
   1538 5A 00              6715 	.dw #0x005A
   153A 3C 00              6716 	.dw #0x003C
   153C 41 6C 61 6B 61 7A  6717 	.ascii "Alakazam"
        61 6D
   1544 00                 6718 	.db 0x00
   1545 00                 6719 	.db 0x00
   1546 00                 6720 	.db 0x00
   1547 00                 6721 	.db 0x00
   1548 00                 6722 	.db 0x00
   1549 00                 6723 	.db 0x00
   154A 00                 6724 	.db 0x00
   154B 00                 6725 	.db 0x00
   154C 00                 6726 	.db 0x00
   154D 00                 6727 	.db 0x00
   154E 00                 6728 	.db 0x00
   154F 00                 6729 	.db 0x00
   1550 11                 6730 	.db #0x11
   1551 11                 6731 	.db #0x11
   1552 11                 6732 	.db #0x11
   1553 12                 6733 	.db #0x12
   1554 13                 6734 	.db #0x13
   1555 07                 6735 	.db #0x07
   1556 5A 00              6736 	.dw #0x005A
   1558 46 00              6737 	.dw #0x0046
   155A 64 00              6738 	.dw #0x0064
   155C 28 00              6739 	.dw #0x0028
   155E 47 61 72 64 65 76  6740 	.ascii "Gardevoir"
        6F 69 72
   1567 00                 6741 	.db 0x00
   1568 00                 6742 	.db 0x00
   1569 00                 6743 	.db 0x00
   156A 00                 6744 	.db 0x00
   156B 00                 6745 	.db 0x00
   156C 00                 6746 	.db 0x00
   156D 00                 6747 	.db 0x00
   156E 00                 6748 	.db 0x00
   156F 00                 6749 	.db 0x00
   1570 00                 6750 	.db 0x00
   1571 00                 6751 	.db 0x00
   1572 11                 6752 	.db #0x11
   1573 01                 6753 	.db #0x01
   1574 11                 6754 	.db #0x11
   1575 15                 6755 	.db #0x15
   1576 13                 6756 	.db #0x13
   1577 07                 6757 	.db #0x07
   1578 6E 00              6758 	.dw #0x006E
   157A 3C 00              6759 	.dw #0x003C
   157C 5A 00              6760 	.dw #0x005A
   157E 32 00              6761 	.dw #0x0032
   1580 43 68 61 72 69 7A  6762 	.ascii "Charizard"
        61 72 64
   1589 00                 6763 	.db 0x00
   158A 00                 6764 	.db 0x00
   158B 00                 6765 	.db 0x00
   158C 00                 6766 	.db 0x00
   158D 00                 6767 	.db 0x00
   158E 00                 6768 	.db 0x00
   158F 00                 6769 	.db 0x00
   1590 00                 6770 	.db 0x00
   1591 00                 6771 	.db 0x00
   1592 00                 6772 	.db 0x00
   1593 00                 6773 	.db 0x00
   1594 00                 6774 	.db #0x00
   1595 04                 6775 	.db #0x04
   1596 00                 6776 	.db #0x00
   1597 01                 6777 	.db #0x01
   1598 10                 6778 	.db #0x10
   1599 0F                 6779 	.db #0x0F
   159A B4 00              6780 	.dw #0x00B4
   159C 50 00              6781 	.dw #0x0050
   159E 46 00              6782 	.dw #0x0046
   15A0 32 00              6783 	.dw #0x0032
   15A2 42 6C 61 73 74 6F  6784 	.ascii "Blastoise"
        69 73 65
   15AB 00                 6785 	.db 0x00
   15AC 00                 6786 	.db 0x00
   15AD 00                 6787 	.db 0x00
   15AE 00                 6788 	.db 0x00
   15AF 00                 6789 	.db 0x00
   15B0 00                 6790 	.db 0x00
   15B1 00                 6791 	.db 0x00
   15B2 00                 6792 	.db 0x00
   15B3 00                 6793 	.db 0x00
   15B4 00                 6794 	.db 0x00
   15B5 00                 6795 	.db 0x00
   15B6 05                 6796 	.db #0x05
   15B7 02                 6797 	.db #0x02
   15B8 0D                 6798 	.db #0x0D
   15B9 0A                 6799 	.db #0x0A
   15BA 0E                 6800 	.db #0x0E
   15BB 05                 6801 	.db #0x05
   15BC C8 00              6802 	.dw #0x00C8
   15BE 3C 00              6803 	.dw #0x003C
   15C0 32 00              6804 	.dw #0x0032
   15C2 50 00              6805 	.dw #0x0050
   15C4 56 65 6E 75 73 61  6806 	.ascii "Venusaur"
        75 72
   15CC 00                 6807 	.db 0x00
   15CD 00                 6808 	.db 0x00
   15CE 00                 6809 	.db 0x00
   15CF 00                 6810 	.db 0x00
   15D0 00                 6811 	.db 0x00
   15D1 00                 6812 	.db 0x00
   15D2 00                 6813 	.db 0x00
   15D3 00                 6814 	.db 0x00
   15D4 00                 6815 	.db 0x00
   15D5 00                 6816 	.db 0x00
   15D6 00                 6817 	.db 0x00
   15D7 00                 6818 	.db 0x00
   15D8 01                 6819 	.db #0x01
   15D9 02                 6820 	.db #0x02
   15DA 08                 6821 	.db #0x08
   15DB 0C                 6822 	.db #0x0C
   15DC 02                 6823 	.db #0x02
   15DD 05                 6824 	.db #0x05
   15DE A0 00              6825 	.dw #0x00A0
   15E0 46 00              6826 	.dw #0x0046
   15E2 3C 00              6827 	.dw #0x003C
   15E4 46 00              6828 	.dw #0x0046
   15E6 47 6F 6C 65 6D     6829 	.ascii "Golem"
   15EB 00                 6830 	.db 0x00
   15EC 00                 6831 	.db 0x00
   15ED 00                 6832 	.db 0x00
   15EE 00                 6833 	.db 0x00
   15EF 00                 6834 	.db 0x00
   15F0 00                 6835 	.db 0x00
   15F1 00                 6836 	.db 0x00
   15F2 00                 6837 	.db 0x00
   15F3 00                 6838 	.db 0x00
   15F4 00                 6839 	.db 0x00
   15F5 00                 6840 	.db 0x00
   15F6 00                 6841 	.db 0x00
   15F7 00                 6842 	.db 0x00
   15F8 00                 6843 	.db 0x00
   15F9 00                 6844 	.db 0x00
   15FA 02                 6845 	.db #0x02
   15FB 03                 6846 	.db #0x03
   15FC 05                 6847 	.db #0x05
   15FD 03                 6848 	.db #0x03
   15FE 07                 6849 	.db #0x07
   15FF 0F                 6850 	.db #0x0F
   1600 B4 00              6851 	.dw #0x00B4
   1602 50 00              6852 	.dw #0x0050
   1604 28 00              6853 	.dw #0x0028
   1606 5A 00              6854 	.dw #0x005A
   1608 43 68 61 72 6D 61  6855 	.ascii "Charmander2"
        6E 64 65 72 32
   1613 00                 6856 	.db 0x00
   1614 00                 6857 	.db 0x00
   1615 00                 6858 	.db 0x00
   1616 00                 6859 	.db 0x00
   1617 00                 6860 	.db 0x00
   1618 00                 6861 	.db 0x00
   1619 00                 6862 	.db 0x00
   161A 00                 6863 	.db 0x00
   161B 00                 6864 	.db 0x00
   161C 00                 6865 	.db #0x00
   161D 04                 6866 	.db #0x04
   161E 00                 6867 	.db #0x00
   161F 01                 6868 	.db #0x01
   1620 03                 6869 	.db #0x03
   1621 06                 6870 	.db #0x06
   1622 64 00              6871 	.dw #0x0064
   1624 32 00              6872 	.dw #0x0032
   1626 46 00              6873 	.dw #0x0046
   1628 1E 00              6874 	.dw #0x001E
   162A 53 71 75 69 72 74  6875 	.ascii "Squirtle2"
        6C 65 32
   1633 00                 6876 	.db 0x00
   1634 00                 6877 	.db 0x00
   1635 00                 6878 	.db 0x00
   1636 00                 6879 	.db 0x00
   1637 00                 6880 	.db 0x00
   1638 00                 6881 	.db 0x00
   1639 00                 6882 	.db 0x00
   163A 00                 6883 	.db 0x00
   163B 00                 6884 	.db 0x00
   163C 00                 6885 	.db 0x00
   163D 00                 6886 	.db 0x00
   163E 05                 6887 	.db #0x05
   163F 05                 6888 	.db #0x05
   1640 04                 6889 	.db #0x04
   1641 0D                 6890 	.db #0x0D
   1642 0A                 6891 	.db #0x0A
   1643 0E                 6892 	.db #0x0E
   1644 78 00              6893 	.dw #0x0078
   1646 28 00              6894 	.dw #0x0028
   1648 3C 00              6895 	.dw #0x003C
   164A 32 00              6896 	.dw #0x0032
   164C 42 75 6C 62 61 73  6897 	.ascii "Bulbasaur2"
        61 75 72 32
   1656 00                 6898 	.db 0x00
   1657 00                 6899 	.db 0x00
   1658 00                 6900 	.db 0x00
   1659 00                 6901 	.db 0x00
   165A 00                 6902 	.db 0x00
   165B 00                 6903 	.db 0x00
   165C 00                 6904 	.db 0x00
   165D 00                 6905 	.db 0x00
   165E 00                 6906 	.db 0x00
   165F 00                 6907 	.db 0x00
   1660 01                 6908 	.db #0x01
   1661 01                 6909 	.db #0x01
   1662 08                 6910 	.db #0x08
   1663 0C                 6911 	.db #0x0C
   1664 02                 6912 	.db #0x02
   1665 06                 6913 	.db #0x06
   1666 6E 00              6914 	.dw #0x006E
   1668 3C 00              6915 	.dw #0x003C
   166A 28 00              6916 	.dw #0x0028
   166C 28 00              6917 	.dw #0x0028
   166E 44 72 61 67 6F 6E  6918 	.ascii "Dragonite2"
        69 74 65 32
   1678 00                 6919 	.db 0x00
   1679 00                 6920 	.db 0x00
   167A 00                 6921 	.db 0x00
   167B 00                 6922 	.db 0x00
   167C 00                 6923 	.db 0x00
   167D 00                 6924 	.db 0x00
   167E 00                 6925 	.db 0x00
   167F 00                 6926 	.db 0x00
   1680 00                 6927 	.db 0x00
   1681 00                 6928 	.db 0x00
   1682 00                 6929 	.db #0x00
   1683 04                 6930 	.db #0x04
   1684 10                 6931 	.db #0x10
   1685 14                 6932 	.db #0x14
   1686 0F                 6933 	.db #0x0F
   1687 06                 6934 	.db #0x06
   1688 96 00              6935 	.dw #0x0096
   168A 50 00              6936 	.dw #0x0050
   168C 5A 00              6937 	.dw #0x005A
   168E 3C 00              6938 	.dw #0x003C
   1690 41 6C 61 6B 61 7A  6939 	.ascii "Alakazam2"
        61 6D 32
   1699 00                 6940 	.db 0x00
   169A 00                 6941 	.db 0x00
   169B 00                 6942 	.db 0x00
   169C 00                 6943 	.db 0x00
   169D 00                 6944 	.db 0x00
   169E 00                 6945 	.db 0x00
   169F 00                 6946 	.db 0x00
   16A0 00                 6947 	.db 0x00
   16A1 00                 6948 	.db 0x00
   16A2 00                 6949 	.db 0x00
   16A3 00                 6950 	.db 0x00
   16A4 11                 6951 	.db #0x11
   16A5 11                 6952 	.db #0x11
   16A6 11                 6953 	.db #0x11
   16A7 12                 6954 	.db #0x12
   16A8 13                 6955 	.db #0x13
   16A9 07                 6956 	.db #0x07
   16AA 5A 00              6957 	.dw #0x005A
   16AC 46 00              6958 	.dw #0x0046
   16AE 64 00              6959 	.dw #0x0064
   16B0 28 00              6960 	.dw #0x0028
   16B2 47 61 72 64 65 76  6961 	.ascii "Gardevoir2"
        6F 69 72 32
   16BC 00                 6962 	.db 0x00
   16BD 00                 6963 	.db 0x00
   16BE 00                 6964 	.db 0x00
   16BF 00                 6965 	.db 0x00
   16C0 00                 6966 	.db 0x00
   16C1 00                 6967 	.db 0x00
   16C2 00                 6968 	.db 0x00
   16C3 00                 6969 	.db 0x00
   16C4 00                 6970 	.db 0x00
   16C5 00                 6971 	.db 0x00
   16C6 11                 6972 	.db #0x11
   16C7 01                 6973 	.db #0x01
   16C8 11                 6974 	.db #0x11
   16C9 15                 6975 	.db #0x15
   16CA 13                 6976 	.db #0x13
   16CB 07                 6977 	.db #0x07
   16CC 6E 00              6978 	.dw #0x006E
   16CE 3C 00              6979 	.dw #0x003C
   16D0 5A 00              6980 	.dw #0x005A
   16D2 32 00              6981 	.dw #0x0032
   16D4 43 68 61 72 69 7A  6982 	.ascii "Charizard2"
        61 72 64 32
   16DE 00                 6983 	.db 0x00
   16DF 00                 6984 	.db 0x00
   16E0 00                 6985 	.db 0x00
   16E1 00                 6986 	.db 0x00
   16E2 00                 6987 	.db 0x00
   16E3 00                 6988 	.db 0x00
   16E4 00                 6989 	.db 0x00
   16E5 00                 6990 	.db 0x00
   16E6 00                 6991 	.db 0x00
   16E7 00                 6992 	.db 0x00
   16E8 00                 6993 	.db #0x00
   16E9 04                 6994 	.db #0x04
   16EA 00                 6995 	.db #0x00
   16EB 01                 6996 	.db #0x01
   16EC 10                 6997 	.db #0x10
   16ED 0F                 6998 	.db #0x0F
   16EE B4 00              6999 	.dw #0x00B4
   16F0 50 00              7000 	.dw #0x0050
   16F2 46 00              7001 	.dw #0x0046
   16F4 32 00              7002 	.dw #0x0032
   16F6 42 6C 61 73 74 6F  7003 	.ascii "Blastoise2"
        69 73 65 32
   1700 00                 7004 	.db 0x00
   1701 00                 7005 	.db 0x00
   1702 00                 7006 	.db 0x00
   1703 00                 7007 	.db 0x00
   1704 00                 7008 	.db 0x00
   1705 00                 7009 	.db 0x00
   1706 00                 7010 	.db 0x00
   1707 00                 7011 	.db 0x00
   1708 00                 7012 	.db 0x00
   1709 00                 7013 	.db 0x00
   170A 05                 7014 	.db #0x05
   170B 02                 7015 	.db #0x02
   170C 0D                 7016 	.db #0x0D
   170D 0A                 7017 	.db #0x0A
   170E 0E                 7018 	.db #0x0E
   170F 05                 7019 	.db #0x05
   1710 C8 00              7020 	.dw #0x00C8
   1712 3C 00              7021 	.dw #0x003C
   1714 32 00              7022 	.dw #0x0032
   1716 50 00              7023 	.dw #0x0050
   1718 56 65 6E 75 73 61  7024 	.ascii "Venusaur2"
        75 72 32
   1721 00                 7025 	.db 0x00
   1722 00                 7026 	.db 0x00
   1723 00                 7027 	.db 0x00
   1724 00                 7028 	.db 0x00
   1725 00                 7029 	.db 0x00
   1726 00                 7030 	.db 0x00
   1727 00                 7031 	.db 0x00
   1728 00                 7032 	.db 0x00
   1729 00                 7033 	.db 0x00
   172A 00                 7034 	.db 0x00
   172B 00                 7035 	.db 0x00
   172C 01                 7036 	.db #0x01
   172D 02                 7037 	.db #0x02
   172E 08                 7038 	.db #0x08
   172F 0C                 7039 	.db #0x0C
   1730 02                 7040 	.db #0x02
   1731 05                 7041 	.db #0x05
   1732 A0 00              7042 	.dw #0x00A0
   1734 46 00              7043 	.dw #0x0046
   1736 3C 00              7044 	.dw #0x003C
   1738 46 00              7045 	.dw #0x0046
   173A 47 6F 6C 65 6D 32  7046 	.ascii "Golem2"
   1740 00                 7047 	.db 0x00
   1741 00                 7048 	.db 0x00
   1742 00                 7049 	.db 0x00
   1743 00                 7050 	.db 0x00
   1744 00                 7051 	.db 0x00
   1745 00                 7052 	.db 0x00
   1746 00                 7053 	.db 0x00
   1747 00                 7054 	.db 0x00
   1748 00                 7055 	.db 0x00
   1749 00                 7056 	.db 0x00
   174A 00                 7057 	.db 0x00
   174B 00                 7058 	.db 0x00
   174C 00                 7059 	.db 0x00
   174D 00                 7060 	.db 0x00
   174E 02                 7061 	.db #0x02
   174F 03                 7062 	.db #0x03
   1750 05                 7063 	.db #0x05
   1751 03                 7064 	.db #0x03
   1752 07                 7065 	.db #0x07
   1753 0F                 7066 	.db #0x0F
   1754 B4 00              7067 	.dw #0x00B4
   1756 50 00              7068 	.dw #0x0050
   1758 28 00              7069 	.dw #0x0028
   175A 5A 00              7070 	.dw #0x005A
   175C                    7071 _Select_Screen_data:
   175C FF                 7072 	.db #0xFF
   175D FF                 7073 	.db #0xFF
   175E FF                 7074 	.db #0xFF
   175F FF                 7075 	.db #0xFF
   1760 FF                 7076 	.db #0xFF
   1761 FF                 7077 	.db #0xFF
   1762 FF                 7078 	.db #0xFF
   1763 FF                 7079 	.db #0xFF
   1764 FF                 7080 	.db #0xFF
   1765 FF                 7081 	.db #0xFF
   1766 FF                 7082 	.db #0xFF
   1767 FF                 7083 	.db #0xFF
   1768 FF                 7084 	.db #0xFF
   1769 FF                 7085 	.db #0xFF
   176A FF                 7086 	.db #0xFF
   176B FF                 7087 	.db #0xFF
   176C FF                 7088 	.db #0xFF
   176D FF                 7089 	.db #0xFF
   176E C4                 7090 	.db #0xC4
   176F FF                 7091 	.db #0xFF
   1770 C8                 7092 	.db #0xC8
   1771 C0                 7093 	.db #0xC0
   1772 B0                 7094 	.db #0xB0
   1773 C0                 7095 	.db #0xC0
   1774 8C                 7096 	.db #0x8C
   1775 C0                 7097 	.db #0xC0
   1776 82                 7098 	.db #0x82
   1777 C0                 7099 	.db #0xC0
   1778 9F                 7100 	.db #0x9F
   1779 DF                 7101 	.db #0xDF
   177A 90                 7102 	.db #0x90
   177B D0                 7103 	.db #0xD0
   177C FF                 7104 	.db #0xFF
   177D FF                 7105 	.db #0xFF
   177E 84                 7106 	.db #0x84
   177F FF                 7107 	.db #0xFF
   1780 48                 7108 	.db #0x48
   1781 00                 7109 	.db #0x00
   1782 30                 7110 	.db #0x30
   1783 00                 7111 	.db #0x00
   1784 0C                 7112 	.db #0x0C
   1785 00                 7113 	.db #0x00
   1786 02                 7114 	.db #0x02
   1787 00                 7115 	.db #0x00
   1788 FF                 7116 	.db #0xFF
   1789 FF                 7117 	.db #0xFF
   178A 00                 7118 	.db #0x00
   178B 00                 7119 	.db #0x00
   178C FF                 7120 	.db #0xFF
   178D FF                 7121 	.db #0xFF
   178E 87                 7122 	.db #0x87
   178F FF                 7123 	.db #0xFF
   1790 49                 7124 	.db #0x49
   1791 03                 7125 	.db #0x03
   1792 31                 7126 	.db #0x31
   1793 03                 7127 	.db #0x03
   1794 0D                 7128 	.db #0x0D
   1795 03                 7129 	.db #0x03
   1796 03                 7130 	.db #0x03
   1797 03                 7131 	.db #0x03
   1798 F9                 7132 	.db #0xF9
   1799 FB                 7133 	.db #0xFB
   179A 09                 7134 	.db #0x09
   179B 0B                 7135 	.db #0x0B
   179C C0                 7136 	.db #0xC0
   179D C0                 7137 	.db #0xC0
   179E CC                 7138 	.db #0xCC
   179F CC                 7139 	.db #0xCC
   17A0 C4                 7140 	.db #0xC4
   17A1 C4                 7141 	.db #0xC4
   17A2 F0                 7142 	.db #0xF0
   17A3 F0                 7143 	.db #0xF0
   17A4 F0                 7144 	.db #0xF0
   17A5 F0                 7145 	.db #0xF0
   17A6 C0                 7146 	.db #0xC0
   17A7 C0                 7147 	.db #0xC0
   17A8 FF                 7148 	.db #0xFF
   17A9 FF                 7149 	.db #0xFF
   17AA FF                 7150 	.db #0xFF
   17AB FF                 7151 	.db #0xFF
   17AC 0C                 7152 	.db #0x0C
   17AD 0C                 7153 	.db #0x0C
   17AE CC                 7154 	.db #0xCC
   17AF CC                 7155 	.db #0xCC
   17B0 0C                 7156 	.db #0x0C
   17B1 0C                 7157 	.db #0x0C
   17B2 CC                 7158 	.db #0xCC
   17B3 CC                 7159 	.db #0xCC
   17B4 CC                 7160 	.db #0xCC
   17B5 CC                 7161 	.db #0xCC
   17B6 00                 7162 	.db #0x00
   17B7 00                 7163 	.db #0x00
   17B8 FF                 7164 	.db #0xFF
   17B9 FF                 7165 	.db #0xFF
   17BA FF                 7166 	.db #0xFF
   17BB FF                 7167 	.db #0xFF
   17BC 20                 7168 	.db #0x20
   17BD 20                 7169 	.db #0x20
   17BE CD                 7170 	.db #0xCD
   17BF CD                 7171 	.db #0xCD
   17C0 0F                 7172 	.db #0x0F
   17C1 0F                 7173 	.db #0x0F
   17C2 CF                 7174 	.db #0xCF
   17C3 CF                 7175 	.db #0xCF
   17C4 CD                 7176 	.db #0xCD
   17C5 CD                 7177 	.db #0xCD
   17C6 21                 7178 	.db #0x21
   17C7 21                 7179 	.db #0x21
   17C8 FF                 7180 	.db #0xFF
   17C9 FF                 7181 	.db #0xFF
   17CA FF                 7182 	.db #0xFF
   17CB FF                 7183 	.db #0xFF
   17CC 0B                 7184 	.db #0x0B
   17CD 0B                 7185 	.db #0x0B
   17CE 38                 7186 	.db #0x38
   17CF 38                 7187 	.db #0x38
   17D0 3C                 7188 	.db #0x3C
   17D1 3C                 7189 	.db #0x3C
   17D2 3C                 7190 	.db #0x3C
   17D3 3C                 7191 	.db #0x3C
   17D4 3C                 7192 	.db #0x3C
   17D5 3C                 7193 	.db #0x3C
   17D6 3C                 7194 	.db #0x3C
   17D7 3C                 7195 	.db #0x3C
   17D8 FF                 7196 	.db #0xFF
   17D9 FF                 7197 	.db #0xFF
   17DA FF                 7198 	.db #0xFF
   17DB FF                 7199 	.db #0xFF
   17DC 42                 7200 	.db #0x42
   17DD 42                 7201 	.db #0x42
   17DE 18                 7202 	.db #0x18
   17DF 18                 7203 	.db #0x18
   17E0 98                 7204 	.db #0x98
   17E1 98                 7205 	.db #0x98
   17E2 98                 7206 	.db #0x98
   17E3 98                 7207 	.db #0x98
   17E4 98                 7208 	.db #0x98
   17E5 98                 7209 	.db #0x98
   17E6 C3                 7210 	.db #0xC3
   17E7 C3                 7211 	.db #0xC3
   17E8 FF                 7212 	.db #0xFF
   17E9 FF                 7213 	.db #0xFF
   17EA FF                 7214 	.db #0xFF
   17EB FF                 7215 	.db #0xFF
   17EC 60                 7216 	.db #0x60
   17ED 60                 7217 	.db #0x60
   17EE 61                 7218 	.db #0x61
   17EF 61                 7219 	.db #0x61
   17F0 61                 7220 	.db #0x61
   17F1 61                 7221 	.db #0x61
   17F2 60                 7222 	.db #0x60
   17F3 60                 7223 	.db #0x60
   17F4 61                 7224 	.db #0x61
   17F5 61                 7225 	.db #0x61
   17F6 09                 7226 	.db #0x09
   17F7 09                 7227 	.db #0x09
   17F8 FF                 7228 	.db #0xFF
   17F9 FF                 7229 	.db #0xFF
   17FA FF                 7230 	.db #0xFF
   17FB FF                 7231 	.db #0xFF
   17FC 71                 7232 	.db #0x71
   17FD 71                 7233 	.db #0x71
   17FE 31                 7234 	.db #0x31
   17FF 31                 7235 	.db #0x31
   1800 31                 7236 	.db #0x31
   1801 31                 7237 	.db #0x31
   1802 70                 7238 	.db #0x70
   1803 70                 7239 	.db #0x70
   1804 72                 7240 	.db #0x72
   1805 72                 7241 	.db #0x72
   1806 32                 7242 	.db #0x32
   1807 32                 7243 	.db #0x32
   1808 FF                 7244 	.db #0xFF
   1809 FF                 7245 	.db #0xFF
   180A FF                 7246 	.db #0xFF
   180B FF                 7247 	.db #0xFF
   180C 88                 7248 	.db #0x88
   180D 88                 7249 	.db #0x88
   180E 83                 7250 	.db #0x83
   180F 83                 7251 	.db #0x83
   1810 83                 7252 	.db #0x83
   1811 83                 7253 	.db #0x83
   1812 03                 7254 	.db #0x03
   1813 03                 7255 	.db #0x03
   1814 43                 7256 	.db #0x43
   1815 43                 7257 	.db #0x43
   1816 48                 7258 	.db #0x48
   1817 48                 7259 	.db #0x48
   1818 FF                 7260 	.db #0xFF
   1819 FF                 7261 	.db #0xFF
   181A FF                 7262 	.db #0xFF
   181B FF                 7263 	.db #0xFF
   181C 44                 7264 	.db #0x44
   181D 44                 7265 	.db #0x44
   181E 04                 7266 	.db #0x04
   181F 04                 7267 	.db #0x04
   1820 00                 7268 	.db #0x00
   1821 00                 7269 	.db #0x00
   1822 00                 7270 	.db #0x00
   1823 00                 7271 	.db #0x00
   1824 08                 7272 	.db #0x08
   1825 08                 7273 	.db #0x08
   1826 4C                 7274 	.db #0x4C
   1827 4C                 7275 	.db #0x4C
   1828 FF                 7276 	.db #0xFF
   1829 FF                 7277 	.db #0xFF
   182A FF                 7278 	.db #0xFF
   182B FF                 7279 	.db #0xFF
   182C 00                 7280 	.db #0x00
   182D 00                 7281 	.db #0x00
   182E 39                 7282 	.db #0x39
   182F 39                 7283 	.db #0x39
   1830 19                 7284 	.db #0x19
   1831 19                 7285 	.db #0x19
   1832 C9                 7286 	.db #0xC9
   1833 C9                 7287 	.db #0xC9
   1834 C9                 7288 	.db #0xC9
   1835 C9                 7289 	.db #0xC9
   1836 09                 7290 	.db #0x09
   1837 09                 7291 	.db #0x09
   1838 FF                 7292 	.db #0xFF
   1839 FF                 7293 	.db #0xFF
   183A FF                 7294 	.db #0xFF
   183B FF                 7295 	.db #0xFF
   183C 00                 7296 	.db #0x00
   183D 00                 7297 	.db #0x00
   183E 32                 7298 	.db #0x32
   183F 32                 7299 	.db #0x32
   1840 02                 7300 	.db #0x02
   1841 02                 7301 	.db #0x02
   1842 30                 7302 	.db #0x30
   1843 30                 7303 	.db #0x30
   1844 32                 7304 	.db #0x32
   1845 32                 7305 	.db #0x32
   1846 02                 7306 	.db #0x02
   1847 02                 7307 	.db #0x02
   1848 FF                 7308 	.db #0xFF
   1849 FF                 7309 	.db #0xFF
   184A FF                 7310 	.db #0xFF
   184B FF                 7311 	.db #0xFF
   184C 87                 7312 	.db #0x87
   184D 87                 7313 	.db #0x87
   184E 1F                 7314 	.db #0x1F
   184F 1F                 7315 	.db #0x1F
   1850 09                 7316 	.db #0x09
   1851 09                 7317 	.db #0x09
   1852 E7                 7318 	.db #0xE7
   1853 E7                 7319 	.db #0xE7
   1854 E7                 7320 	.db #0xE7
   1855 E7                 7321 	.db #0xE7
   1856 01                 7322 	.db #0x01
   1857 01                 7323 	.db #0x01
   1858 FF                 7324 	.db #0xFF
   1859 FF                 7325 	.db #0xFF
   185A FF                 7326 	.db #0xFF
   185B FF                 7327 	.db #0xFF
   185C 90                 7328 	.db #0x90
   185D D0                 7329 	.db #0xD0
   185E 90                 7330 	.db #0x90
   185F D0                 7331 	.db #0xD0
   1860 D0                 7332 	.db #0xD0
   1861 D0                 7333 	.db #0xD0
   1862 B0                 7334 	.db #0xB0
   1863 D0                 7335 	.db #0xD0
   1864 90                 7336 	.db #0x90
   1865 D0                 7337 	.db #0xD0
   1866 90                 7338 	.db #0x90
   1867 D0                 7339 	.db #0xD0
   1868 90                 7340 	.db #0x90
   1869 D0                 7341 	.db #0xD0
   186A 90                 7342 	.db #0x90
   186B D0                 7343 	.db #0xD0
   186C 00                 7344 	.db #0x00
   186D 00                 7345 	.db #0x00
   186E 00                 7346 	.db #0x00
   186F 00                 7347 	.db #0x00
   1870 00                 7348 	.db #0x00
   1871 00                 7349 	.db #0x00
   1872 00                 7350 	.db #0x00
   1873 00                 7351 	.db #0x00
   1874 00                 7352 	.db #0x00
   1875 00                 7353 	.db #0x00
   1876 00                 7354 	.db #0x00
   1877 00                 7355 	.db #0x00
   1878 00                 7356 	.db #0x00
   1879 00                 7357 	.db #0x00
   187A 00                 7358 	.db #0x00
   187B 00                 7359 	.db #0x00
   187C 0B                 7360 	.db #0x0B
   187D 0B                 7361 	.db #0x0B
   187E 0D                 7362 	.db #0x0D
   187F 0B                 7363 	.db #0x0B
   1880 09                 7364 	.db #0x09
   1881 0B                 7365 	.db #0x0B
   1882 09                 7366 	.db #0x09
   1883 0B                 7367 	.db #0x0B
   1884 0D                 7368 	.db #0x0D
   1885 0B                 7369 	.db #0x0B
   1886 0B                 7370 	.db #0x0B
   1887 0B                 7371 	.db #0x0B
   1888 09                 7372 	.db #0x09
   1889 0B                 7373 	.db #0x0B
   188A 09                 7374 	.db #0x09
   188B 0B                 7375 	.db #0x0B
   188C FF                 7376 	.db #0xFF
   188D FF                 7377 	.db #0xFF
   188E FF                 7378 	.db #0xFF
   188F FF                 7379 	.db #0xFF
   1890 FF                 7380 	.db #0xFF
   1891 FF                 7381 	.db #0xFF
   1892 00                 7382 	.db #0x00
   1893 00                 7383 	.db #0x00
   1894 00                 7384 	.db #0x00
   1895 00                 7385 	.db #0x00
   1896 00                 7386 	.db #0x00
   1897 00                 7387 	.db #0x00
   1898 00                 7388 	.db #0x00
   1899 00                 7389 	.db #0x00
   189A 00                 7390 	.db #0x00
   189B 00                 7391 	.db #0x00
   189C 9F                 7392 	.db #0x9F
   189D DF                 7393 	.db #0xDF
   189E 84                 7394 	.db #0x84
   189F C0                 7395 	.db #0xC0
   18A0 C8                 7396 	.db #0xC8
   18A1 C0                 7397 	.db #0xC0
   18A2 BF                 7398 	.db #0xBF
   18A3 DF                 7399 	.db #0xDF
   18A4 90                 7400 	.db #0x90
   18A5 D0                 7401 	.db #0xD0
   18A6 90                 7402 	.db #0x90
   18A7 D0                 7403 	.db #0xD0
   18A8 90                 7404 	.db #0x90
   18A9 D0                 7405 	.db #0xD0
   18AA 90                 7406 	.db #0x90
   18AB D0                 7407 	.db #0xD0
   18AC FF                 7408 	.db #0xFF
   18AD FF                 7409 	.db #0xFF
   18AE 84                 7410 	.db #0x84
   18AF 00                 7411 	.db #0x00
   18B0 48                 7412 	.db #0x48
   18B1 00                 7413 	.db #0x00
   18B2 FF                 7414 	.db #0xFF
   18B3 FF                 7415 	.db #0xFF
   18B4 00                 7416 	.db #0x00
   18B5 00                 7417 	.db #0x00
   18B6 00                 7418 	.db #0x00
   18B7 00                 7419 	.db #0x00
   18B8 00                 7420 	.db #0x00
   18B9 00                 7421 	.db #0x00
   18BA 00                 7422 	.db #0x00
   18BB 00                 7423 	.db #0x00
   18BC FB                 7424 	.db #0xFB
   18BD FB                 7425 	.db #0xFB
   18BE 85                 7426 	.db #0x85
   18BF 03                 7427 	.db #0x03
   18C0 49                 7428 	.db #0x49
   18C1 03                 7429 	.db #0x03
   18C2 F9                 7430 	.db #0xF9
   18C3 FB                 7431 	.db #0xFB
   18C4 0D                 7432 	.db #0x0D
   18C5 0B                 7433 	.db #0x0B
   18C6 0B                 7434 	.db #0x0B
   18C7 0B                 7435 	.db #0x0B
   18C8 09                 7436 	.db #0x09
   18C9 0B                 7437 	.db #0x0B
   18CA 09                 7438 	.db #0x09
   18CB 0B                 7439 	.db #0x0B
   18CC 00                 7440 	.db #0x00
   18CD 00                 7441 	.db #0x00
   18CE 00                 7442 	.db #0x00
   18CF 00                 7443 	.db #0x00
   18D0 00                 7444 	.db #0x00
   18D1 00                 7445 	.db #0x00
   18D2 00                 7446 	.db #0x00
   18D3 00                 7447 	.db #0x00
   18D4 FF                 7448 	.db #0xFF
   18D5 FF                 7449 	.db #0xFF
   18D6 FF                 7450 	.db #0xFF
   18D7 FF                 7451 	.db #0xFF
   18D8 80                 7452 	.db #0x80
   18D9 80                 7453 	.db #0x80
   18DA 80                 7454 	.db #0x80
   18DB 80                 7455 	.db #0x80
   18DC 00                 7456 	.db #0x00
   18DD 00                 7457 	.db #0x00
   18DE 00                 7458 	.db #0x00
   18DF 00                 7459 	.db #0x00
   18E0 00                 7460 	.db #0x00
   18E1 00                 7461 	.db #0x00
   18E2 00                 7462 	.db #0x00
   18E3 00                 7463 	.db #0x00
   18E4 FF                 7464 	.db #0xFF
   18E5 FF                 7465 	.db #0xFF
   18E6 FF                 7466 	.db #0xFF
   18E7 FF                 7467 	.db #0xFF
   18E8 00                 7468 	.db #0x00
   18E9 00                 7469 	.db #0x00
   18EA 00                 7470 	.db #0x00
   18EB 00                 7471 	.db #0x00
   18EC 00                 7472 	.db #0x00
   18ED 00                 7473 	.db #0x00
   18EE 00                 7474 	.db #0x00
   18EF 00                 7475 	.db #0x00
   18F0 00                 7476 	.db #0x00
   18F1 00                 7477 	.db #0x00
   18F2 00                 7478 	.db #0x00
   18F3 00                 7479 	.db #0x00
   18F4 FF                 7480 	.db #0xFF
   18F5 FF                 7481 	.db #0xFF
   18F6 FF                 7482 	.db #0xFF
   18F7 FF                 7483 	.db #0xFF
   18F8 10                 7484 	.db #0x10
   18F9 10                 7485 	.db #0x10
   18FA 10                 7486 	.db #0x10
   18FB 10                 7487 	.db #0x10
   18FC 00                 7488 	.db #0x00
   18FD 00                 7489 	.db #0x00
   18FE 00                 7490 	.db #0x00
   18FF 00                 7491 	.db #0x00
   1900 00                 7492 	.db #0x00
   1901 00                 7493 	.db #0x00
   1902 00                 7494 	.db #0x00
   1903 00                 7495 	.db #0x00
   1904 FF                 7496 	.db #0xFF
   1905 FF                 7497 	.db #0xFF
   1906 FF                 7498 	.db #0xFF
   1907 FF                 7499 	.db #0xFF
   1908 02                 7500 	.db #0x02
   1909 02                 7501 	.db #0x02
   190A 02                 7502 	.db #0x02
   190B 02                 7503 	.db #0x02
   190C 90                 7504 	.db #0x90
   190D D0                 7505 	.db #0xD0
   190E 90                 7506 	.db #0x90
   190F D0                 7507 	.db #0xD0
   1910 DF                 7508 	.db #0xDF
   1911 DF                 7509 	.db #0xDF
   1912 B0                 7510 	.db #0xB0
   1913 C0                 7511 	.db #0xC0
   1914 CC                 7512 	.db #0xCC
   1915 FF                 7513 	.db #0xFF
   1916 FF                 7514 	.db #0xFF
   1917 FF                 7515 	.db #0xFF
   1918 00                 7516 	.db #0x00
   1919 00                 7517 	.db #0x00
   191A 00                 7518 	.db #0x00
   191B 00                 7519 	.db #0x00
   191C 00                 7520 	.db #0x00
   191D 00                 7521 	.db #0x00
   191E 00                 7522 	.db #0x00
   191F 00                 7523 	.db #0x00
   1920 FF                 7524 	.db #0xFF
   1921 FF                 7525 	.db #0xFF
   1922 30                 7526 	.db #0x30
   1923 00                 7527 	.db #0x00
   1924 0C                 7528 	.db #0x0C
   1925 FF                 7529 	.db #0xFF
   1926 FF                 7530 	.db #0xFF
   1927 FF                 7531 	.db #0xFF
   1928 20                 7532 	.db #0x20
   1929 20                 7533 	.db #0x20
   192A 20                 7534 	.db #0x20
   192B 20                 7535 	.db #0x20
   192C 00                 7536 	.db #0x00
   192D 00                 7537 	.db #0x00
   192E 00                 7538 	.db #0x00
   192F 00                 7539 	.db #0x00
   1930 FF                 7540 	.db #0xFF
   1931 FF                 7541 	.db #0xFF
   1932 30                 7542 	.db #0x30
   1933 00                 7543 	.db #0x00
   1934 0C                 7544 	.db #0x0C
   1935 FF                 7545 	.db #0xFF
   1936 FF                 7546 	.db #0xFF
   1937 FF                 7547 	.db #0xFF
   1938 00                 7548 	.db #0x00
   1939 00                 7549 	.db #0x00
   193A 00                 7550 	.db #0x00
   193B 00                 7551 	.db #0x00
   193C 00                 7552 	.db #0x00
   193D 00                 7553 	.db #0x00
   193E 00                 7554 	.db #0x00
   193F 00                 7555 	.db #0x00
   1940 FF                 7556 	.db #0xFF
   1941 FF                 7557 	.db #0xFF
   1942 30                 7558 	.db #0x30
   1943 00                 7559 	.db #0x00
   1944 0C                 7560 	.db #0x0C
   1945 FF                 7561 	.db #0xFF
   1946 FF                 7562 	.db #0xFF
   1947 FF                 7563 	.db #0xFF
   1948 08                 7564 	.db #0x08
   1949 08                 7565 	.db #0x08
   194A 08                 7566 	.db #0x08
   194B 08                 7567 	.db #0x08
   194C 0B                 7568 	.db #0x0B
   194D 0B                 7569 	.db #0x0B
   194E 0D                 7570 	.db #0x0D
   194F 0B                 7571 	.db #0x0B
   1950 F9                 7572 	.db #0xF9
   1951 FB                 7573 	.db #0xFB
   1952 31                 7574 	.db #0x31
   1953 03                 7575 	.db #0x03
   1954 0F                 7576 	.db #0x0F
   1955 FF                 7577 	.db #0xFF
   1956 FF                 7578 	.db #0xFF
   1957 FF                 7579 	.db #0xFF
   1958 01                 7580 	.db #0x01
   1959 01                 7581 	.db #0x01
   195A 01                 7582 	.db #0x01
   195B 01                 7583 	.db #0x01
   195C 80                 7584 	.db #0x80
   195D 80                 7585 	.db #0x80
   195E 80                 7586 	.db #0x80
   195F 80                 7587 	.db #0x80
   1960 80                 7588 	.db #0x80
   1961 80                 7589 	.db #0x80
   1962 80                 7590 	.db #0x80
   1963 80                 7591 	.db #0x80
   1964 80                 7592 	.db #0x80
   1965 80                 7593 	.db #0x80
   1966 80                 7594 	.db #0x80
   1967 80                 7595 	.db #0x80
   1968 80                 7596 	.db #0x80
   1969 80                 7597 	.db #0x80
   196A 80                 7598 	.db #0x80
   196B 80                 7599 	.db #0x80
   196C 00                 7600 	.db #0x00
   196D 00                 7601 	.db #0x00
   196E 00                 7602 	.db #0x00
   196F 00                 7603 	.db #0x00
   1970 00                 7604 	.db #0x00
   1971 00                 7605 	.db #0x00
   1972 00                 7606 	.db #0x00
   1973 00                 7607 	.db #0x00
   1974 00                 7608 	.db #0x00
   1975 00                 7609 	.db #0x00
   1976 00                 7610 	.db #0x00
   1977 00                 7611 	.db #0x00
   1978 07                 7612 	.db #0x07
   1979 07                 7613 	.db #0x07
   197A 0F                 7614 	.db #0x0F
   197B 0F                 7615 	.db #0x0F
   197C 10                 7616 	.db #0x10
   197D 10                 7617 	.db #0x10
   197E 10                 7618 	.db #0x10
   197F 10                 7619 	.db #0x10
   1980 10                 7620 	.db #0x10
   1981 10                 7621 	.db #0x10
   1982 10                 7622 	.db #0x10
   1983 10                 7623 	.db #0x10
   1984 10                 7624 	.db #0x10
   1985 10                 7625 	.db #0x10
   1986 10                 7626 	.db #0x10
   1987 10                 7627 	.db #0x10
   1988 10                 7628 	.db #0x10
   1989 10                 7629 	.db #0x10
   198A 10                 7630 	.db #0x10
   198B 10                 7631 	.db #0x10
   198C 00                 7632 	.db #0x00
   198D 00                 7633 	.db #0x00
   198E 00                 7634 	.db #0x00
   198F 00                 7635 	.db #0x00
   1990 00                 7636 	.db #0x00
   1991 00                 7637 	.db #0x00
   1992 00                 7638 	.db #0x00
   1993 00                 7639 	.db #0x00
   1994 00                 7640 	.db #0x00
   1995 00                 7641 	.db #0x00
   1996 00                 7642 	.db #0x00
   1997 00                 7643 	.db #0x00
   1998 07                 7644 	.db #0x07
   1999 07                 7645 	.db #0x07
   199A 04                 7646 	.db #0x04
   199B 04                 7647 	.db #0x04
   199C 00                 7648 	.db #0x00
   199D 00                 7649 	.db #0x00
   199E 00                 7650 	.db #0x00
   199F 00                 7651 	.db #0x00
   19A0 00                 7652 	.db #0x00
   19A1 00                 7653 	.db #0x00
   19A2 00                 7654 	.db #0x00
   19A3 00                 7655 	.db #0x00
   19A4 00                 7656 	.db #0x00
   19A5 00                 7657 	.db #0x00
   19A6 00                 7658 	.db #0x00
   19A7 00                 7659 	.db #0x00
   19A8 C0                 7660 	.db #0xC0
   19A9 C0                 7661 	.db #0xC0
   19AA C0                 7662 	.db #0xC0
   19AB C0                 7663 	.db #0xC0
   19AC 02                 7664 	.db #0x02
   19AD 02                 7665 	.db #0x02
   19AE 02                 7666 	.db #0x02
   19AF 02                 7667 	.db #0x02
   19B0 02                 7668 	.db #0x02
   19B1 02                 7669 	.db #0x02
   19B2 02                 7670 	.db #0x02
   19B3 02                 7671 	.db #0x02
   19B4 02                 7672 	.db #0x02
   19B5 02                 7673 	.db #0x02
   19B6 02                 7674 	.db #0x02
   19B7 02                 7675 	.db #0x02
   19B8 02                 7676 	.db #0x02
   19B9 02                 7677 	.db #0x02
   19BA 02                 7678 	.db #0x02
   19BB 02                 7679 	.db #0x02
   19BC 00                 7680 	.db #0x00
   19BD 00                 7681 	.db #0x00
   19BE 00                 7682 	.db #0x00
   19BF 00                 7683 	.db #0x00
   19C0 00                 7684 	.db #0x00
   19C1 00                 7685 	.db #0x00
   19C2 00                 7686 	.db #0x00
   19C3 00                 7687 	.db #0x00
   19C4 00                 7688 	.db #0x00
   19C5 00                 7689 	.db #0x00
   19C6 00                 7690 	.db #0x00
   19C7 00                 7691 	.db #0x00
   19C8 78                 7692 	.db #0x78
   19C9 78                 7693 	.db #0x78
   19CA 4C                 7694 	.db #0x4C
   19CB 4C                 7695 	.db #0x4C
   19CC 00                 7696 	.db #0x00
   19CD 00                 7697 	.db #0x00
   19CE 00                 7698 	.db #0x00
   19CF 00                 7699 	.db #0x00
   19D0 00                 7700 	.db #0x00
   19D1 00                 7701 	.db #0x00
   19D2 00                 7702 	.db #0x00
   19D3 00                 7703 	.db #0x00
   19D4 00                 7704 	.db #0x00
   19D5 00                 7705 	.db #0x00
   19D6 00                 7706 	.db #0x00
   19D7 00                 7707 	.db #0x00
   19D8 0E                 7708 	.db #0x0E
   19D9 0E                 7709 	.db #0x0E
   19DA 1E                 7710 	.db #0x1E
   19DB 1E                 7711 	.db #0x1E
   19DC 20                 7712 	.db #0x20
   19DD 20                 7713 	.db #0x20
   19DE 20                 7714 	.db #0x20
   19DF 20                 7715 	.db #0x20
   19E0 20                 7716 	.db #0x20
   19E1 20                 7717 	.db #0x20
   19E2 20                 7718 	.db #0x20
   19E3 20                 7719 	.db #0x20
   19E4 20                 7720 	.db #0x20
   19E5 20                 7721 	.db #0x20
   19E6 20                 7722 	.db #0x20
   19E7 20                 7723 	.db #0x20
   19E8 20                 7724 	.db #0x20
   19E9 20                 7725 	.db #0x20
   19EA 20                 7726 	.db #0x20
   19EB 20                 7727 	.db #0x20
   19EC 00                 7728 	.db #0x00
   19ED 00                 7729 	.db #0x00
   19EE 00                 7730 	.db #0x00
   19EF 00                 7731 	.db #0x00
   19F0 00                 7732 	.db #0x00
   19F1 00                 7733 	.db #0x00
   19F2 00                 7734 	.db #0x00
   19F3 00                 7735 	.db #0x00
   19F4 00                 7736 	.db #0x00
   19F5 00                 7737 	.db #0x00
   19F6 00                 7738 	.db #0x00
   19F7 00                 7739 	.db #0x00
   19F8 03                 7740 	.db #0x03
   19F9 03                 7741 	.db #0x03
   19FA 03                 7742 	.db #0x03
   19FB 03                 7743 	.db #0x03
   19FC 00                 7744 	.db #0x00
   19FD 00                 7745 	.db #0x00
   19FE 00                 7746 	.db #0x00
   19FF 00                 7747 	.db #0x00
   1A00 00                 7748 	.db #0x00
   1A01 00                 7749 	.db #0x00
   1A02 00                 7750 	.db #0x00
   1A03 00                 7751 	.db #0x00
   1A04 00                 7752 	.db #0x00
   1A05 00                 7753 	.db #0x00
   1A06 00                 7754 	.db #0x00
   1A07 00                 7755 	.db #0x00
   1A08 E0                 7756 	.db #0xE0
   1A09 E0                 7757 	.db #0xE0
   1A0A 00                 7758 	.db #0x00
   1A0B 00                 7759 	.db #0x00
   1A0C 08                 7760 	.db #0x08
   1A0D 08                 7761 	.db #0x08
   1A0E 08                 7762 	.db #0x08
   1A0F 08                 7763 	.db #0x08
   1A10 08                 7764 	.db #0x08
   1A11 08                 7765 	.db #0x08
   1A12 08                 7766 	.db #0x08
   1A13 08                 7767 	.db #0x08
   1A14 08                 7768 	.db #0x08
   1A15 08                 7769 	.db #0x08
   1A16 08                 7770 	.db #0x08
   1A17 08                 7771 	.db #0x08
   1A18 08                 7772 	.db #0x08
   1A19 08                 7773 	.db #0x08
   1A1A 08                 7774 	.db #0x08
   1A1B 08                 7775 	.db #0x08
   1A1C 00                 7776 	.db #0x00
   1A1D 00                 7777 	.db #0x00
   1A1E 00                 7778 	.db #0x00
   1A1F 00                 7779 	.db #0x00
   1A20 00                 7780 	.db #0x00
   1A21 00                 7781 	.db #0x00
   1A22 00                 7782 	.db #0x00
   1A23 00                 7783 	.db #0x00
   1A24 00                 7784 	.db #0x00
   1A25 00                 7785 	.db #0x00
   1A26 00                 7786 	.db #0x00
   1A27 00                 7787 	.db #0x00
   1A28 00                 7788 	.db #0x00
   1A29 00                 7789 	.db #0x00
   1A2A 01                 7790 	.db #0x01
   1A2B 01                 7791 	.db #0x01
   1A2C 00                 7792 	.db #0x00
   1A2D 00                 7793 	.db #0x00
   1A2E 00                 7794 	.db #0x00
   1A2F 00                 7795 	.db #0x00
   1A30 00                 7796 	.db #0x00
   1A31 00                 7797 	.db #0x00
   1A32 00                 7798 	.db #0x00
   1A33 00                 7799 	.db #0x00
   1A34 00                 7800 	.db #0x00
   1A35 00                 7801 	.db #0x00
   1A36 00                 7802 	.db #0x00
   1A37 00                 7803 	.db #0x00
   1A38 F0                 7804 	.db #0xF0
   1A39 F0                 7805 	.db #0xF0
   1A3A 80                 7806 	.db #0x80
   1A3B 80                 7807 	.db #0x80
   1A3C 01                 7808 	.db #0x01
   1A3D 01                 7809 	.db #0x01
   1A3E 01                 7810 	.db #0x01
   1A3F 01                 7811 	.db #0x01
   1A40 01                 7812 	.db #0x01
   1A41 01                 7813 	.db #0x01
   1A42 01                 7814 	.db #0x01
   1A43 01                 7815 	.db #0x01
   1A44 01                 7816 	.db #0x01
   1A45 01                 7817 	.db #0x01
   1A46 01                 7818 	.db #0x01
   1A47 01                 7819 	.db #0x01
   1A48 01                 7820 	.db #0x01
   1A49 01                 7821 	.db #0x01
   1A4A 01                 7822 	.db #0x01
   1A4B 01                 7823 	.db #0x01
   1A4C 03                 7824 	.db #0x03
   1A4D 03                 7825 	.db #0x03
   1A4E 03                 7826 	.db #0x03
   1A4F 03                 7827 	.db #0x03
   1A50 03                 7828 	.db #0x03
   1A51 03                 7829 	.db #0x03
   1A52 03                 7830 	.db #0x03
   1A53 03                 7831 	.db #0x03
   1A54 03                 7832 	.db #0x03
   1A55 03                 7833 	.db #0x03
   1A56 03                 7834 	.db #0x03
   1A57 03                 7835 	.db #0x03
   1A58 0F                 7836 	.db #0x0F
   1A59 0F                 7837 	.db #0x0F
   1A5A 00                 7838 	.db #0x00
   1A5B 00                 7839 	.db #0x00
   1A5C 00                 7840 	.db #0x00
   1A5D 00                 7841 	.db #0x00
   1A5E 00                 7842 	.db #0x00
   1A5F 00                 7843 	.db #0x00
   1A60 00                 7844 	.db #0x00
   1A61 00                 7845 	.db #0x00
   1A62 00                 7846 	.db #0x00
   1A63 00                 7847 	.db #0x00
   1A64 00                 7848 	.db #0x00
   1A65 00                 7849 	.db #0x00
   1A66 00                 7850 	.db #0x00
   1A67 00                 7851 	.db #0x00
   1A68 C0                 7852 	.db #0xC0
   1A69 C0                 7853 	.db #0xC0
   1A6A 00                 7854 	.db #0x00
   1A6B 00                 7855 	.db #0x00
   1A6C 00                 7856 	.db #0x00
   1A6D 00                 7857 	.db #0x00
   1A6E 00                 7858 	.db #0x00
   1A6F 00                 7859 	.db #0x00
   1A70 00                 7860 	.db #0x00
   1A71 00                 7861 	.db #0x00
   1A72 01                 7862 	.db #0x01
   1A73 01                 7863 	.db #0x01
   1A74 03                 7864 	.db #0x03
   1A75 03                 7865 	.db #0x03
   1A76 06                 7866 	.db #0x06
   1A77 06                 7867 	.db #0x06
   1A78 0F                 7868 	.db #0x0F
   1A79 0F                 7869 	.db #0x0F
   1A7A 00                 7870 	.db #0x00
   1A7B 00                 7871 	.db #0x00
   1A7C 40                 7872 	.db #0x40
   1A7D 40                 7873 	.db #0x40
   1A7E C0                 7874 	.db #0xC0
   1A7F C0                 7875 	.db #0xC0
   1A80 C0                 7876 	.db #0xC0
   1A81 C0                 7877 	.db #0xC0
   1A82 80                 7878 	.db #0x80
   1A83 80                 7879 	.db #0x80
   1A84 00                 7880 	.db #0x00
   1A85 00                 7881 	.db #0x00
   1A86 00                 7882 	.db #0x00
   1A87 00                 7883 	.db #0x00
   1A88 E0                 7884 	.db #0xE0
   1A89 E0                 7885 	.db #0xE0
   1A8A 00                 7886 	.db #0x00
   1A8B 00                 7887 	.db #0x00
   1A8C 0C                 7888 	.db #0x0C
   1A8D 0C                 7889 	.db #0x0C
   1A8E 0C                 7890 	.db #0x0C
   1A8F 0C                 7891 	.db #0x0C
   1A90 78                 7892 	.db #0x78
   1A91 78                 7893 	.db #0x78
   1A92 0C                 7894 	.db #0x0C
   1A93 0C                 7895 	.db #0x0C
   1A94 06                 7896 	.db #0x06
   1A95 06                 7897 	.db #0x06
   1A96 CC                 7898 	.db #0xCC
   1A97 CC                 7899 	.db #0xCC
   1A98 78                 7900 	.db #0x78
   1A99 78                 7901 	.db #0x78
   1A9A 00                 7902 	.db #0x00
   1A9B 00                 7903 	.db #0x00
   1A9C 1E                 7904 	.db #0x1E
   1A9D 1E                 7905 	.db #0x1E
   1A9E 36                 7906 	.db #0x36
   1A9F 36                 7907 	.db #0x36
   1AA0 26                 7908 	.db #0x26
   1AA1 26                 7909 	.db #0x26
   1AA2 66                 7910 	.db #0x66
   1AA3 66                 7911 	.db #0x66
   1AA4 7F                 7912 	.db #0x7F
   1AA5 7F                 7913 	.db #0x7F
   1AA6 06                 7914 	.db #0x06
   1AA7 06                 7915 	.db #0x06
   1AA8 06                 7916 	.db #0x06
   1AA9 06                 7917 	.db #0x06
   1AAA 00                 7918 	.db #0x00
   1AAB 00                 7919 	.db #0x00
   1AAC 03                 7920 	.db #0x03
   1AAD 03                 7921 	.db #0x03
   1AAE 03                 7922 	.db #0x03
   1AAF 03                 7923 	.db #0x03
   1AB0 00                 7924 	.db #0x00
   1AB1 00                 7925 	.db #0x00
   1AB2 00                 7926 	.db #0x00
   1AB3 00                 7927 	.db #0x00
   1AB4 00                 7928 	.db #0x00
   1AB5 00                 7929 	.db #0x00
   1AB6 04                 7930 	.db #0x04
   1AB7 04                 7931 	.db #0x04
   1AB8 07                 7932 	.db #0x07
   1AB9 07                 7933 	.db #0x07
   1ABA 00                 7934 	.db #0x00
   1ABB 00                 7935 	.db #0x00
   1ABC 00                 7936 	.db #0x00
   1ABD 00                 7937 	.db #0x00
   1ABE E0                 7938 	.db #0xE0
   1ABF E0                 7939 	.db #0xE0
   1AC0 60                 7940 	.db #0x60
   1AC1 60                 7941 	.db #0x60
   1AC2 30                 7942 	.db #0x30
   1AC3 30                 7943 	.db #0x30
   1AC4 30                 7944 	.db #0x30
   1AC5 30                 7945 	.db #0x30
   1AC6 60                 7946 	.db #0x60
   1AC7 60                 7947 	.db #0x60
   1AC8 C0                 7948 	.db #0xC0
   1AC9 C0                 7949 	.db #0xC0
   1ACA 00                 7950 	.db #0x00
   1ACB 00                 7951 	.db #0x00
   1ACC 01                 7952 	.db #0x01
   1ACD 01                 7953 	.db #0x01
   1ACE 03                 7954 	.db #0x03
   1ACF 03                 7955 	.db #0x03
   1AD0 03                 7956 	.db #0x03
   1AD1 03                 7957 	.db #0x03
   1AD2 03                 7958 	.db #0x03
   1AD3 03                 7959 	.db #0x03
   1AD4 01                 7960 	.db #0x01
   1AD5 01                 7961 	.db #0x01
   1AD6 01                 7962 	.db #0x01
   1AD7 01                 7963 	.db #0x01
   1AD8 00                 7964 	.db #0x00
   1AD9 00                 7965 	.db #0x00
   1ADA 00                 7966 	.db #0x00
   1ADB 00                 7967 	.db #0x00
   1ADC 00                 7968 	.db #0x00
   1ADD 00                 7969 	.db #0x00
   1ADE F0                 7970 	.db #0xF0
   1ADF F0                 7971 	.db #0xF0
   1AE0 18                 7972 	.db #0x18
   1AE1 18                 7973 	.db #0x18
   1AE2 18                 7974 	.db #0x18
   1AE3 18                 7975 	.db #0x18
   1AE4 18                 7976 	.db #0x18
   1AE5 18                 7977 	.db #0x18
   1AE6 B0                 7978 	.db #0xB0
   1AE7 B0                 7979 	.db #0xB0
   1AE8 F0                 7980 	.db #0xF0
   1AE9 F0                 7981 	.db #0xF0
   1AEA 00                 7982 	.db #0x00
   1AEB 00                 7983 	.db #0x00
   1AEC 80                 7984 	.db #0x80
   1AED 80                 7985 	.db #0x80
   1AEE 80                 7986 	.db #0x80
   1AEF 80                 7987 	.db #0x80
   1AF0 80                 7988 	.db #0x80
   1AF1 80                 7989 	.db #0x80
   1AF2 80                 7990 	.db #0x80
   1AF3 80                 7991 	.db #0x80
   1AF4 80                 7992 	.db #0x80
   1AF5 80                 7993 	.db #0x80
   1AF6 80                 7994 	.db #0x80
   1AF7 80                 7995 	.db #0x80
   1AF8 80                 7996 	.db #0x80
   1AF9 80                 7997 	.db #0x80
   1AFA FF                 7998 	.db #0xFF
   1AFB FF                 7999 	.db #0xFF
   1AFC 00                 8000 	.db #0x00
   1AFD 00                 8001 	.db #0x00
   1AFE 00                 8002 	.db #0x00
   1AFF 00                 8003 	.db #0x00
   1B00 00                 8004 	.db #0x00
   1B01 00                 8005 	.db #0x00
   1B02 00                 8006 	.db #0x00
   1B03 00                 8007 	.db #0x00
   1B04 00                 8008 	.db #0x00
   1B05 00                 8009 	.db #0x00
   1B06 00                 8010 	.db #0x00
   1B07 00                 8011 	.db #0x00
   1B08 00                 8012 	.db #0x00
   1B09 00                 8013 	.db #0x00
   1B0A FF                 8014 	.db #0xFF
   1B0B FF                 8015 	.db #0xFF
   1B0C 10                 8016 	.db #0x10
   1B0D 10                 8017 	.db #0x10
   1B0E 10                 8018 	.db #0x10
   1B0F 10                 8019 	.db #0x10
   1B10 10                 8020 	.db #0x10
   1B11 10                 8021 	.db #0x10
   1B12 10                 8022 	.db #0x10
   1B13 10                 8023 	.db #0x10
   1B14 10                 8024 	.db #0x10
   1B15 10                 8025 	.db #0x10
   1B16 10                 8026 	.db #0x10
   1B17 10                 8027 	.db #0x10
   1B18 10                 8028 	.db #0x10
   1B19 10                 8029 	.db #0x10
   1B1A FF                 8030 	.db #0xFF
   1B1B FF                 8031 	.db #0xFF
   1B1C 02                 8032 	.db #0x02
   1B1D 02                 8033 	.db #0x02
   1B1E 02                 8034 	.db #0x02
   1B1F 02                 8035 	.db #0x02
   1B20 02                 8036 	.db #0x02
   1B21 02                 8037 	.db #0x02
   1B22 02                 8038 	.db #0x02
   1B23 02                 8039 	.db #0x02
   1B24 02                 8040 	.db #0x02
   1B25 02                 8041 	.db #0x02
   1B26 02                 8042 	.db #0x02
   1B27 02                 8043 	.db #0x02
   1B28 02                 8044 	.db #0x02
   1B29 02                 8045 	.db #0x02
   1B2A FF                 8046 	.db #0xFF
   1B2B FF                 8047 	.db #0xFF
   1B2C 20                 8048 	.db #0x20
   1B2D 20                 8049 	.db #0x20
   1B2E 20                 8050 	.db #0x20
   1B2F 20                 8051 	.db #0x20
   1B30 20                 8052 	.db #0x20
   1B31 20                 8053 	.db #0x20
   1B32 20                 8054 	.db #0x20
   1B33 20                 8055 	.db #0x20
   1B34 20                 8056 	.db #0x20
   1B35 20                 8057 	.db #0x20
   1B36 20                 8058 	.db #0x20
   1B37 20                 8059 	.db #0x20
   1B38 20                 8060 	.db #0x20
   1B39 20                 8061 	.db #0x20
   1B3A FF                 8062 	.db #0xFF
   1B3B FF                 8063 	.db #0xFF
   1B3C 08                 8064 	.db #0x08
   1B3D 08                 8065 	.db #0x08
   1B3E 08                 8066 	.db #0x08
   1B3F 08                 8067 	.db #0x08
   1B40 08                 8068 	.db #0x08
   1B41 08                 8069 	.db #0x08
   1B42 08                 8070 	.db #0x08
   1B43 08                 8071 	.db #0x08
   1B44 08                 8072 	.db #0x08
   1B45 08                 8073 	.db #0x08
   1B46 08                 8074 	.db #0x08
   1B47 08                 8075 	.db #0x08
   1B48 08                 8076 	.db #0x08
   1B49 08                 8077 	.db #0x08
   1B4A FF                 8078 	.db #0xFF
   1B4B FF                 8079 	.db #0xFF
   1B4C 01                 8080 	.db #0x01
   1B4D 01                 8081 	.db #0x01
   1B4E 01                 8082 	.db #0x01
   1B4F 01                 8083 	.db #0x01
   1B50 01                 8084 	.db #0x01
   1B51 01                 8085 	.db #0x01
   1B52 01                 8086 	.db #0x01
   1B53 01                 8087 	.db #0x01
   1B54 01                 8088 	.db #0x01
   1B55 01                 8089 	.db #0x01
   1B56 01                 8090 	.db #0x01
   1B57 01                 8091 	.db #0x01
   1B58 01                 8092 	.db #0x01
   1B59 01                 8093 	.db #0x01
   1B5A FF                 8094 	.db #0xFF
   1B5B FF                 8095 	.db #0xFF
   1B5C                    8096 _Select_Screen_map:
   1B5C 00                 8097 	.db #0x00
   1B5D 00                 8098 	.db #0x00
   1B5E 00                 8099 	.db #0x00
   1B5F 00                 8100 	.db #0x00
   1B60 00                 8101 	.db #0x00
   1B61 00                 8102 	.db #0x00
   1B62 00                 8103 	.db #0x00
   1B63 00                 8104 	.db #0x00
   1B64 00                 8105 	.db #0x00
   1B65 00                 8106 	.db #0x00
   1B66 00                 8107 	.db #0x00
   1B67 00                 8108 	.db #0x00
   1B68 01                 8109 	.db #0x01
   1B69 02                 8110 	.db #0x02
   1B6A 02                 8111 	.db #0x02
   1B6B 02                 8112 	.db #0x02
   1B6C 02                 8113 	.db #0x02
   1B6D 02                 8114 	.db #0x02
   1B6E 02                 8115 	.db #0x02
   1B6F 03                 8116 	.db #0x03
   1B70 04                 8117 	.db #0x04
   1B71 05                 8118 	.db #0x05
   1B72 06                 8119 	.db #0x06
   1B73 07                 8120 	.db #0x07
   1B74 08                 8121 	.db #0x08
   1B75 09                 8122 	.db #0x09
   1B76 0A                 8123 	.db #0x0A
   1B77 0B                 8124 	.db #0x0B
   1B78 0C                 8125 	.db #0x0C
   1B79 0D                 8126 	.db #0x0D
   1B7A 0E                 8127 	.db #0x0E
   1B7B 0F                 8128 	.db #0x0F
   1B7C 10                 8129 	.db #0x10
   1B7D 11                 8130 	.db #0x11
   1B7E 11                 8131 	.db #0x11
   1B7F 11                 8132 	.db #0x11
   1B80 11                 8133 	.db #0x11
   1B81 11                 8134 	.db #0x11
   1B82 11                 8135 	.db #0x11
   1B83 12                 8136 	.db #0x12
   1B84 13                 8137 	.db #0x13
   1B85 13                 8138 	.db #0x13
   1B86 13                 8139 	.db #0x13
   1B87 13                 8140 	.db #0x13
   1B88 13                 8141 	.db #0x13
   1B89 13                 8142 	.db #0x13
   1B8A 13                 8143 	.db #0x13
   1B8B 13                 8144 	.db #0x13
   1B8C 13                 8145 	.db #0x13
   1B8D 13                 8146 	.db #0x13
   1B8E 13                 8147 	.db #0x13
   1B8F 13                 8148 	.db #0x13
   1B90 10                 8149 	.db #0x10
   1B91 11                 8150 	.db #0x11
   1B92 11                 8151 	.db #0x11
   1B93 11                 8152 	.db #0x11
   1B94 11                 8153 	.db #0x11
   1B95 11                 8154 	.db #0x11
   1B96 11                 8155 	.db #0x11
   1B97 12                 8156 	.db #0x12
   1B98 11                 8157 	.db #0x11
   1B99 11                 8158 	.db #0x11
   1B9A 11                 8159 	.db #0x11
   1B9B 11                 8160 	.db #0x11
   1B9C 11                 8161 	.db #0x11
   1B9D 11                 8162 	.db #0x11
   1B9E 11                 8163 	.db #0x11
   1B9F 11                 8164 	.db #0x11
   1BA0 11                 8165 	.db #0x11
   1BA1 11                 8166 	.db #0x11
   1BA2 11                 8167 	.db #0x11
   1BA3 11                 8168 	.db #0x11
   1BA4 10                 8169 	.db #0x10
   1BA5 11                 8170 	.db #0x11
   1BA6 11                 8171 	.db #0x11
   1BA7 11                 8172 	.db #0x11
   1BA8 11                 8173 	.db #0x11
   1BA9 11                 8174 	.db #0x11
   1BAA 11                 8175 	.db #0x11
   1BAB 12                 8176 	.db #0x12
   1BAC 11                 8177 	.db #0x11
   1BAD 11                 8178 	.db #0x11
   1BAE 11                 8179 	.db #0x11
   1BAF 11                 8180 	.db #0x11
   1BB0 11                 8181 	.db #0x11
   1BB1 11                 8182 	.db #0x11
   1BB2 11                 8183 	.db #0x11
   1BB3 11                 8184 	.db #0x11
   1BB4 11                 8185 	.db #0x11
   1BB5 11                 8186 	.db #0x11
   1BB6 11                 8187 	.db #0x11
   1BB7 11                 8188 	.db #0x11
   1BB8 10                 8189 	.db #0x10
   1BB9 11                 8190 	.db #0x11
   1BBA 11                 8191 	.db #0x11
   1BBB 11                 8192 	.db #0x11
   1BBC 11                 8193 	.db #0x11
   1BBD 11                 8194 	.db #0x11
   1BBE 11                 8195 	.db #0x11
   1BBF 12                 8196 	.db #0x12
   1BC0 11                 8197 	.db #0x11
   1BC1 11                 8198 	.db #0x11
   1BC2 11                 8199 	.db #0x11
   1BC3 11                 8200 	.db #0x11
   1BC4 11                 8201 	.db #0x11
   1BC5 11                 8202 	.db #0x11
   1BC6 11                 8203 	.db #0x11
   1BC7 11                 8204 	.db #0x11
   1BC8 11                 8205 	.db #0x11
   1BC9 11                 8206 	.db #0x11
   1BCA 11                 8207 	.db #0x11
   1BCB 11                 8208 	.db #0x11
   1BCC 10                 8209 	.db #0x10
   1BCD 11                 8210 	.db #0x11
   1BCE 11                 8211 	.db #0x11
   1BCF 11                 8212 	.db #0x11
   1BD0 11                 8213 	.db #0x11
   1BD1 11                 8214 	.db #0x11
   1BD2 11                 8215 	.db #0x11
   1BD3 12                 8216 	.db #0x12
   1BD4 11                 8217 	.db #0x11
   1BD5 11                 8218 	.db #0x11
   1BD6 11                 8219 	.db #0x11
   1BD7 11                 8220 	.db #0x11
   1BD8 11                 8221 	.db #0x11
   1BD9 11                 8222 	.db #0x11
   1BDA 11                 8223 	.db #0x11
   1BDB 11                 8224 	.db #0x11
   1BDC 11                 8225 	.db #0x11
   1BDD 11                 8226 	.db #0x11
   1BDE 11                 8227 	.db #0x11
   1BDF 11                 8228 	.db #0x11
   1BE0 10                 8229 	.db #0x10
   1BE1 11                 8230 	.db #0x11
   1BE2 11                 8231 	.db #0x11
   1BE3 11                 8232 	.db #0x11
   1BE4 11                 8233 	.db #0x11
   1BE5 11                 8234 	.db #0x11
   1BE6 11                 8235 	.db #0x11
   1BE7 12                 8236 	.db #0x12
   1BE8 11                 8237 	.db #0x11
   1BE9 11                 8238 	.db #0x11
   1BEA 11                 8239 	.db #0x11
   1BEB 11                 8240 	.db #0x11
   1BEC 11                 8241 	.db #0x11
   1BED 11                 8242 	.db #0x11
   1BEE 11                 8243 	.db #0x11
   1BEF 11                 8244 	.db #0x11
   1BF0 11                 8245 	.db #0x11
   1BF1 11                 8246 	.db #0x11
   1BF2 11                 8247 	.db #0x11
   1BF3 11                 8248 	.db #0x11
   1BF4 14                 8249 	.db #0x14
   1BF5 15                 8250 	.db #0x15
   1BF6 15                 8251 	.db #0x15
   1BF7 15                 8252 	.db #0x15
   1BF8 15                 8253 	.db #0x15
   1BF9 15                 8254 	.db #0x15
   1BFA 15                 8255 	.db #0x15
   1BFB 16                 8256 	.db #0x16
   1BFC 11                 8257 	.db #0x11
   1BFD 11                 8258 	.db #0x11
   1BFE 11                 8259 	.db #0x11
   1BFF 11                 8260 	.db #0x11
   1C00 11                 8261 	.db #0x11
   1C01 11                 8262 	.db #0x11
   1C02 11                 8263 	.db #0x11
   1C03 11                 8264 	.db #0x11
   1C04 11                 8265 	.db #0x11
   1C05 11                 8266 	.db #0x11
   1C06 11                 8267 	.db #0x11
   1C07 11                 8268 	.db #0x11
   1C08 10                 8269 	.db #0x10
   1C09 11                 8270 	.db #0x11
   1C0A 11                 8271 	.db #0x11
   1C0B 11                 8272 	.db #0x11
   1C0C 11                 8273 	.db #0x11
   1C0D 11                 8274 	.db #0x11
   1C0E 11                 8275 	.db #0x11
   1C0F 12                 8276 	.db #0x12
   1C10 11                 8277 	.db #0x11
   1C11 11                 8278 	.db #0x11
   1C12 11                 8279 	.db #0x11
   1C13 11                 8280 	.db #0x11
   1C14 11                 8281 	.db #0x11
   1C15 11                 8282 	.db #0x11
   1C16 11                 8283 	.db #0x11
   1C17 11                 8284 	.db #0x11
   1C18 11                 8285 	.db #0x11
   1C19 11                 8286 	.db #0x11
   1C1A 11                 8287 	.db #0x11
   1C1B 11                 8288 	.db #0x11
   1C1C 10                 8289 	.db #0x10
   1C1D 11                 8290 	.db #0x11
   1C1E 11                 8291 	.db #0x11
   1C1F 11                 8292 	.db #0x11
   1C20 11                 8293 	.db #0x11
   1C21 11                 8294 	.db #0x11
   1C22 11                 8295 	.db #0x11
   1C23 12                 8296 	.db #0x12
   1C24 11                 8297 	.db #0x11
   1C25 11                 8298 	.db #0x11
   1C26 11                 8299 	.db #0x11
   1C27 11                 8300 	.db #0x11
   1C28 11                 8301 	.db #0x11
   1C29 11                 8302 	.db #0x11
   1C2A 11                 8303 	.db #0x11
   1C2B 11                 8304 	.db #0x11
   1C2C 11                 8305 	.db #0x11
   1C2D 11                 8306 	.db #0x11
   1C2E 11                 8307 	.db #0x11
   1C2F 11                 8308 	.db #0x11
   1C30 10                 8309 	.db #0x10
   1C31 11                 8310 	.db #0x11
   1C32 11                 8311 	.db #0x11
   1C33 11                 8312 	.db #0x11
   1C34 11                 8313 	.db #0x11
   1C35 11                 8314 	.db #0x11
   1C36 11                 8315 	.db #0x11
   1C37 12                 8316 	.db #0x12
   1C38 11                 8317 	.db #0x11
   1C39 11                 8318 	.db #0x11
   1C3A 11                 8319 	.db #0x11
   1C3B 11                 8320 	.db #0x11
   1C3C 11                 8321 	.db #0x11
   1C3D 11                 8322 	.db #0x11
   1C3E 11                 8323 	.db #0x11
   1C3F 11                 8324 	.db #0x11
   1C40 11                 8325 	.db #0x11
   1C41 11                 8326 	.db #0x11
   1C42 11                 8327 	.db #0x11
   1C43 11                 8328 	.db #0x11
   1C44 10                 8329 	.db #0x10
   1C45 11                 8330 	.db #0x11
   1C46 11                 8331 	.db #0x11
   1C47 11                 8332 	.db #0x11
   1C48 11                 8333 	.db #0x11
   1C49 11                 8334 	.db #0x11
   1C4A 11                 8335 	.db #0x11
   1C4B 12                 8336 	.db #0x12
   1C4C 11                 8337 	.db #0x11
   1C4D 11                 8338 	.db #0x11
   1C4E 11                 8339 	.db #0x11
   1C4F 11                 8340 	.db #0x11
   1C50 11                 8341 	.db #0x11
   1C51 11                 8342 	.db #0x11
   1C52 11                 8343 	.db #0x11
   1C53 11                 8344 	.db #0x11
   1C54 11                 8345 	.db #0x11
   1C55 11                 8346 	.db #0x11
   1C56 11                 8347 	.db #0x11
   1C57 11                 8348 	.db #0x11
   1C58 10                 8349 	.db #0x10
   1C59 11                 8350 	.db #0x11
   1C5A 11                 8351 	.db #0x11
   1C5B 11                 8352 	.db #0x11
   1C5C 11                 8353 	.db #0x11
   1C5D 11                 8354 	.db #0x11
   1C5E 11                 8355 	.db #0x11
   1C5F 12                 8356 	.db #0x12
   1C60 11                 8357 	.db #0x11
   1C61 11                 8358 	.db #0x11
   1C62 11                 8359 	.db #0x11
   1C63 11                 8360 	.db #0x11
   1C64 11                 8361 	.db #0x11
   1C65 11                 8362 	.db #0x11
   1C66 11                 8363 	.db #0x11
   1C67 11                 8364 	.db #0x11
   1C68 11                 8365 	.db #0x11
   1C69 11                 8366 	.db #0x11
   1C6A 11                 8367 	.db #0x11
   1C6B 11                 8368 	.db #0x11
   1C6C 10                 8369 	.db #0x10
   1C6D 11                 8370 	.db #0x11
   1C6E 11                 8371 	.db #0x11
   1C6F 11                 8372 	.db #0x11
   1C70 11                 8373 	.db #0x11
   1C71 11                 8374 	.db #0x11
   1C72 11                 8375 	.db #0x11
   1C73 12                 8376 	.db #0x12
   1C74 17                 8377 	.db #0x17
   1C75 18                 8378 	.db #0x18
   1C76 18                 8379 	.db #0x18
   1C77 19                 8380 	.db #0x19
   1C78 18                 8381 	.db #0x18
   1C79 18                 8382 	.db #0x18
   1C7A 1A                 8383 	.db #0x1A
   1C7B 18                 8384 	.db #0x18
   1C7C 18                 8385 	.db #0x18
   1C7D 18                 8386 	.db #0x18
   1C7E 17                 8387 	.db #0x17
   1C7F 18                 8388 	.db #0x18
   1C80 1B                 8389 	.db #0x1B
   1C81 1C                 8390 	.db #0x1C
   1C82 1D                 8391 	.db #0x1D
   1C83 1D                 8392 	.db #0x1D
   1C84 1E                 8393 	.db #0x1E
   1C85 1D                 8394 	.db #0x1D
   1C86 1D                 8395 	.db #0x1D
   1C87 1F                 8396 	.db #0x1F
   1C88 20                 8397 	.db #0x20
   1C89 21                 8398 	.db #0x21
   1C8A 11                 8399 	.db #0x11
   1C8B 22                 8400 	.db #0x22
   1C8C 23                 8401 	.db #0x23
   1C8D 24                 8402 	.db #0x24
   1C8E 25                 8403 	.db #0x25
   1C8F 11                 8404 	.db #0x11
   1C90 26                 8405 	.db #0x26
   1C91 11                 8406 	.db #0x11
   1C92 20                 8407 	.db #0x20
   1C93 27                 8408 	.db #0x27
   1C94 11                 8409 	.db #0x11
   1C95 28                 8410 	.db #0x28
   1C96 29                 8411 	.db #0x29
   1C97 2A                 8412 	.db #0x2A
   1C98 2B                 8413 	.db #0x2B
   1C99 2C                 8414 	.db #0x2C
   1C9A 2D                 8415 	.db #0x2D
   1C9B 2E                 8416 	.db #0x2E
   1C9C 20                 8417 	.db #0x20
   1C9D 2F                 8418 	.db #0x2F
   1C9E 30                 8419 	.db #0x30
   1C9F 22                 8420 	.db #0x22
   1CA0 31                 8421 	.db #0x31
   1CA1 32                 8422 	.db #0x32
   1CA2 25                 8423 	.db #0x25
   1CA3 11                 8424 	.db #0x11
   1CA4 33                 8425 	.db #0x33
   1CA5 11                 8426 	.db #0x11
   1CA6 20                 8427 	.db #0x20
   1CA7 34                 8428 	.db #0x34
   1CA8 11                 8429 	.db #0x11
   1CA9 28                 8430 	.db #0x28
   1CAA 35                 8431 	.db #0x35
   1CAB 36                 8432 	.db #0x36
   1CAC 2B                 8433 	.db #0x2B
   1CAD 37                 8434 	.db #0x37
   1CAE 38                 8435 	.db #0x38
   1CAF 2E                 8436 	.db #0x2E
   1CB0 39                 8437 	.db #0x39
   1CB1 3A                 8438 	.db #0x3A
   1CB2 3A                 8439 	.db #0x3A
   1CB3 3B                 8440 	.db #0x3B
   1CB4 3A                 8441 	.db #0x3A
   1CB5 3A                 8442 	.db #0x3A
   1CB6 3C                 8443 	.db #0x3C
   1CB7 3A                 8444 	.db #0x3A
   1CB8 3A                 8445 	.db #0x3A
   1CB9 3A                 8446 	.db #0x3A
   1CBA 39                 8447 	.db #0x39
   1CBB 3A                 8448 	.db #0x3A
   1CBC 3A                 8449 	.db #0x3A
   1CBD 3D                 8450 	.db #0x3D
   1CBE 3A                 8451 	.db #0x3A
   1CBF 3A                 8452 	.db #0x3A
   1CC0 3E                 8453 	.db #0x3E
   1CC1 3A                 8454 	.db #0x3A
   1CC2 3A                 8455 	.db #0x3A
   1CC3 3F                 8456 	.db #0x3F
   1CC4                    8457 __str_0:
   1CC4 25 73              8458 	.ascii "%s"
   1CC6 0A                 8459 	.db 0x0A
   1CC7 00                 8460 	.db 0x00
   1CC8                    8461 _str_1:
   1CC8 48 65 6C 6C 6F 2C  8462 	.ascii "Hello, I'm a CPU!"
        20 49 27 6D 20 61
        20 43 50 55 21
   1CD9 00                 8463 	.db 0x00
   1CDA                    8464 _str_2:
   1CDA 4C 65 74 27 73 20  8465 	.ascii "Let's battle!"
        62 61 74 74 6C 65
        21
   1CE7 00                 8466 	.db 0x00
   1CE8                    8467 _str_3:
   1CE8 59 6F 75 20 77 6F  8468 	.ascii "You won't beat me!"
        6E 27 74 20 62 65
        61 74 20 6D 65 21
   1CFA 00                 8469 	.db 0x00
   1CFB                    8470 _str_4:
   1CFB 47 65 74 20 72 65  8471 	.ascii "Get ready!"
        61 64 79 21
   1D05 00                 8472 	.db 0x00
                           8473 ;	main.c 52
                           8474 ; genLabel
                           8475 ; genFunction
                           8476 ;	---------------------------------
                           8477 ; Function main
                           8478 ; ---------------------------------
   1D06                    8479 ___main_start:
   1D06                    8480 _main:
                           8481 	
                           8482 ;	main.c 53
                           8483 ; genCall
   1D06 CD 23 1D           8484 	call	_setUpEniroment
                           8485 ;	main.c 54
                           8486 ; genCall
   1D09 CD 9E 0A           8487 	call	_splashPage
                           8488 ;	main.c 56
                           8489 ; genOr
                           8490 ; AOP_SFR for _LCDC_REG
                           8491 ; Type res[4] = l[4]&r[1]
                           8492 ; Size res[1] = l[1]&r[1]
   1D0C F0 00              8493 	ldh	a,(_LCDC_REG+0) ; x
   1D0E F6 01              8494 	or	a,#0x01
   1D10 E0 00              8495 	ldh	(_LCDC_REG+0),a
                           8496 ;	main.c 57
                           8497 ; genOr
                           8498 ; AOP_SFR for _LCDC_REG
                           8499 ; Type res[4] = l[4]&r[1]
                           8500 ; Size res[1] = l[1]&r[1]
   1D12 F0 00              8501 	ldh	a,(_LCDC_REG+0) ; x
   1D14 F6 02              8502 	or	a,#0x02
   1D16 E0 00              8503 	ldh	(_LCDC_REG+0),a
                           8504 ;	main.c 59
                           8505 ; genCall
   1D18 CD 30 1D           8506 	call	_setUpPlayer
                           8507 ;	main.c 60
                           8508 ; genCall
   1D1B CD 14 22           8509 	call	_Navigation
                           8510 ;	main.c 61
                           8511 ; genRet
   1D1E 11 00 00           8512 	ld	de,#0x0000
                           8513 ; genLabel
   1D21                    8514 00101$:
                           8515 ; genEndFunction
                           8516 	
   1D21 C9                 8517 	ret
   1D22                    8518 ___main_end:
   1D22                    8519 _movementSkip:
   1D22 04                 8520 	.db #0x04
                           8521 ;	main.c 65
                           8522 ; genLabel
                           8523 ; genFunction
                           8524 ;	---------------------------------
                           8525 ; Function setUpEniroment
                           8526 ; ---------------------------------
   1D23                    8527 ___setUpEniroment_start:
   1D23                    8528 _setUpEniroment:
                           8529 	
                           8530 ;	main.c 66
                           8531 ; genAssign
                           8532 ; AOP_SFR for _NR52_REG
   1D23 3E 80              8533 	ld	a,#0x80
   1D25 E0 00              8534 	ldh	(_NR52_REG+0),a
                           8535 ;	main.c 67
                           8536 ; genAssign
                           8537 ; AOP_SFR for _NR50_REG
   1D27 3E 77              8538 	ld	a,#0x77
   1D29 E0 00              8539 	ldh	(_NR50_REG+0),a
                           8540 ;	main.c 68
                           8541 ; genAssign
                           8542 ; AOP_SFR for _NR51_REG
   1D2B 3E FF              8543 	ld	a,#0xFF
   1D2D E0 00              8544 	ldh	(_NR51_REG+0),a
                           8545 ; genLabel
   1D2F                    8546 00101$:
                           8547 ; genEndFunction
                           8548 	
   1D2F C9                 8549 	ret
   1D30                    8550 ___setUpEniroment_end:
                           8551 ;	main.c 72
                           8552 ; genLabel
                           8553 ; genFunction
                           8554 ;	---------------------------------
                           8555 ; Function setUpPlayer
                           8556 ; ---------------------------------
   1D30                    8557 ___setUpPlayer_start:
   1D30                    8558 _setUpPlayer:
                           8559 	
                           8560 ;	main.c 73
                           8561 ; genIpush
   1D30 21 21 00           8562 	ld	hl,#_Female_Player + 0
   1D33 E5                 8563 	push	hl
                           8564 ; genIpush
   1D34 3E 08              8565 	ld	a,#0x08
   1D36 F5                 8566 	push	af
   1D37 33                 8567 	inc	sp
                           8568 ; genIpush
   1D38 3E 00              8569 	ld	a,#0x00
   1D3A F5                 8570 	push	af
   1D3B 33                 8571 	inc	sp
                           8572 ; genCall
   1D3C CD 00 00           8573 	call	_set_sprite_data
   1D3F E8 04              8574 	lda	sp,4(sp)
                           8575 ;	main.c 74
                           8576 ; genPlus
                           8577 ; genPlusIncr
   1D41 11 B6 00           8578 	ld	de,#_player + 0 + 4
                           8579 ; genAssign (pointer)
   1D44 3E 50              8580 	ld	a,#0x50
   1D46 12                 8581 	ld	(de),a
                           8582 ;	main.c 75
                           8583 ; genPlus
                           8584 ; genPlusIncr
   1D47 11 B7 00           8585 	ld	de,#_player + 0 + 5
                           8586 ; genAssign (pointer)
   1D4A 3E 4E              8587 	ld	a,#0x4E
   1D4C 12                 8588 	ld	(de),a
                           8589 ;	main.c 76
                           8590 ; genPlus
                           8591 ; genPlusIncr
   1D4D 11 BA 00           8592 	ld	de,#_player + 0 + 8
                           8593 ; genAssign (pointer)
   1D50 3E 01              8594 	ld	a,#0x01
   1D52 12                 8595 	ld	(de),a
                           8596 ;	main.c 78
                           8597 ; genIpush
   1D53 3E 00              8598 	ld	a,#0x00
   1D55 F5                 8599 	push	af
   1D56 33                 8600 	inc	sp
                           8601 ; genIpush
   1D57 3E 00              8602 	ld	a,#0x00
   1D59 F5                 8603 	push	af
   1D5A 33                 8604 	inc	sp
                           8605 ; genCall
   1D5B CD 00 00           8606 	call	_set_sprite_tile
   1D5E E8 02              8607 	lda	sp,2(sp)
                           8608 ;	main.c 79
                           8609 ; genAssign (pointer)
   1D60 11 B2 00           8610 	ld	de,#_player + 0
   1D63 3E 00              8611 	ld	a,#0x00
   1D65 12                 8612 	ld	(de),a
                           8613 ;	main.c 80
                           8614 ; genIpush
   1D66 3E 01              8615 	ld	a,#0x01
   1D68 F5                 8616 	push	af
   1D69 33                 8617 	inc	sp
                           8618 ; genIpush
   1D6A 3E 01              8619 	ld	a,#0x01
   1D6C F5                 8620 	push	af
   1D6D 33                 8621 	inc	sp
                           8622 ; genCall
   1D6E CD 00 00           8623 	call	_set_sprite_tile
   1D71 E8 02              8624 	lda	sp,2(sp)
                           8625 ;	main.c 81
                           8626 ; genPlus
                           8627 ; genPlusIncr
   1D73 11 B3 00           8628 	ld	de,#_player + 0 + 1
                           8629 ; genAssign (pointer)
   1D76 3E 01              8630 	ld	a,#0x01
   1D78 12                 8631 	ld	(de),a
                           8632 ;	main.c 82
                           8633 ; genIpush
   1D79 3E 02              8634 	ld	a,#0x02
   1D7B F5                 8635 	push	af
   1D7C 33                 8636 	inc	sp
                           8637 ; genIpush
   1D7D 3E 02              8638 	ld	a,#0x02
   1D7F F5                 8639 	push	af
   1D80 33                 8640 	inc	sp
                           8641 ; genCall
   1D81 CD 00 00           8642 	call	_set_sprite_tile
   1D84 E8 02              8643 	lda	sp,2(sp)
                           8644 ;	main.c 83
                           8645 ; genPlus
                           8646 ; genPlusIncr
   1D86 11 B4 00           8647 	ld	de,#_player + 0 + 2
                           8648 ; genAssign (pointer)
   1D89 3E 02              8649 	ld	a,#0x02
   1D8B 12                 8650 	ld	(de),a
                           8651 ;	main.c 84
                           8652 ; genIpush
   1D8C 3E 03              8653 	ld	a,#0x03
   1D8E F5                 8654 	push	af
   1D8F 33                 8655 	inc	sp
                           8656 ; genIpush
   1D90 3E 03              8657 	ld	a,#0x03
   1D92 F5                 8658 	push	af
   1D93 33                 8659 	inc	sp
                           8660 ; genCall
   1D94 CD 00 00           8661 	call	_set_sprite_tile
   1D97 E8 02              8662 	lda	sp,2(sp)
                           8663 ;	main.c 85
                           8664 ; genPlus
                           8665 ; genPlusIncr
   1D99 11 B5 00           8666 	ld	de,#_player + 0 + 3
                           8667 ; genAssign (pointer)
   1D9C 3E 03              8668 	ld	a,#0x03
   1D9E 12                 8669 	ld	(de),a
                           8670 ; genLabel
   1D9F                    8671 00101$:
                           8672 ; genEndFunction
                           8673 	
   1D9F C9                 8674 	ret
   1DA0                    8675 ___setUpPlayer_end:
                           8676 ;	main.c 88
                           8677 ; genLabel
                           8678 ; genFunction
                           8679 ;	---------------------------------
                           8680 ; Function displayRoom
                           8681 ; ---------------------------------
   1DA0                    8682 ___displayRoom_start:
   1DA0                    8683 _displayRoom:
   1DA0 C5                 8684 	push	bc
   1DA1 E8 FC              8685 	lda	sp,-4(sp)
                           8686 ;	main.c 89
                           8687 ; genIpush
   1DA3 3E 07              8688 	ld	a,#0x07
   1DA5 F5                 8689 	push	af
   1DA6 33                 8690 	inc	sp
                           8691 ; genIpush
                           8692 ; AOP_HL for _roomType
   1DA7 21 C8 00           8693 	ld	hl,#_roomType + 0
   1DAA 7E                 8694 	ld	a,(hl)
   1DAB F5                 8695 	push	af
   1DAC 33                 8696 	inc	sp
                           8697 ; genCall
   1DAD CD 00 00           8698 	call	__muluchar
   1DB0 4B                 8699 	ld	c,e
   1DB1 E8 02              8700 	lda	sp,2(sp)
                           8701 ; genPlus
                           8702 ; AOP_STK for _displayRoom_sloc1_1_0
                           8703 ;	genPlusIncr failed
   1DB3 11 79 13           8704 	ld	de,#_rooms + 0
   1DB6 69                 8705 	ld	l,c
   1DB7 26 00              8706 	ld	h,#0x00
   1DB9 19                 8707 	add	hl,de
   1DBA 7D                 8708 	ld	a,l
   1DBB 54                 8709 	ld	d,h
   1DBC F8 00              8710 	lda	hl,0(sp)
   1DBE 22                 8711 	ld	(hl+),a
   1DBF 72                 8712 	ld	(hl),d
                           8713 ; genPointerGet
                           8714 ; AOP_STK for _displayRoom_sloc1_1_0
                           8715 ; AOP_STK for _displayRoom_sloc0_1_0
   1DC0 2B                 8716 	dec	hl
   1DC1 5E                 8717 	ld	e,(hl)
   1DC2 23                 8718 	inc	hl
   1DC3 56                 8719 	ld	d,(hl)
   1DC4 1A                 8720 	ld	a,(de)
   1DC5 23                 8721 	inc	hl
   1DC6 77                 8722 	ld	(hl),a
   1DC7 13                 8723 	inc	de
   1DC8 1A                 8724 	ld	a,(de)
   1DC9 23                 8725 	inc	hl
   1DCA 77                 8726 	ld	(hl),a
                           8727 ; genPlus
                           8728 ; AOP_STK for _displayRoom_sloc1_1_0
                           8729 ; genPlusIncr
                           8730 ;	genPlusIncr failed
   1DCB F8 00              8731 	lda	hl,0(sp)
   1DCD 5E                 8732 	ld	e,(hl)
   1DCE 23                 8733 	inc	hl
   1DCF 56                 8734 	ld	d,(hl)
   1DD0 21 04 00           8735 	ld	hl,#0x0004
   1DD3 19                 8736 	add	hl,de
   1DD4 5D                 8737 	ld	e,l
   1DD5 54                 8738 	ld	d,h
                           8739 ; genPointerGet
   1DD6 1A                 8740 	ld	a,(de)
   1DD7 4F                 8741 	ld	c,a
                           8742 ; genIpush
                           8743 ; AOP_STK for _displayRoom_sloc0_1_0
   1DD8 F8 02              8744 	lda	hl,2(sp)
   1DDA 2A                 8745 	ld	a,(hl+)
   1DDB 66                 8746 	ld	h,(hl)
   1DDC 6F                 8747 	ld	l,a
   1DDD E5                 8748 	push	hl
                           8749 ; genIpush
   1DDE 79                 8750 	ld	a,c
   1DDF F5                 8751 	push	af
   1DE0 33                 8752 	inc	sp
                           8753 ; genIpush
   1DE1 3E 00              8754 	ld	a,#0x00
   1DE3 F5                 8755 	push	af
   1DE4 33                 8756 	inc	sp
                           8757 ; genCall
   1DE5 CD 00 00           8758 	call	_set_bkg_data
   1DE8 E8 04              8759 	lda	sp,4(sp)
                           8760 ;	main.c 90
                           8761 ; genPlus
                           8762 ; AOP_STK for _displayRoom_sloc1_1_0
                           8763 ; genPlusIncr
   1DEA F8 00              8764 	lda	hl,0(sp)
   1DEC 5E                 8765 	ld	e,(hl)
   1DED 23                 8766 	inc	hl
   1DEE 56                 8767 	ld	d,(hl)
   1DEF 13                 8768 	inc	de
   1DF0 13                 8769 	inc	de
                           8770 ; genPointerGet
                           8771 ; Removed redundent load
                           8772 ; Removed redundent load
   1DF1 1A                 8773 	ld	a,(de)
   1DF2 4F                 8774 	ld	c,a
   1DF3 13                 8775 	inc	de
   1DF4 1A                 8776 	ld	a,(de)
   1DF5 47                 8777 	ld	b,a
                           8778 ; genIpush
   1DF6 C5                 8779 	push	bc
                           8780 ; genIpush
   1DF7 3E 12              8781 	ld	a,#0x12
   1DF9 F5                 8782 	push	af
   1DFA 33                 8783 	inc	sp
                           8784 ; genIpush
   1DFB 3E 14              8785 	ld	a,#0x14
   1DFD F5                 8786 	push	af
   1DFE 33                 8787 	inc	sp
                           8788 ; genIpush
   1DFF 3E 00              8789 	ld	a,#0x00
   1E01 F5                 8790 	push	af
   1E02 33                 8791 	inc	sp
                           8792 ; genIpush
   1E03 3E 00              8793 	ld	a,#0x00
   1E05 F5                 8794 	push	af
   1E06 33                 8795 	inc	sp
                           8796 ; genCall
   1E07 CD 00 00           8797 	call	_set_bkg_tiles
   1E0A E8 06              8798 	lda	sp,6(sp)
                           8799 ; genLabel
   1E0C                    8800 00101$:
                           8801 ; genEndFunction
   1E0C E8 04              8802 	lda	sp,4(sp)
   1E0E C1                 8803 	pop	bc
   1E0F C9                 8804 	ret
   1E10                    8805 ___displayRoom_end:
                           8806 ;	main.c 93
                           8807 ; genLabel
                           8808 ; genFunction
                           8809 ;	---------------------------------
                           8810 ; Function NavgateCurrentRoom
                           8811 ; ---------------------------------
   1E10                    8812 ___NavgateCurrentRoom_start:
   1E10                    8813 _NavgateCurrentRoom:
   1E10 C5                 8814 	push	bc
                           8815 	
                           8816 ;	main.c 94
                           8817 ; genCall
   1E11 CD AE 25           8818 	call	_changeCPU
                           8819 ;	main.c 95
                           8820 ; genCall
   1E14 CD A0 1D           8821 	call	_displayRoom
                           8822 ;	main.c 96
                           8823 ; genPlus
                           8824 ; genPlusIncr
   1E17 11 B7 00           8825 	ld	de,#_player + 0 + 5
                           8826 ; genPointerGet
   1E1A 1A                 8827 	ld	a,(de)
   1E1B 4F                 8828 	ld	c,a
                           8829 ; genPlus
                           8830 ; genPlusIncr
   1E1C 11 B6 00           8831 	ld	de,#_player + 0 + 4
                           8832 ; genPointerGet
   1E1F 1A                 8833 	ld	a,(de)
   1E20 47                 8834 	ld	b,a
                           8835 ; genIpush
   1E21 79                 8836 	ld	a,c
   1E22 F5                 8837 	push	af
   1E23 33                 8838 	inc	sp
                           8839 ; genIpush
   1E24 78                 8840 	ld	a,b
   1E25 F5                 8841 	push	af
   1E26 33                 8842 	inc	sp
                           8843 ; genIpush
   1E27 21 B2 00           8844 	ld	hl,#_player + 0
   1E2A E5                 8845 	push	hl
                           8846 ; genCall
   1E2B CD 96 24           8847 	call	_movegamecharacter
   1E2E E8 04              8848 	lda	sp,4(sp)
                           8849 ;	main.c 97
                           8850 ; genIpush
   1E30 3E 05              8851 	ld	a,#0x05
   1E32 F5                 8852 	push	af
   1E33 33                 8853 	inc	sp
                           8854 ; genCall
   1E34 CD 52 0A           8855 	call	_fadein
   1E37 E8 01              8856 	lda	sp,1(sp)
                           8857 ;	main.c 98
                           8858 ; genCall
   1E39 CD 3E 1E           8859 	call	_moveInput
                           8860 ; genLabel
   1E3C                    8861 00101$:
                           8862 ; genEndFunction
                           8863 	
   1E3C C1                 8864 	pop	bc
   1E3D C9                 8865 	ret
   1E3E                    8866 ___NavgateCurrentRoom_end:
                           8867 ;	main.c 104
                           8868 ; genLabel
                           8869 ; genFunction
                           8870 ;	---------------------------------
                           8871 ; Function moveInput
                           8872 ; ---------------------------------
   1E3E                    8873 ___moveInput_start:
   1E3E                    8874 _moveInput:
   1E3E C5                 8875 	push	bc
   1E3F E8 EE              8876 	lda	sp,-18(sp)
                           8877 ;	main.c 105
                           8878 ; genPlus
                           8879 ; AOP_STK for _moveInput_sloc0_1_0
                           8880 ; genPlusIncr
                           8881 ;	genPlusIncr failed
   1E41 11 B2 00           8882 	ld	de,#_player + 0
   1E44 21 08 00           8883 	ld	hl,#0x0008
   1E47 19                 8884 	add	hl,de
   1E48 7D                 8885 	ld	a,l
   1E49 54                 8886 	ld	d,h
   1E4A F8 0F              8887 	lda	hl,15(sp)
   1E4C 22                 8888 	ld	(hl+),a
   1E4D 72                 8889 	ld	(hl),d
                           8890 ; genPlus
                           8891 ; AOP_STK for _moveInput_sloc1_1_0
                           8892 ; genPlusIncr
                           8893 ;	genPlusIncr failed
   1E4E 11 B2 00           8894 	ld	de,#_player + 0
   1E51 21 05 00           8895 	ld	hl,#0x0005
   1E54 19                 8896 	add	hl,de
   1E55 7D                 8897 	ld	a,l
   1E56 54                 8898 	ld	d,h
   1E57 F8 0D              8899 	lda	hl,13(sp)
   1E59 22                 8900 	ld	(hl+),a
   1E5A 72                 8901 	ld	(hl),d
                           8902 ; genPlus
                           8903 ; AOP_STK for _moveInput_sloc2_1_0
                           8904 ; genPlusIncr
                           8905 ;	genPlusIncr failed
   1E5B 11 B2 00           8906 	ld	de,#_player + 0
   1E5E 21 04 00           8907 	ld	hl,#0x0004
   1E61 19                 8908 	add	hl,de
   1E62 7D                 8909 	ld	a,l
   1E63 54                 8910 	ld	d,h
   1E64 F8 0B              8911 	lda	hl,11(sp)
   1E66 22                 8912 	ld	(hl+),a
   1E67 72                 8913 	ld	(hl),d
                           8914 ; genPlus
                           8915 ; AOP_STK for _moveInput_sloc3_1_0
                           8916 ; genPlusIncr
                           8917 ;	genPlusIncr failed
   1E68 11 BC 00           8918 	ld	de,#_cpu + 0
   1E6B 21 09 00           8919 	ld	hl,#0x0009
   1E6E 19                 8920 	add	hl,de
   1E6F 7D                 8921 	ld	a,l
   1E70 54                 8922 	ld	d,h
   1E71 F8 09              8923 	lda	hl,9(sp)
   1E73 22                 8924 	ld	(hl+),a
   1E74 72                 8925 	ld	(hl),d
                           8926 ; genPlus
                           8927 ; AOP_STK for _moveInput_sloc4_1_0
                           8928 ; genPlusIncr
                           8929 ;	genPlusIncr failed
   1E75 11 BC 00           8930 	ld	de,#_cpu + 0
   1E78 21 0B 00           8931 	ld	hl,#0x000B
   1E7B 19                 8932 	add	hl,de
   1E7C 7D                 8933 	ld	a,l
   1E7D 54                 8934 	ld	d,h
   1E7E F8 07              8935 	lda	hl,7(sp)
   1E80 22                 8936 	ld	(hl+),a
   1E81 72                 8937 	ld	(hl),d
                           8938 ; genLabel
   1E82                    8939 00126$:
                           8940 ;	main.c 106
                           8941 ; genAssign
                           8942 ; AOP_STK for _moveInput_results_2_2
   1E82 F8 11              8943 	lda	hl,17(sp)
   1E84 36 00              8944 	ld	(hl),#0x00
                           8945 ;	main.c 108
                           8946 ; genCall
   1E86 CD 00 00           8947 	call	_joypad
   1E89 43                 8948 	ld	b,e
                           8949 ; genCmpEq
   1E8A 78                 8950 	ld	a,b ; 2
   1E8B FE 01              8951 	cp	a,#0x01
                           8952 ; Rule 5
   1E8D CA 12 1F           8953 	jp	z,00108$
   1E90                    8954 00147$:
                           8955 ; genCmpEq
   1E90 78                 8956 	ld	a,b ; 2
   1E91 FE 02              8957 	cp	a,#0x02
                           8958 ; Rule 5
   1E93 CA AB 1E           8959 	jp	z,00104$
   1E96                    8960 00148$:
                           8961 ; genCmpEq
   1E96 78                 8962 	ld	a,b ; 2
   1E97 FE 04              8963 	cp	a,#0x04
                           8964 ; Rule 5
   1E99 CA 84 1F           8965 	jp	z,00112$
   1E9C                    8966 00149$:
                           8967 ; genCmpEq
   1E9C 78                 8968 	ld	a,b ; 2
   1E9D FE 08              8969 	cp	a,#0x08
                           8970 ; Rule 5
   1E9F CA 0A 20           8971 	jp	z,00116$
   1EA2                    8972 00150$:
                           8973 ; genCmpEq
   1EA2 78                 8974 	ld	a,b ; 2
   1EA3 FE 10              8975 	cp	a,#0x10
                           8976 ; Rule 5
   1EA5 CA 7D 20           8977 	jp	z,00121$
   1EA8                    8978 00151$:
                           8979 ; genGoto
   1EA8 C3 E4 20           8980 	jp	00122$
                           8981 ;	main.c 114
                           8982 ; genLabel
   1EAB                    8983 00104$:
                           8984 ;	main.c 110
                           8985 ; genPointerGet
                           8986 ; AOP_STK for _moveInput_sloc0_1_0
   1EAB F8 0F              8987 	lda	hl,15(sp)
   1EAD 5E                 8988 	ld	e,(hl)
   1EAE 23                 8989 	inc	hl
   1EAF 56                 8990 	ld	d,(hl)
   1EB0 1A                 8991 	ld	a,(de)
   1EB1 47                 8992 	ld	b,a
                           8993 ; genCmpEq
   1EB2 78                 8994 	ld	a,b ; 2
   1EB3 FE 02              8995 	cp	a,#0x02
   1EB5 C2 BA 1E           8996 	jp	nz,00152$
   1EB8 18 03              8997 	jr	00153$
   1EBA                    8998 00152$:
   1EBA C3 07 1F           8999 	jp	00102$
   1EBD                    9000 00153$:
                           9001 ; genPointerGet
                           9002 ; AOP_STK for _moveInput_sloc1_1_0
                           9003 ; AOP_STK for _moveInput_sloc6_1_0
   1EBD F8 0D              9004 	lda	hl,13(sp)
   1EBF 5E                 9005 	ld	e,(hl)
   1EC0 23                 9006 	inc	hl
   1EC1 56                 9007 	ld	d,(hl)
   1EC2 1A                 9008 	ld	a,(de)
   1EC3 F8 05              9009 	lda	hl,5(sp)
   1EC5 77                 9010 	ld	(hl),a
                           9011 ; genPointerGet
                           9012 ; AOP_STK for _moveInput_sloc2_1_0
                           9013 ; AOP_STK for _moveInput_sloc5_1_0
   1EC6 F8 0B              9014 	lda	hl,11(sp)
   1EC8 5E                 9015 	ld	e,(hl)
   1EC9 23                 9016 	inc	hl
   1ECA 56                 9017 	ld	d,(hl)
   1ECB 1A                 9018 	ld	a,(de)
   1ECC F8 06              9019 	lda	hl,6(sp)
   1ECE 77                 9020 	ld	(hl),a
                           9021 ; genAssign
                           9022 ; AOP_HL for _movementSkip
   1ECF 21 22 1D           9023 	ld	hl,#_movementSkip + 0
   1ED2 4E                 9024 	ld	c,(hl)
                           9025 ; genMinus
                           9026 ; AOP_STK for _moveInput_sloc5_1_0
   1ED3 F8 06              9027 	lda	hl,6(sp)
   1ED5 7E                 9028 	ld	a,(hl)
   1ED6 91                 9029 	sub	a,c
   1ED7 47                 9030 	ld	b,a
                           9031 ; genLeftShift
   1ED8 79                 9032 	ld	a,c
   1ED9 87                 9033 	add	a,a
   1EDA 4F                 9034 	ld	c,a
                           9035 ; genMinus
                           9036 ; AOP_STK for _moveInput_sloc5_1_0
   1EDB 7E                 9037 	ld	a,(hl)
   1EDC 91                 9038 	sub	a,c
   1EDD 4F                 9039 	ld	c,a
                           9040 ; genIpush
                           9041 ; AOP_STK for _moveInput_sloc6_1_0
   1EDE 2B                 9042 	dec	hl
   1EDF 7E                 9043 	ld	a,(hl)
   1EE0 F5                 9044 	push	af
   1EE1 33                 9045 	inc	sp
                           9046 ; genIpush
   1EE2 78                 9047 	ld	a,b
   1EE3 F5                 9048 	push	af
   1EE4 33                 9049 	inc	sp
                           9050 ; genIpush
                           9051 ; AOP_STK for _moveInput_sloc6_1_0
   1EE5 7E                 9052 	ld	a,(hl)
   1EE6 F5                 9053 	push	af
   1EE7 33                 9054 	inc	sp
                           9055 ; genIpush
   1EE8 79                 9056 	ld	a,c
   1EE9 F5                 9057 	push	af
   1EEA 33                 9058 	inc	sp
                           9059 ; genCall
   1EEB CD 42 23           9060 	call	_canplayermove
   1EEE 4B                 9061 	ld	c,e
   1EEF E8 04              9062 	lda	sp,4(sp)
                           9063 ; genIfx
                           9064 ; Removed redundent or a,a
   1EF1 AF                 9065 	xor	a,a
   1EF2 B1                 9066 	or	a,c
   1EF3 CA 07 1F           9067 	jp	z,00102$
                           9068 ;	main.c 111
                           9069 ; genIpush
                           9070 ; AOP_STK for _moveInput_sloc6_1_0
   1EF6 F8 05              9071 	lda	hl,5(sp)
   1EF8 7E                 9072 	ld	a,(hl)
   1EF9 F5                 9073 	push	af
   1EFA 33                 9074 	inc	sp
                           9075 ; genIpush
   1EFB 78                 9076 	ld	a,b
   1EFC F5                 9077 	push	af
   1EFD 33                 9078 	inc	sp
                           9079 ; genIpush
   1EFE 21 B2 00           9080 	ld	hl,#_player + 0
   1F01 E5                 9081 	push	hl
                           9082 ; genCall
   1F02 CD 96 24           9083 	call	_movegamecharacter
   1F05 E8 04              9084 	lda	sp,4(sp)
                           9085 ; genLabel
   1F07                    9086 00102$:
                           9087 ;	main.c 114
                           9088 ; genAssign (pointer)
                           9089 ; AOP_STK for _moveInput_sloc0_1_0
   1F07 F8 0F              9090 	lda	hl,15(sp)
   1F09 5E                 9091 	ld	e,(hl)
   1F0A 23                 9092 	inc	hl
   1F0B 56                 9093 	ld	d,(hl)
   1F0C 3E 02              9094 	ld	a,#0x02
   1F0E 12                 9095 	ld	(de),a
                           9096 ;	main.c 115
                           9097 ; genGoto
   1F0F C3 E4 20           9098 	jp	00122$
                           9099 ;	main.c 121
                           9100 ; genLabel
   1F12                    9101 00108$:
                           9102 ;	main.c 117
                           9103 ; genPointerGet
                           9104 ; AOP_STK for _moveInput_sloc0_1_0
   1F12 F8 0F              9105 	lda	hl,15(sp)
   1F14 5E                 9106 	ld	e,(hl)
   1F15 23                 9107 	inc	hl
   1F16 56                 9108 	ld	d,(hl)
   1F17 1A                 9109 	ld	a,(de)
   1F18 4F                 9110 	ld	c,a
                           9111 ; genCmpEq
   1F19 79                 9112 	ld	a,c ; 2
   1F1A FE 03              9113 	cp	a,#0x03
   1F1C C2 21 1F           9114 	jp	nz,00154$
   1F1F 18 03              9115 	jr	00155$
   1F21                    9116 00154$:
   1F21 C3 79 1F           9117 	jp	00106$
   1F24                    9118 00155$:
                           9119 ; genPointerGet
                           9120 ; AOP_STK for _moveInput_sloc1_1_0
                           9121 ; AOP_STK for _moveInput_sloc5_1_0
   1F24 F8 0D              9122 	lda	hl,13(sp)
   1F26 5E                 9123 	ld	e,(hl)
   1F27 23                 9124 	inc	hl
   1F28 56                 9125 	ld	d,(hl)
   1F29 1A                 9126 	ld	a,(de)
   1F2A F8 06              9127 	lda	hl,6(sp)
   1F2C 77                 9128 	ld	(hl),a
                           9129 ; genPointerGet
                           9130 ; AOP_STK for _moveInput_sloc2_1_0
                           9131 ; AOP_STK for _moveInput_sloc6_1_0
   1F2D F8 0B              9132 	lda	hl,11(sp)
   1F2F 5E                 9133 	ld	e,(hl)
   1F30 23                 9134 	inc	hl
   1F31 56                 9135 	ld	d,(hl)
   1F32 1A                 9136 	ld	a,(de)
   1F33 F8 05              9137 	lda	hl,5(sp)
   1F35 77                 9138 	ld	(hl),a
                           9139 ; genAssign
                           9140 ; AOP_HL for _movementSkip
   1F36 21 22 1D           9141 	ld	hl,#_movementSkip + 0
   1F39 46                 9142 	ld	b,(hl)
                           9143 ; genPlus
                           9144 ; AOP_STK for _moveInput_sloc6_1_0
                           9145 ;	genPlusIncr failed
   1F3A F8 05              9146 	lda	hl,5(sp)
   1F3C 7E                 9147 	ld	a,(hl)
   1F3D 80                 9148 	add	a,b
   1F3E 4F                 9149 	ld	c,a
                           9150 ; genLeftShift
   1F3F 78                 9151 	ld	a,b
   1F40 87                 9152 	add	a,a
   1F41 47                 9153 	ld	b,a
                           9154 ; genPlus
                           9155 ; AOP_STK for _moveInput_sloc6_1_0
                           9156 ;	genPlusIncr failed
   1F42 7E                 9157 	ld	a,(hl)
   1F43 80                 9158 	add	a,b
   1F44 77                 9159 	ld	(hl),a
                           9160 ; genLeftShift
                           9161 ; AOP_HL for _spritesize
   1F45 21 A1 00           9162 	ld	hl,#_spritesize + 0
   1F48 7E                 9163 	ld	a,(hl)
   1F49 87                 9164 	add	a,a
   1F4A 47                 9165 	ld	b,a
                           9166 ; genPlus
                           9167 ; AOP_STK for _moveInput_sloc6_1_0
                           9168 ;	genPlusIncr failed
   1F4B F8 05              9169 	lda	hl,5(sp)
   1F4D 7E                 9170 	ld	a,(hl)
   1F4E 80                 9171 	add	a,b
   1F4F 47                 9172 	ld	b,a
                           9173 ; genIpush
                           9174 ; AOP_STK for _moveInput_sloc5_1_0
   1F50 23                 9175 	inc	hl
   1F51 7E                 9176 	ld	a,(hl)
   1F52 F5                 9177 	push	af
   1F53 33                 9178 	inc	sp
                           9179 ; genIpush
   1F54 79                 9180 	ld	a,c
   1F55 F5                 9181 	push	af
   1F56 33                 9182 	inc	sp
                           9183 ; genIpush
                           9184 ; AOP_STK for _moveInput_sloc5_1_0
   1F57 7E                 9185 	ld	a,(hl)
   1F58 F5                 9186 	push	af
   1F59 33                 9187 	inc	sp
                           9188 ; genIpush
   1F5A 78                 9189 	ld	a,b
   1F5B F5                 9190 	push	af
   1F5C 33                 9191 	inc	sp
                           9192 ; genCall
   1F5D CD 42 23           9193 	call	_canplayermove
   1F60 43                 9194 	ld	b,e
   1F61 E8 04              9195 	lda	sp,4(sp)
                           9196 ; genIfx
                           9197 ; Removed redundent or a,a
   1F63 AF                 9198 	xor	a,a
   1F64 B0                 9199 	or	a,b
   1F65 CA 79 1F           9200 	jp	z,00106$
                           9201 ;	main.c 118
                           9202 ; genIpush
                           9203 ; AOP_STK for _moveInput_sloc5_1_0
   1F68 F8 06              9204 	lda	hl,6(sp)
   1F6A 7E                 9205 	ld	a,(hl)
   1F6B F5                 9206 	push	af
   1F6C 33                 9207 	inc	sp
                           9208 ; genIpush
   1F6D 79                 9209 	ld	a,c
   1F6E F5                 9210 	push	af
   1F6F 33                 9211 	inc	sp
                           9212 ; genIpush
   1F70 21 B2 00           9213 	ld	hl,#_player + 0
   1F73 E5                 9214 	push	hl
                           9215 ; genCall
   1F74 CD 96 24           9216 	call	_movegamecharacter
   1F77 E8 04              9217 	lda	sp,4(sp)
                           9218 ; genLabel
   1F79                    9219 00106$:
                           9220 ;	main.c 121
                           9221 ; genAssign (pointer)
                           9222 ; AOP_STK for _moveInput_sloc0_1_0
   1F79 F8 0F              9223 	lda	hl,15(sp)
   1F7B 5E                 9224 	ld	e,(hl)
   1F7C 23                 9225 	inc	hl
   1F7D 56                 9226 	ld	d,(hl)
   1F7E 3E 03              9227 	ld	a,#0x03
   1F80 12                 9228 	ld	(de),a
                           9229 ;	main.c 122
                           9230 ; genGoto
   1F81 C3 E4 20           9231 	jp	00122$
                           9232 ;	main.c 127
                           9233 ; genLabel
   1F84                    9234 00112$:
                           9235 ;	main.c 124
                           9236 ; genPointerGet
                           9237 ; AOP_STK for _moveInput_sloc0_1_0
   1F84 F8 0F              9238 	lda	hl,15(sp)
   1F86 5E                 9239 	ld	e,(hl)
   1F87 23                 9240 	inc	hl
   1F88 56                 9241 	ld	d,(hl)
   1F89 1A                 9242 	ld	a,(de)
   1F8A 4F                 9243 	ld	c,a
                           9244 ; genCmpEq
   1F8B 79                 9245 	ld	a,c
   1F8C B7                 9246 	or	a,a
   1F8D C2 92 1F           9247 	jp	nz,00156$
   1F90 18 03              9248 	jr	00157$
   1F92                    9249 00156$:
   1F92 C3 E6 1F           9250 	jp	00110$
   1F95                    9251 00157$:
                           9252 ; genPointerGet
                           9253 ; AOP_STK for _moveInput_sloc1_1_0
                           9254 ; AOP_STK for _moveInput_sloc7_1_0
   1F95 F8 0D              9255 	lda	hl,13(sp)
   1F97 5E                 9256 	ld	e,(hl)
   1F98 23                 9257 	inc	hl
   1F99 56                 9258 	ld	d,(hl)
   1F9A 1A                 9259 	ld	a,(de)
   1F9B F8 04              9260 	lda	hl,4(sp)
   1F9D 77                 9261 	ld	(hl),a
                           9262 ; genAssign
                           9263 ; AOP_HL for _movementSkip
                           9264 ; AOP_STK for _moveInput_sloc5_1_0
   1F9E 21 22 1D           9265 	ld	hl,#_movementSkip + 0
   1FA1 7E                 9266 	ld	a,(hl)
   1FA2 F8 06              9267 	lda	hl,6(sp)
   1FA4 77                 9268 	ld	(hl),a
                           9269 ; genMinus
                           9270 ; AOP_STK for _moveInput_sloc7_1_0
                           9271 ; AOP_STK for _moveInput_sloc5_1_0
                           9272 ; AOP_STK for _moveInput_sloc6_1_0
   1FA5 2B                 9273 	dec	hl
   1FA6 2B                 9274 	dec	hl
   1FA7 2A                 9275 	ld	a,(hl+)
   1FA8 23                 9276 	inc	hl
   1FA9 96                 9277 	sub	a,(hl)
   1FAA 2B                 9278 	dec	hl
   1FAB 77                 9279 	ld	(hl),a
                           9280 ; genPointerGet
                           9281 ; AOP_STK for _moveInput_sloc2_1_0
   1FAC F8 0B              9282 	lda	hl,11(sp)
   1FAE 5E                 9283 	ld	e,(hl)
   1FAF 23                 9284 	inc	hl
   1FB0 56                 9285 	ld	d,(hl)
   1FB1 1A                 9286 	ld	a,(de)
   1FB2 47                 9287 	ld	b,a
                           9288 ; genLeftShift
                           9289 ; AOP_STK for _moveInput_sloc5_1_0
   1FB3 F8 06              9290 	lda	hl,6(sp)
   1FB5 7E                 9291 	ld	a,(hl)
   1FB6 87                 9292 	add	a,a
   1FB7 4F                 9293 	ld	c,a
                           9294 ; genMinus
                           9295 ; AOP_STK for _moveInput_sloc7_1_0
   1FB8 2B                 9296 	dec	hl
   1FB9 2B                 9297 	dec	hl
   1FBA 7E                 9298 	ld	a,(hl)
   1FBB 91                 9299 	sub	a,c
   1FBC 4F                 9300 	ld	c,a
                           9301 ; genIpush
                           9302 ; AOP_STK for _moveInput_sloc6_1_0
   1FBD 23                 9303 	inc	hl
   1FBE 7E                 9304 	ld	a,(hl)
   1FBF F5                 9305 	push	af
   1FC0 33                 9306 	inc	sp
                           9307 ; genIpush
   1FC1 78                 9308 	ld	a,b
   1FC2 F5                 9309 	push	af
   1FC3 33                 9310 	inc	sp
                           9311 ; genIpush
   1FC4 79                 9312 	ld	a,c
   1FC5 F5                 9313 	push	af
   1FC6 33                 9314 	inc	sp
                           9315 ; genIpush
   1FC7 78                 9316 	ld	a,b
   1FC8 F5                 9317 	push	af
   1FC9 33                 9318 	inc	sp
                           9319 ; genCall
   1FCA CD 42 23           9320 	call	_canplayermove
   1FCD 4B                 9321 	ld	c,e
   1FCE E8 04              9322 	lda	sp,4(sp)
                           9323 ; genIfx
                           9324 ; Removed redundent or a,a
   1FD0 AF                 9325 	xor	a,a
   1FD1 B1                 9326 	or	a,c
   1FD2 CA E6 1F           9327 	jp	z,00110$
                           9328 ;	main.c 125
                           9329 ; genIpush
                           9330 ; AOP_STK for _moveInput_sloc6_1_0
   1FD5 F8 05              9331 	lda	hl,5(sp)
   1FD7 7E                 9332 	ld	a,(hl)
   1FD8 F5                 9333 	push	af
   1FD9 33                 9334 	inc	sp
                           9335 ; genIpush
   1FDA 78                 9336 	ld	a,b
   1FDB F5                 9337 	push	af
   1FDC 33                 9338 	inc	sp
                           9339 ; genIpush
   1FDD 21 B2 00           9340 	ld	hl,#_player + 0
   1FE0 E5                 9341 	push	hl
                           9342 ; genCall
   1FE1 CD 96 24           9343 	call	_movegamecharacter
   1FE4 E8 04              9344 	lda	sp,4(sp)
                           9345 ; genLabel
   1FE6                    9346 00110$:
                           9347 ;	main.c 127
                           9348 ; genPointerGet
                           9349 ; AOP_STK for _moveInput_sloc1_1_0
   1FE6 F8 0D              9350 	lda	hl,13(sp)
   1FE8 5E                 9351 	ld	e,(hl)
   1FE9 23                 9352 	inc	hl
   1FEA 56                 9353 	ld	d,(hl)
   1FEB 1A                 9354 	ld	a,(de)
   1FEC 4F                 9355 	ld	c,a
                           9356 ; genAssign
                           9357 ; AOP_HL for _movementSkip
   1FED 21 22 1D           9358 	ld	hl,#_movementSkip + 0
   1FF0 46                 9359 	ld	b,(hl)
                           9360 ; genMinus
   1FF1 79                 9361 	ld	a,c
   1FF2 90                 9362 	sub	a,b
   1FF3 4F                 9363 	ld	c,a
                           9364 ; genIpush
   1FF4 79                 9365 	ld	a,c
   1FF5 F5                 9366 	push	af
   1FF6 33                 9367 	inc	sp
                           9368 ; genCall
   1FF7 CD 10 21           9369 	call	_onDoor
                           9370 ; AOP_STK for _moveInput_results_2_2
   1FFA F8 12              9371 	lda	hl,18(sp)
   1FFC 73                 9372 	ld	(hl),e
   1FFD E8 01              9373 	lda	sp,1(sp)
                           9374 ;	main.c 129
                           9375 ; genAssign (pointer)
                           9376 ; AOP_STK for _moveInput_sloc0_1_0
   1FFF 2B                 9377 	dec	hl
   2000 2B                 9378 	dec	hl
   2001 5E                 9379 	ld	e,(hl)
   2002 23                 9380 	inc	hl
   2003 56                 9381 	ld	d,(hl)
   2004 3E 00              9382 	ld	a,#0x00
   2006 12                 9383 	ld	(de),a
                           9384 ;	main.c 130
                           9385 ; genGoto
   2007 C3 E4 20           9386 	jp	00122$
                           9387 ;	main.c 135
                           9388 ; genLabel
   200A                    9389 00116$:
                           9390 ;	main.c 132
                           9391 ; genPointerGet
                           9392 ; AOP_STK for _moveInput_sloc0_1_0
   200A F8 0F              9393 	lda	hl,15(sp)
   200C 5E                 9394 	ld	e,(hl)
   200D 23                 9395 	inc	hl
   200E 56                 9396 	ld	d,(hl)
   200F 1A                 9397 	ld	a,(de)
   2010 4F                 9398 	ld	c,a
                           9399 ; genCmpEq
   2011 79                 9400 	ld	a,c ; 2
   2012 FE 01              9401 	cp	a,#0x01
   2014 C2 19 20           9402 	jp	nz,00158$
   2017 18 03              9403 	jr	00159$
   2019                    9404 00158$:
   2019 C3 5A 20           9405 	jp	00114$
   201C                    9406 00159$:
                           9407 ; genPointerGet
                           9408 ; AOP_STK for _moveInput_sloc1_1_0
   201C F8 0D              9409 	lda	hl,13(sp)
   201E 5E                 9410 	ld	e,(hl)
   201F 23                 9411 	inc	hl
   2020 56                 9412 	ld	d,(hl)
   2021 1A                 9413 	ld	a,(de)
   2022 4F                 9414 	ld	c,a
                           9415 ; genAssign
                           9416 ; AOP_HL for _movementSkip
   2023 21 22 1D           9417 	ld	hl,#_movementSkip + 0
   2026 7E                 9418 	ld	a,(hl)
                           9419 ; genPlus
                           9420 ;	genPlusIncr failed
   2027 81                 9421 	add	a,c
   2028 4F                 9422 	ld	c,a
                           9423 ; genPointerGet
                           9424 ; AOP_STK for _moveInput_sloc2_1_0
                           9425 ; AOP_STK for _moveInput_sloc7_1_0
   2029 F8 0B              9426 	lda	hl,11(sp)
   202B 5E                 9427 	ld	e,(hl)
   202C 23                 9428 	inc	hl
   202D 56                 9429 	ld	d,(hl)
   202E 1A                 9430 	ld	a,(de)
   202F F8 04              9431 	lda	hl,4(sp)
   2031 77                 9432 	ld	(hl),a
                           9433 ; genIpush
   2032 79                 9434 	ld	a,c
   2033 F5                 9435 	push	af
   2034 33                 9436 	inc	sp
                           9437 ; genIpush
                           9438 ; AOP_STK for _moveInput_sloc7_1_0
   2035 7E                 9439 	ld	a,(hl)
   2036 F5                 9440 	push	af
   2037 33                 9441 	inc	sp
                           9442 ; genIpush
   2038 79                 9443 	ld	a,c
   2039 F5                 9444 	push	af
   203A 33                 9445 	inc	sp
                           9446 ; genIpush
                           9447 ; AOP_STK for _moveInput_sloc7_1_0
   203B 7E                 9448 	ld	a,(hl)
   203C F5                 9449 	push	af
   203D 33                 9450 	inc	sp
                           9451 ; genCall
   203E CD 42 23           9452 	call	_canplayermove
   2041 43                 9453 	ld	b,e
   2042 E8 04              9454 	lda	sp,4(sp)
                           9455 ; genIfx
                           9456 ; Removed redundent or a,a
   2044 AF                 9457 	xor	a,a
   2045 B0                 9458 	or	a,b
   2046 CA 5A 20           9459 	jp	z,00114$
                           9460 ;	main.c 133
                           9461 ; genIpush
   2049 79                 9462 	ld	a,c
   204A F5                 9463 	push	af
   204B 33                 9464 	inc	sp
                           9465 ; genIpush
                           9466 ; AOP_STK for _moveInput_sloc7_1_0
   204C F8 05              9467 	lda	hl,5(sp)
   204E 7E                 9468 	ld	a,(hl)
   204F F5                 9469 	push	af
   2050 33                 9470 	inc	sp
                           9471 ; genIpush
   2051 21 B2 00           9472 	ld	hl,#_player + 0
   2054 E5                 9473 	push	hl
                           9474 ; genCall
   2055 CD 96 24           9475 	call	_movegamecharacter
   2058 E8 04              9476 	lda	sp,4(sp)
                           9477 ; genLabel
   205A                    9478 00114$:
                           9479 ;	main.c 135
                           9480 ; genPointerGet
                           9481 ; AOP_STK for _moveInput_sloc1_1_0
   205A F8 0D              9482 	lda	hl,13(sp)
   205C 5E                 9483 	ld	e,(hl)
   205D 23                 9484 	inc	hl
   205E 56                 9485 	ld	d,(hl)
   205F 1A                 9486 	ld	a,(de)
   2060 4F                 9487 	ld	c,a
                           9488 ; genAssign
                           9489 ; AOP_HL for _movementSkip
   2061 21 22 1D           9490 	ld	hl,#_movementSkip + 0
   2064 7E                 9491 	ld	a,(hl)
                           9492 ; genPlus
                           9493 ;	genPlusIncr failed
   2065 81                 9494 	add	a,c
   2066 4F                 9495 	ld	c,a
                           9496 ; genIpush
   2067 79                 9497 	ld	a,c
   2068 F5                 9498 	push	af
   2069 33                 9499 	inc	sp
                           9500 ; genCall
   206A CD 10 21           9501 	call	_onDoor
                           9502 ; AOP_STK for _moveInput_results_2_2
   206D F8 12              9503 	lda	hl,18(sp)
   206F 73                 9504 	ld	(hl),e
   2070 E8 01              9505 	lda	sp,1(sp)
                           9506 ;	main.c 136
                           9507 ; genAssign (pointer)
                           9508 ; AOP_STK for _moveInput_sloc0_1_0
   2072 2B                 9509 	dec	hl
   2073 2B                 9510 	dec	hl
   2074 5E                 9511 	ld	e,(hl)
   2075 23                 9512 	inc	hl
   2076 56                 9513 	ld	d,(hl)
   2077 3E 01              9514 	ld	a,#0x01
   2079 12                 9515 	ld	(de),a
                           9516 ;	main.c 138
                           9517 ; genGoto
   207A C3 E4 20           9518 	jp	00122$
                           9519 ;	main.c 151
                           9520 ; genLabel
   207D                    9521 00121$:
                           9522 ;	main.c 140
                           9523 ; genCall
   207D CD 1F 24           9524 	call	_isLookingAtCPU
   2080 4B                 9525 	ld	c,e
                           9526 ; genIfx
                           9527 ; Removed redundent or a,a
   2081 AF                 9528 	xor	a,a
   2082 B1                 9529 	or	a,c
   2083 CA E4 20           9530 	jp	z,00122$
                           9531 ;	main.c 141
                           9532 ; genCast
                           9533 ; AOP_HL for _currentRoom
                           9534 ; AOP_STK for _moveInput_sloc9_1_0
   2086 21 C9 00           9535 	ld	hl,#_currentRoom + 0
   2089 7E                 9536 	ld	a,(hl)
   208A F8 00              9537 	lda	hl,0(sp)
   208C 22                 9538 	ld	(hl+),a
   208D 36 00              9539 	ld	(hl),#0x00
                           9540 ; genRightShift
                           9541 ; AOP_STK for _moveInput_sloc9_1_0
                           9542 ; AOP_STK for _moveInput_sloc8_1_0
                           9543 ; shift right 	result 2, left 2
   208F 2A                 9544 	ld	a,(hl+)
   2090 22                 9545 	ld	(hl+),a
   2091 36 00              9546 	ld	(hl),#0x00
                           9547 ; genLeftShift
                           9548 ; AOP_STK for _moveInput_sloc8_1_0
   2093 2B                 9549 	dec	hl
   2094 46                 9550 	ld	b,(hl)
   2095 0E 00              9551 	ld	c,#0x00
                           9552 ; genMinus
                           9553 ; AOP_STK for _moveInput_sloc9_1_0
   2097 2B                 9554 	dec	hl
   2098 2B                 9555 	dec	hl
   2099 5E                 9556 	ld	e,(hl)
   209A 23                 9557 	inc	hl
   209B 56                 9558 	ld	d,(hl)
                           9559 ; Removed redundent load
                           9560 ; Removed redundent load
   209C 7B                 9561 	ld	a,e
   209D 91                 9562 	sub	a,c
   209E 5F                 9563 	ld	e,a
   209F 7A                 9564 	ld	a,d
   20A0 98                 9565 	sbc	a,b
   20A1 47                 9566 	ld	b,a
   20A2 4B                 9567 	ld	c,e
                           9568 ; genIpush
   20A3 C5                 9569 	push	bc
                           9570 ; genIpush
   20A4 21 FC 20           9571 	ld	hl,#__str_32 + 0
   20A7 E5                 9572 	push	hl
                           9573 ; genCall
   20A8 CD 00 00           9574 	call	_printf
   20AB E8 04              9575 	lda	sp,4(sp)
                           9576 ;	main.c 142
                           9577 ; genPointerGet
                           9578 ; AOP_STK for _moveInput_sloc3_1_0
   20AD F8 09              9579 	lda	hl,9(sp)
   20AF 5E                 9580 	ld	e,(hl)
   20B0 23                 9581 	inc	hl
   20B1 56                 9582 	ld	d,(hl)
   20B2 1A                 9583 	ld	a,(de)
   20B3 4F                 9584 	ld	c,a
   20B4 13                 9585 	inc	de
   20B5 1A                 9586 	ld	a,(de)
   20B6 47                 9587 	ld	b,a
                           9588 ; genIpush
   20B7 C5                 9589 	push	bc
                           9590 ; genCall
   20B8 CD 00 00           9591 	call	_printf
   20BB E8 02              9592 	lda	sp,2(sp)
                           9593 ;	main.c 143
                           9594 ; genIpush
   20BD 3E 10              9595 	ld	a,#0x10
   20BF F5                 9596 	push	af
   20C0 33                 9597 	inc	sp
                           9598 ; genCall
   20C1 CD 00 00           9599 	call	_waitpad
   20C4 E8 01              9600 	lda	sp,1(sp)
                           9601 ;	main.c 144
                           9602 ; genAnd
                           9603 ; AOP_SFR for _LCDC_REG
   20C6 F0 00              9604 	ldh	a,(_LCDC_REG+0) ; x
   20C8 E6 FD              9605 	and	a,#0xFD
   20CA E0 00              9606 	ldh	(_LCDC_REG+0),a
                           9607 ;	main.c 145
                           9608 ; genPointerGet
                           9609 ; AOP_STK for _moveInput_sloc4_1_0
   20CC F8 07              9610 	lda	hl,7(sp)
   20CE 5E                 9611 	ld	e,(hl)
   20CF 23                 9612 	inc	hl
   20D0 56                 9613 	ld	d,(hl)
   20D1 1A                 9614 	ld	a,(de)
   20D2 4F                 9615 	ld	c,a
                           9616 ; genIfx
                           9617 ; Removed redundent or a,a
   20D3 AF                 9618 	xor	a,a
   20D4 B1                 9619 	or	a,c
   20D5 C2 E4 20           9620 	jp	nz,00122$
                           9621 ;	main.c 146
                           9622 ; genCall
   20D8 CD 0D 0B           9623 	call	_selectMonsters
                           9624 ;	main.c 147
                           9625 ; genOr
                           9626 ; AOP_SFR for _LCDC_REG
                           9627 ; Type res[4] = l[4]&r[1]
                           9628 ; Size res[1] = l[1]&r[1]
   20DB F0 00              9629 	ldh	a,(_LCDC_REG+0) ; x
   20DD F6 02              9630 	or	a,#0x02
   20DF E0 00              9631 	ldh	(_LCDC_REG+0),a
                           9632 ;	main.c 148
                           9633 ; genCall
   20E1 CD A0 1D           9634 	call	_displayRoom
                           9635 ;	main.c 152
                           9636 ; genLabel
   20E4                    9637 00122$:
                           9638 ;	main.c 153
                           9639 ; genIfx
                           9640 ; AOP_STK for _moveInput_results_2_2
   20E4 AF                 9641 	xor	a,a
   20E5 F8 11              9642 	lda	hl,17(sp)
   20E7 B6                 9643 	or	a,(hl)
   20E8 B7                 9644 	or	a,a
   20E9 C2 F8 20           9645 	jp	nz,00128$
                           9646 ;	main.c 156
                           9647 ; genIpush
   20EC 3E 06              9648 	ld	a,#0x06
   20EE F5                 9649 	push	af
   20EF 33                 9650 	inc	sp
                           9651 ; genCall
   20F0 CD 00 00           9652 	call	_performantdelay
   20F3 E8 01              9653 	lda	sp,1(sp)
                           9654 ; genGoto
   20F5 C3 82 1E           9655 	jp	00126$
                           9656 ; genLabel
   20F8                    9657 00128$:
                           9658 ; genEndFunction
   20F8 E8 12              9659 	lda	sp,18(sp)
   20FA C1                 9660 	pop	bc
   20FB C9                 9661 	ret
   20FC                    9662 ___moveInput_end:
   20FC                    9663 __str_32:
   20FC 48 65 6C 6C 6F 2C  9664 	.ascii "Hello, I'M CPU: %d"
        20 49 27 4D 20 43
        50 55 3A 20 25 64
   210E 0A                 9665 	.db 0x0A
   210F 00                 9666 	.db 0x00
                           9667 ;	main.c 169
                           9668 ; genLabel
                           9669 ; genFunction
                           9670 ;	---------------------------------
                           9671 ; Function onDoor
                           9672 ; ---------------------------------
   2110                    9673 ___onDoor_start:
   2110                    9674 _onDoor:
   2110 C5                 9675 	push	bc
   2111 E8 F6              9676 	lda	sp,-10(sp)
                           9677 ;	main.c 170
                           9678 ; genPlus
                           9679 ; genPlusIncr
   2113 11 B6 00           9680 	ld	de,#_player + 0 + 4
                           9681 ; genPointerGet
   2116 1A                 9682 	ld	a,(de)
   2117 4F                 9683 	ld	c,a
                           9684 ; genIpush
                           9685 ; AOP_STK for 
   2118 F8 0E              9686 	lda	hl,14(sp)
   211A 7E                 9687 	ld	a,(hl)
   211B F5                 9688 	push	af
   211C 33                 9689 	inc	sp
                           9690 ; genIpush
   211D 79                 9691 	ld	a,c
   211E F5                 9692 	push	af
   211F 33                 9693 	inc	sp
                           9694 ; genCall
   2120 CD 5B 26           9695 	call	_convertTileIndex
                           9696 ; AOP_STK for _onDoor_tile_1_1
   2123 F8 0B              9697 	lda	hl,11(sp)
   2125 72                 9698 	ld	(hl),d
   2126 2B                 9699 	dec	hl
   2127 73                 9700 	ld	(hl),e
   2128 E8 02              9701 	lda	sp,2(sp)
                           9702 ;	main.c 171
                           9703 ; genLeftShift
                           9704 ; AOP_HL for _spritesize
   212A 21 A1 00           9705 	ld	hl,#_spritesize + 0
   212D 7E                 9706 	ld	a,(hl)
   212E 87                 9707 	add	a,a
   212F 47                 9708 	ld	b,a
                           9709 ; genPlus
                           9710 ;	genPlusIncr failed
   2130 79                 9711 	ld	a,c
   2131 80                 9712 	add	a,b
   2132 4F                 9713 	ld	c,a
                           9714 ; genIpush
                           9715 ; AOP_STK for 
   2133 F8 0E              9716 	lda	hl,14(sp)
   2135 7E                 9717 	ld	a,(hl)
   2136 F5                 9718 	push	af
   2137 33                 9719 	inc	sp
                           9720 ; genIpush
   2138 79                 9721 	ld	a,c
   2139 F5                 9722 	push	af
   213A 33                 9723 	inc	sp
                           9724 ; genCall
   213B CD 5B 26           9725 	call	_convertTileIndex
                           9726 ; AOP_STK for _onDoor_tile2_1_1
   213E F8 09              9727 	lda	hl,9(sp)
   2140 72                 9728 	ld	(hl),d
   2141 2B                 9729 	dec	hl
   2142 73                 9730 	ld	(hl),e
   2143 E8 02              9731 	lda	sp,2(sp)
                           9732 ;	main.c 173
                           9733 ; genIpush
   2145 3E 07              9734 	ld	a,#0x07
   2147 F5                 9735 	push	af
   2148 33                 9736 	inc	sp
                           9737 ; genIpush
                           9738 ; AOP_HL for _roomType
   2149 21 C8 00           9739 	ld	hl,#_roomType + 0
   214C 7E                 9740 	ld	a,(hl)
   214D F5                 9741 	push	af
   214E 33                 9742 	inc	sp
                           9743 ; genCall
   214F CD 00 00           9744 	call	__muluchar
   2152 4B                 9745 	ld	c,e
   2153 E8 02              9746 	lda	sp,2(sp)
                           9747 ; genPlus
                           9748 ; AOP_STK for _onDoor_sloc0_1_0
                           9749 ;	genPlusIncr failed
   2155 11 79 13           9750 	ld	de,#_rooms + 0
   2158 69                 9751 	ld	l,c
   2159 26 00              9752 	ld	h,#0x00
   215B 19                 9753 	add	hl,de
   215C 7D                 9754 	ld	a,l
   215D 54                 9755 	ld	d,h
   215E F8 04              9756 	lda	hl,4(sp)
   2160 22                 9757 	ld	(hl+),a
   2161 72                 9758 	ld	(hl),d
                           9759 ; genPlus
                           9760 ; AOP_STK for _onDoor_sloc0_1_0
                           9761 ; genPlusIncr
   2162 2B                 9762 	dec	hl
   2163 5E                 9763 	ld	e,(hl)
   2164 23                 9764 	inc	hl
   2165 56                 9765 	ld	d,(hl)
   2166 13                 9766 	inc	de
   2167 13                 9767 	inc	de
                           9768 ; genPointerGet
                           9769 ; AOP_STK for _onDoor_sloc1_1_0
                           9770 ; Removed redundent load
                           9771 ; Removed redundent load
   2168 1A                 9772 	ld	a,(de)
   2169 F8 02              9773 	lda	hl,2(sp)
   216B 77                 9774 	ld	(hl),a
   216C 13                 9775 	inc	de
   216D 1A                 9776 	ld	a,(de)
   216E 23                 9777 	inc	hl
   216F 77                 9778 	ld	(hl),a
                           9779 ; genPlus
                           9780 ; AOP_STK for _onDoor_sloc1_1_0
                           9781 ; AOP_STK for _onDoor_tile_1_1
                           9782 ;	genPlusIncr failed
   2170 2B                 9783 	dec	hl
   2171 5E                 9784 	ld	e,(hl)
   2172 23                 9785 	inc	hl
   2173 56                 9786 	ld	d,(hl)
   2174 F8 08              9787 	lda	hl,8(sp)
   2176 2A                 9788 	ld	a,(hl+)
   2177 66                 9789 	ld	h,(hl)
   2178 6F                 9790 	ld	l,a
   2179 19                 9791 	add	hl,de
   217A 5D                 9792 	ld	e,l
   217B 54                 9793 	ld	d,h
                           9794 ; genPointerGet
   217C 1A                 9795 	ld	a,(de)
   217D 4F                 9796 	ld	c,a
                           9797 ; genPlus
                           9798 ; AOP_STK for _onDoor_sloc0_1_0
                           9799 ; genPlusIncr
                           9800 ;	genPlusIncr failed
   217E F8 04              9801 	lda	hl,4(sp)
   2180 5E                 9802 	ld	e,(hl)
   2181 23                 9803 	inc	hl
   2182 56                 9804 	ld	d,(hl)
   2183 21 05 00           9805 	ld	hl,#0x0005
   2186 19                 9806 	add	hl,de
   2187 5D                 9807 	ld	e,l
   2188 54                 9808 	ld	d,h
                           9809 ; genPointerGet
                           9810 ; AOP_STK for _onDoor_sloc3_1_0
   2189 1A                 9811 	ld	a,(de)
   218A F8 00              9812 	lda	hl,0(sp)
   218C 77                 9813 	ld	(hl),a
                           9814 ; genCmpEq
                           9815 ; AOP_STK for _onDoor_sloc3_1_0
                           9816 ; AOP_STK for _onDoor_sloc2_1_0
   218D 7E                 9817 	ld	a,(hl)
   218E B9                 9818 	cp	c ; 5
   218F 20 04              9819 	jr	nz,00106$
   2191 3E 01              9820 	ld	a,#0x01
   2193 18 01              9821 	jr	00107$
   2195                    9822 00106$:
   2195 AF                 9823 	xor	a,a
   2196                    9824 00107$:
   2196 F8 01              9825 	lda	hl,1(sp)
   2198 77                 9826 	ld	(hl),a
                           9827 ; genPlus
                           9828 ; AOP_STK for _onDoor_sloc0_1_0
                           9829 ; genPlusIncr
                           9830 ;	genPlusIncr failed
   2199 F8 04              9831 	lda	hl,4(sp)
   219B 5E                 9832 	ld	e,(hl)
   219C 23                 9833 	inc	hl
   219D 56                 9834 	ld	d,(hl)
   219E 21 06 00           9835 	ld	hl,#0x0006
   21A1 19                 9836 	add	hl,de
   21A2 5D                 9837 	ld	e,l
   21A3 54                 9838 	ld	d,h
                           9839 ; genPointerGet
                           9840 ; AOP_STK for _onDoor_sloc0_1_0
   21A4 1A                 9841 	ld	a,(de)
   21A5 F8 04              9842 	lda	hl,4(sp)
   21A7 77                 9843 	ld	(hl),a
                           9844 ; genCmpEq
                           9845 ; AOP_STK for _onDoor_sloc0_1_0
   21A8 7E                 9846 	ld	a,(hl)
   21A9 B9                 9847 	cp	c ; 5
   21AA 20 04              9848 	jr	nz,00108$
   21AC 3E 01              9849 	ld	a,#0x01
   21AE 18 01              9850 	jr	00109$
   21B0                    9851 00108$:
   21B0 AF                 9852 	xor	a,a
   21B1                    9853 00109$:
   21B1 4F                 9854 	ld	c,a
                           9855 ; genOrOp
                           9856 ; AOP_STK for _onDoor_sloc2_1_0
   21B2 AF                 9857 	xor	a,a
   21B3 F8 01              9858 	lda	hl,1(sp)
   21B5 B6                 9859 	or	a,(hl)
   21B6 20 02              9860 	jr	nz,00110$
   21B8 AF                 9861 	xor	a,a
   21B9 B1                 9862 	or	a,c
   21BA                    9863 00110$:
   21BA 28 02              9864 	jr	z,00111$
   21BC 3E 01              9865 	ld	a,#0x01
   21BE                    9866 00111$:
   21BE F8 01              9867 	lda	hl,1(sp)
                           9868 ; genPlus
                           9869 ; AOP_STK for _onDoor_sloc1_1_0
                           9870 ; AOP_STK for _onDoor_tile2_1_1
                           9871 ;	genPlusIncr failed
   21C0 22                 9872 	ld	(hl+),a
   21C1 5E                 9873 	ld	e,(hl)
   21C2 23                 9874 	inc	hl
   21C3 56                 9875 	ld	d,(hl)
   21C4 F8 06              9876 	lda	hl,6(sp)
   21C6 2A                 9877 	ld	a,(hl+)
   21C7 66                 9878 	ld	h,(hl)
   21C8 6F                 9879 	ld	l,a
   21C9 19                 9880 	add	hl,de
   21CA 5D                 9881 	ld	e,l
   21CB 54                 9882 	ld	d,h
                           9883 ; genPointerGet
   21CC 1A                 9884 	ld	a,(de)
   21CD 4F                 9885 	ld	c,a
                           9886 ; genCmpEq
                           9887 ; AOP_STK for _onDoor_sloc3_1_0
   21CE F8 00              9888 	lda	hl,0(sp)
   21D0 7E                 9889 	ld	a,(hl)
   21D1 B9                 9890 	cp	c ; 5
   21D2 20 04              9891 	jr	nz,00112$
   21D4 3E 01              9892 	ld	a,#0x01
   21D6 18 01              9893 	jr	00113$
   21D8                    9894 00112$:
   21D8 AF                 9895 	xor	a,a
   21D9                    9896 00113$:
   21D9 47                 9897 	ld	b,a
                           9898 ; genOrOp
                           9899 ; AOP_STK for _onDoor_sloc2_1_0
   21DA AF                 9900 	xor	a,a
   21DB F8 01              9901 	lda	hl,1(sp)
   21DD B6                 9902 	or	a,(hl)
   21DE 20 02              9903 	jr	nz,00114$
   21E0 AF                 9904 	xor	a,a
   21E1 B0                 9905 	or	a,b
   21E2                    9906 00114$:
   21E2 28 02              9907 	jr	z,00115$
   21E4 3E 01              9908 	ld	a,#0x01
   21E6                    9909 00115$:
   21E6 47                 9910 	ld	b,a
                           9911 ; genCmpEq
                           9912 ; AOP_STK for _onDoor_sloc0_1_0
   21E7 F8 04              9913 	lda	hl,4(sp)
   21E9 7E                 9914 	ld	a,(hl)
   21EA B9                 9915 	cp	c ; 5
   21EB 20 04              9916 	jr	nz,00116$
   21ED 3E 01              9917 	ld	a,#0x01
   21EF 18 01              9918 	jr	00117$
   21F1                    9919 00116$:
   21F1 AF                 9920 	xor	a,a
   21F2                    9921 00117$:
   21F2 4F                 9922 	ld	c,a
                           9923 ; genOrOp
   21F3 AF                 9924 	xor	a,a
   21F4 B0                 9925 	or	a,b
   21F5 20 02              9926 	jr	nz,00118$
   21F7 AF                 9927 	xor	a,a
   21F8 B1                 9928 	or	a,c
   21F9                    9929 00118$:
   21F9 28 02              9930 	jr	z,00119$
   21FB 3E 01              9931 	ld	a,#0x01
   21FD                    9932 00119$:
   21FD 4F                 9933 	ld	c,a
                           9934 ;	main.c 180
                           9935 ; genIfx
                           9936 ; Removed redundent or a,a
   21FE AF                 9937 	xor	a,a
   21FF B1                 9938 	or	a,c
   2200 CA 0F 22           9939 	jp	z,00102$
                           9940 ;	main.c 181
                           9941 ; genCall
   2203 CD E7 0A           9942 	call	_playDoorSound
                           9943 ;	main.c 182
                           9944 ; genIpush
   2206 21 2C 01           9945 	ld	hl,#0x012C
   2209 E5                 9946 	push	hl
                           9947 ; genCall
   220A CD 00 00           9948 	call	_delay
   220D E8 02              9949 	lda	sp,2(sp)
                           9950 ; genLabel
   220F                    9951 00102$:
                           9952 ;	main.c 186
                           9953 ; genRet
   220F 59                 9954 	ld	e,c
                           9955 ; genLabel
   2210                    9956 00103$:
                           9957 ; genEndFunction
   2210 E8 0A              9958 	lda	sp,10(sp)
   2212 C1                 9959 	pop	bc
   2213 C9                 9960 	ret
   2214                    9961 ___onDoor_end:
                           9962 ;	main.c 191
                           9963 ; genLabel
                           9964 ; genFunction
                           9965 ;	---------------------------------
                           9966 ; Function Navigation
                           9967 ; ---------------------------------
   2214                    9968 ___Navigation_start:
   2214                    9969 _Navigation:
   2214 C5                 9970 	push	bc
   2215 E8 FF              9971 	lda	sp,-1(sp)
                           9972 ;	main.c 193
                           9973 ; genLabel
   2217                    9974 00106$:
                           9975 ;	main.c 194
                           9976 ; genCall
   2217 CD 10 1E           9977 	call	_NavgateCurrentRoom
                           9978 ;	main.c 195
                           9979 ; genCmpEq
                           9980 ; AOP_HL for _roomType
   221A 21 C8 00           9981 	ld	hl,#_roomType + 0
   221D 7E                 9982 	ld	a,(hl)
   221E B7                 9983 	or	a,a
                           9984 ; Rule 5
   221F CA 37 22           9985 	jp	z,00101$
   2222                    9986 00126$:
                           9987 ; genCmpEq
                           9988 ; AOP_HL for _roomType
   2222 21 C8 00           9989 	ld	hl,#_roomType + 0
   2225 7E                 9990 	ld	a,(hl) ; 2
   2226 FE 01              9991 	cp	a,#0x01
                           9992 ; Rule 5
   2228 CA 48 22           9993 	jp	z,00102$
   222B                    9994 00127$:
                           9995 ; genCmpEq
                           9996 ; AOP_HL for _roomType
   222B 21 C8 00           9997 	ld	hl,#_roomType + 0
   222E 7E                 9998 	ld	a,(hl) ; 2
   222F FE 02              9999 	cp	a,#0x02
                          10000 ; Rule 5
   2231 CA BB 22          10001 	jp	z,00103$
   2234                   10002 00128$:
                          10003 ; genGoto
   2234 C3 C7 22          10004 	jp	00104$
                          10005 ;	main.c 197
                          10006 ; genLabel
   2237                   10007 00101$:
                          10008 ; genAssign
                          10009 ; AOP_STK for _Navigation_Y_Location_1_1
   2237 F8 00             10010 	lda	hl,0(sp)
   2239 36 78             10011 	ld	(hl),#0x78
                          10012 ;	main.c 198
                          10013 ; genAssign
                          10014 ; AOP_HL for _roomType
   223B 21 C8 00          10015 	ld	hl,#_roomType + 0
   223E 36 01             10016 	ld	(hl),#0x01
                          10017 ;	main.c 199
                          10018 ; genAssign
                          10019 ; AOP_HL for _currentRoom
   2240 21 C9 00          10020 	ld	hl,#_currentRoom + 0
   2243 36 01             10021 	ld	(hl),#0x01
                          10022 ;	main.c 200
                          10023 ; genGoto
   2245 C3 C7 22          10024 	jp	00104$
                          10025 ;	main.c 202
                          10026 ; genLabel
   2248                   10027 00102$:
                          10028 ; genPlus
                          10029 ; genPlusIncr
   2248 11 B8 00          10030 	ld	de,#_player + 0 + 6
                          10031 ; genPointerGet
                          10032 ; Removed redundent load
                          10033 ; Removed redundent load
   224B 1A                10034 	ld	a,(de)
   224C 47                10035 	ld	b,a
   224D 13                10036 	inc	de
   224E 1A                10037 	ld	a,(de)
   224F 4F                10038 	ld	c,a
                          10039 ; genCmpGt
   2250 58                10040 	ld	e,b
   2251 51                10041 	ld	d,c
   2252 21 B0 FF          10042 	ld	hl,#0xFFB0
   2255 19                10043 	add	hl,de
   2256 D2 5E 22          10044 	jp	nc,00110$
                          10045 ; genAssign
   2259 0E 32             10046 	ld	c,#0x32
                          10047 ; genGoto
   225B C3 60 22          10048 	jp	00111$
                          10049 ; genLabel
   225E                   10050 00110$:
                          10051 ; genAssign
   225E 0E 78             10052 	ld	c,#0x78
                          10053 ; genLabel
   2260                   10054 00111$:
                          10055 ; genAssign
                          10056 ; AOP_STK for _Navigation_Y_Location_1_1
   2260 F8 00             10057 	lda	hl,0(sp)
   2262 71                10058 	ld	(hl),c
                          10059 ;	main.c 203
                          10060 ; genCmpEq
                          10061 ; AOP_STK for _Navigation_Y_Location_1_1
   2263 7E                10062 	ld	a,(hl) ; 2
   2264 FE 78             10063 	cp	a,#0x78
   2266 C2 6B 22          10064 	jp	nz,00129$
   2269 18 03             10065 	jr	00130$
   226B                   10066 00129$:
   226B C3 73 22          10067 	jp	00112$
   226E                   10068 00130$:
                          10069 ; genAssign
   226E 0E 01             10070 	ld	c,#0x01
                          10071 ; genGoto
   2270 C3 75 22          10072 	jp	00113$
                          10073 ; genLabel
   2273                   10074 00112$:
                          10075 ; genAssign
   2273 0E FF             10076 	ld	c,#0xFF
                          10077 ; genLabel
   2275                   10078 00113$:
                          10079 ; genPlus
                          10080 ; AOP_HL for _currentRoom
                          10081 ;	genPlusIncr failed
   2275 21 C9 00          10082 	ld	hl,#_currentRoom + 0
   2278 7E                10083 	ld	a,(hl)
   2279 81                10084 	add	a,c
   227A 77                10085 	ld	(hl),a
                          10086 ;	main.c 204
                          10087 ; genCast
                          10088 ; AOP_HL for _currentRoom
   227B 4E                10089 	ld	c,(hl)
   227C 06 00             10090 	ld	b,#0x00
                          10091 ; genCmpEq
   227E 79                10092 	ld	a,c ; 2
   227F FE 03             10093 	cp	a,#0x03
   2281 C2 8B 22          10094 	jp	nz,00131$
   2284 78                10095 	ld	a,b ; 2
                          10096 ; Rule 3
   2285 B7                10097 	or	a,a
   2286 C2 8B 22          10098 	jp	nz,00131$
   2289 18 03             10099 	jr	00132$
   228B                   10100 00131$:
   228B C3 98 22          10101 	jp	00114$
   228E                   10102 00132$:
                          10103 ; genPlus
                          10104 ; AOP_HL for _roomType
                          10105 ; genPlusIncr
                          10106 ;	genPlusIncr failed
   228E 21 C8 00          10107 	ld	hl,#_roomType + 0
   2291 7E                10108 	ld	a,(hl)
   2292 C6 01             10109 	add	a,#0x01
   2294 4F                10110 	ld	c,a
                          10111 ; genGoto
   2295 C3 B4 22          10112 	jp	00115$
                          10113 ; genLabel
   2298                   10114 00114$:
                          10115 ; genCmpEq
                          10116 ; AOP_HL for _currentRoom
   2298 21 C9 00          10117 	ld	hl,#_currentRoom + 0
   229B 7E                10118 	ld	a,(hl)
   229C B7                10119 	or	a,a
   229D C2 A2 22          10120 	jp	nz,00133$
   22A0 18 03             10121 	jr	00134$
   22A2                   10122 00133$:
   22A2 C3 AF 22          10123 	jp	00116$
   22A5                   10124 00134$:
                          10125 ; genMinus
                          10126 ; AOP_HL for _roomType
   22A5 21 C8 00          10127 	ld	hl,#_roomType + 0
   22A8 7E                10128 	ld	a,(hl)
   22A9 C6 FF             10129 	add	a,#0xFF
   22AB 47                10130 	ld	b,a
                          10131 ; genGoto
   22AC C3 B3 22          10132 	jp	00117$
                          10133 ; genLabel
   22AF                   10134 00116$:
                          10135 ; genAssign
                          10136 ; AOP_HL for _roomType
   22AF 21 C8 00          10137 	ld	hl,#_roomType + 0
   22B2 46                10138 	ld	b,(hl)
                          10139 ; genLabel
   22B3                   10140 00117$:
                          10141 ; genAssign
   22B3 48                10142 	ld	c,b
                          10143 ; genLabel
   22B4                   10144 00115$:
                          10145 ; genAssign
                          10146 ; AOP_HL for _roomType
   22B4 21 C8 00          10147 	ld	hl,#_roomType + 0
   22B7 71                10148 	ld	(hl),c
                          10149 ;	main.c 205
                          10150 ; genGoto
   22B8 C3 C7 22          10151 	jp	00104$
                          10152 ;	main.c 207
                          10153 ; genLabel
   22BB                   10154 00103$:
                          10155 ; genAssign
                          10156 ; AOP_STK for _Navigation_Y_Location_1_1
   22BB F8 00             10157 	lda	hl,0(sp)
   22BD 36 32             10158 	ld	(hl),#0x32
                          10159 ;	main.c 208
                          10160 ; genMinus
                          10161 ; AOP_HL for _roomType
   22BF 21 C8 00          10162 	ld	hl,#_roomType + 0
   22C2 35                10163 	dec	(hl)
                          10164 ;	main.c 209
                          10165 ; genMinus
                          10166 ; AOP_HL for _currentRoom
   22C3 21 C9 00          10167 	ld	hl,#_currentRoom + 0
   22C6 35                10168 	dec	(hl)
                          10169 ;	main.c 211
                          10170 ; genLabel
   22C7                   10171 00104$:
                          10172 ;	main.c 212
                          10173 ; genIpush
                          10174 ; AOP_STK for _Navigation_Y_Location_1_1
   22C7 F8 00             10175 	lda	hl,0(sp)
   22C9 7E                10176 	ld	a,(hl)
   22CA F5                10177 	push	af
   22CB 33                10178 	inc	sp
                          10179 ; genIpush
   22CC 3E 50             10180 	ld	a,#0x50
   22CE F5                10181 	push	af
   22CF 33                10182 	inc	sp
                          10183 ; genIpush
   22D0 21 B2 00          10184 	ld	hl,#_player + 0
   22D3 E5                10185 	push	hl
                          10186 ; genCall
   22D4 CD 96 24          10187 	call	_movegamecharacter
   22D7 E8 04             10188 	lda	sp,4(sp)
                          10189 ;	main.c 213
                          10190 ; genIpush
   22D9 3E 05             10191 	ld	a,#0x05
   22DB F5                10192 	push	af
   22DC 33                10193 	inc	sp
                          10194 ; genCall
   22DD CD 00 00          10195 	call	_performantdelay
   22E0 E8 01             10196 	lda	sp,1(sp)
                          10197 ; genGoto
   22E2 C3 17 22          10198 	jp	00106$
                          10199 ; genLabel
   22E5                   10200 00108$:
                          10201 ; genEndFunction
   22E5 E8 01             10202 	lda	sp,1(sp)
   22E7 C1                10203 	pop	bc
   22E8 C9                10204 	ret
   22E9                   10205 ___Navigation_end:
                          10206 ;	main.c 220
                          10207 ; genLabel
                          10208 ; genFunction
                          10209 ;	---------------------------------
                          10210 ; Function isWallCollisionDetected
                          10211 ; ---------------------------------
   22E9                   10212 ___isWallCollisionDetected_start:
   22E9                   10213 _isWallCollisionDetected:
   22E9 C5                10214 	push	bc
   22EA E8 FE             10215 	lda	sp,-2(sp)
                          10216 ;	main.c 221
                          10217 ; genIpush
   22EC 3E 07             10218 	ld	a,#0x07
   22EE F5                10219 	push	af
   22EF 33                10220 	inc	sp
                          10221 ; genIpush
                          10222 ; AOP_HL for _roomType
   22F0 21 C8 00          10223 	ld	hl,#_roomType + 0
   22F3 7E                10224 	ld	a,(hl)
   22F4 F5                10225 	push	af
   22F5 33                10226 	inc	sp
                          10227 ; genCall
   22F6 CD 00 00          10228 	call	__muluchar
   22F9 4B                10229 	ld	c,e
   22FA E8 02             10230 	lda	sp,2(sp)
                          10231 ; genPlus
                          10232 ;	genPlusIncr failed
   22FC 3E 79             10233 	ld	a,#<_rooms
   22FE 81                10234 	add	a,c
   22FF 4F                10235 	ld	c,a
   2300 3E 13             10236 	ld	a,#>_rooms
   2302 CE 00             10237 	adc	a,#0x00
   2304 47                10238 	ld	b,a
                          10239 ; genPlus
                          10240 ; genPlusIncr
   2305 59                10241 	ld	e,c
   2306 50                10242 	ld	d,b
   2307 13                10243 	inc	de
   2308 13                10244 	inc	de
                          10245 ; genPointerGet
                          10246 ; AOP_STK for _isWallCollisionDetected_sloc0_1_0
                          10247 ; Removed redundent load
                          10248 ; Removed redundent load
   2309 1A                10249 	ld	a,(de)
   230A F8 00             10250 	lda	hl,0(sp)
   230C 77                10251 	ld	(hl),a
   230D 13                10252 	inc	de
   230E 1A                10253 	ld	a,(de)
   230F 23                10254 	inc	hl
   2310 77                10255 	ld	(hl),a
                          10256 ; genIpush
                          10257 ; AOP_STK for 
   2311 F8 07             10258 	lda	hl,7(sp)
   2313 7E                10259 	ld	a,(hl)
   2314 F5                10260 	push	af
   2315 33                10261 	inc	sp
                          10262 ; genIpush
                          10263 ; AOP_STK for 
   2316 2B                10264 	dec	hl
   2317 7E                10265 	ld	a,(hl)
   2318 F5                10266 	push	af
   2319 33                10267 	inc	sp
                          10268 ; genCall
   231A CD 5B 26          10269 	call	_convertTileIndex
   231D 42                10270 	ld	b,d
   231E 4B                10271 	ld	c,e
   231F E8 02             10272 	lda	sp,2(sp)
                          10273 ; genPlus
                          10274 ; AOP_STK for _isWallCollisionDetected_sloc0_1_0
                          10275 ;	genPlusIncr failed
   2321 F8 00             10276 	lda	hl,0(sp)
   2323 2A                10277 	ld	a,(hl+)
   2324 66                10278 	ld	h,(hl)
   2325 6F                10279 	ld	l,a
   2326 09                10280 	add	hl,bc
   2327 5D                10281 	ld	e,l
   2328 54                10282 	ld	d,h
                          10283 ; genPointerGet
   2329 1A                10284 	ld	a,(de)
   232A 4F                10285 	ld	c,a
                          10286 ; genPointerGet
   232B 11 78 13          10287 	ld	de,#_wall + 0
   232E 1A                10288 	ld	a,(de)
                          10289 ; genCmpEq
   232F B9                10290 	cp	c ; 5
   2330 20 02             10291 	jr	nz,00106$
   2332 18 03             10292 	jr	00107$
   2334                   10293 00106$:
   2334 C3 3C 23          10294 	jp	00102$
   2337                   10295 00107$:
                          10296 ;	main.c 222
                          10297 ; genRet
   2337 1E 01             10298 	ld	e,#0x01
   2339 C3 3E 23          10299 	jp	00103$
                          10300 ; genLabel
   233C                   10301 00102$:
                          10302 ;	main.c 224
                          10303 ; genRet
   233C 1E 00             10304 	ld	e,#0x00
                          10305 ; genLabel
   233E                   10306 00103$:
                          10307 ; genEndFunction
   233E E8 02             10308 	lda	sp,2(sp)
   2340 C1                10309 	pop	bc
   2341 C9                10310 	ret
   2342                   10311 ___isWallCollisionDetected_end:
                          10312 ;	main.c 228
                          10313 ; genLabel
                          10314 ; genFunction
                          10315 ;	---------------------------------
                          10316 ; Function canplayermove
                          10317 ; ---------------------------------
   2342                   10318 ___canplayermove_start:
   2342                   10319 _canplayermove:
   2342 C5                10320 	push	bc
                          10321 	
                          10322 ;	main.c 230
                          10323 ; genIpush
                          10324 ; AOP_STK for 
   2343 F8 05             10325 	lda	hl,5(sp)
   2345 7E                10326 	ld	a,(hl)
   2346 F5                10327 	push	af
   2347 33                10328 	inc	sp
                          10329 ; genIpush
                          10330 ; AOP_STK for 
   2348 2B                10331 	dec	hl
   2349 7E                10332 	ld	a,(hl)
   234A F5                10333 	push	af
   234B 33                10334 	inc	sp
                          10335 ; genCall
   234C CD E9 22          10336 	call	_isWallCollisionDetected
   234F 4B                10337 	ld	c,e
   2350 E8 02             10338 	lda	sp,2(sp)
                          10339 ; genIpush
                          10340 ; AOP_STK for 
   2352 F8 07             10341 	lda	hl,7(sp)
   2354 7E                10342 	ld	a,(hl)
   2355 F5                10343 	push	af
   2356 33                10344 	inc	sp
                          10345 ; genIpush
                          10346 ; AOP_STK for 
   2357 2B                10347 	dec	hl
   2358 7E                10348 	ld	a,(hl)
   2359 F5                10349 	push	af
   235A 33                10350 	inc	sp
                          10351 ; genCall
   235B CD 7F 23          10352 	call	_isCPUCollisionDetected
   235E 43                10353 	ld	b,e
   235F E8 02             10354 	lda	sp,2(sp)
                          10355 ; genOrOp
   2361 AF                10356 	xor	a,a
   2362 B1                10357 	or	a,c
   2363 20 02             10358 	jr	nz,00106$
   2365 AF                10359 	xor	a,a
   2366 B0                10360 	or	a,b
   2367                   10361 00106$:
   2367 28 02             10362 	jr	z,00107$
   2369 3E 01             10363 	ld	a,#0x01
   236B                   10364 00107$:
   236B 4F                10365 	ld	c,a
                          10366 ; genNot
   236C AF                10367 	xor	a,a
   236D B1                10368 	or	a,c
   236E D6 01             10369 	sub	a,#0x01
   2370 3E 00             10370 	ld	a,#0x00
   2372 17                10371 	rla
   2373 4F                10372 	ld	c,a
                          10373 ;	main.c 232
                          10374 ; genIfx
                          10375 ; Removed redundent or a,a
   2374 AF                10376 	xor	a,a
   2375 B1                10377 	or	a,c
   2376 C2 7C 23          10378 	jp	nz,00102$
                          10379 ;	main.c 233
                          10380 ; genCall
   2379 CD F8 0A          10381 	call	_playCollisionSound
                          10382 ; genLabel
   237C                   10383 00102$:
                          10384 ;	main.c 236
                          10385 ; genRet
   237C 59                10386 	ld	e,c
                          10387 ; genLabel
   237D                   10388 00103$:
                          10389 ; genEndFunction
                          10390 	
   237D C1                10391 	pop	bc
   237E C9                10392 	ret
   237F                   10393 ___canplayermove_end:
                          10394 ;	main.c 239
                          10395 ; genLabel
                          10396 ; genFunction
                          10397 ;	---------------------------------
                          10398 ; Function isCPUCollisionDetected
                          10399 ; ---------------------------------
   237F                   10400 ___isCPUCollisionDetected_start:
   237F                   10401 _isCPUCollisionDetected:
   237F C5                10402 	push	bc
   2380 E8 FD             10403 	lda	sp,-3(sp)
                          10404 ;	main.c 240
                          10405 ; genPlus
                          10406 ; genPlusIncr
   2382 11 C0 00          10407 	ld	de,#_cpu + 0 + 4
                          10408 ; genPointerGet
                          10409 ; AOP_STK for _isCPUCollisionDetected_sloc1_1_0
   2385 1A                10410 	ld	a,(de)
   2386 F8 01             10411 	lda	hl,1(sp)
   2388 77                10412 	ld	(hl),a
                          10413 ; genLeftShift
                          10414 ; AOP_HL for _spritesize
   2389 21 A1 00          10415 	ld	hl,#_spritesize + 0
   238C 7E                10416 	ld	a,(hl)
   238D 87                10417 	add	a,a
   238E 47                10418 	ld	b,a
                          10419 ; genPlus
                          10420 ; AOP_STK for _isCPUCollisionDetected_sloc1_1_0
                          10421 ; AOP_STK for _isCPUCollisionDetected_sloc0_1_0
                          10422 ;	genPlusIncr failed
   238F F8 01             10423 	lda	hl,1(sp)
   2391 7E                10424 	ld	a,(hl)
   2392 80                10425 	add	a,b
   2393 23                10426 	inc	hl
   2394 77                10427 	ld	(hl),a
                          10428 ; genCmpGt
                          10429 ; AOP_STK for 
                          10430 ; AOP_STK for _isCPUCollisionDetected_sloc0_1_0
   2395 AF                10431 	xor	a,a
   2396 7E                10432 	ld	a,(hl)
   2397 F8 07             10433 	lda	hl,7(sp)
   2399 9E                10434 	sbc	a,(hl) ; 2
   239A 3E 00             10435 	ld	a,#0x00
   239C 17                10436 	rla
   239D 4F                10437 	ld	c,a
                          10438 ; genNot
                          10439 ; AOP_STK for _isCPUCollisionDetected_sloc0_1_0
   239E AF                10440 	xor	a,a
   239F B1                10441 	or	a,c
   23A0 D6 01             10442 	sub	a,#0x01
   23A2 3E 00             10443 	ld	a,#0x00
   23A4 17                10444 	rla
   23A5 F8 02             10445 	lda	hl,2(sp)
   23A7 77                10446 	ld	(hl),a
                          10447 ;	main.c 241
                          10448 ; genPlus
                          10449 ; AOP_STK for 
                          10450 ;	genPlusIncr failed
   23A8 F8 07             10451 	lda	hl,7(sp)
   23AA 7E                10452 	ld	a,(hl)
   23AB 80                10453 	add	a,b
   23AC 4F                10454 	ld	c,a
                          10455 ; genMinus
   23AD 0D                10456 	dec	c
   23AE 0D                10457 	dec	c
                          10458 ; genCmpLt
                          10459 ; AOP_STK for _isCPUCollisionDetected_sloc1_1_0
   23AF AF                10460 	xor	a,a
   23B0 79                10461 	ld	a,c
   23B1 F8 01             10462 	lda	hl,1(sp)
   23B3 9E                10463 	sbc	a,(hl) ; 2
   23B4 3E 00             10464 	ld	a,#0x00
   23B6 17                10465 	rla
   23B7 4F                10466 	ld	c,a
                          10467 ; genNot
   23B8 AF                10468 	xor	a,a
   23B9 B1                10469 	or	a,c
   23BA D6 01             10470 	sub	a,#0x01
   23BC 3E 00             10471 	ld	a,#0x00
   23BE 17                10472 	rla
   23BF 4F                10473 	ld	c,a
                          10474 ; genAndOp
                          10475 ; AOP_STK for _isCPUCollisionDetected_sloc0_1_0
                          10476 ; AOP_STK for _isCPUCollisionDetected_sloc1_1_0
   23C0 AF                10477 	xor	a,a
   23C1 23                10478 	inc	hl
   23C2 B6                10479 	or	a,(hl)
   23C3 28 02             10480 	jr	z,00103$
   23C5 AF                10481 	xor	a,a
   23C6 B1                10482 	or	a,c
   23C7                   10483 00103$:
   23C7 28 02             10484 	jr	z,00104$
   23C9 3E 01             10485 	ld	a,#0x01
   23CB                   10486 00104$:
   23CB F8 01             10487 	lda	hl,1(sp)
   23CD 77                10488 	ld	(hl),a
                          10489 ;	main.c 242
                          10490 ; genPlus
                          10491 ; genPlusIncr
   23CE 11 C1 00          10492 	ld	de,#_cpu + 0 + 5
                          10493 ; genPointerGet
                          10494 ; AOP_STK for _isCPUCollisionDetected_sloc2_1_0
   23D1 1A                10495 	ld	a,(de)
   23D2 2B                10496 	dec	hl
   23D3 77                10497 	ld	(hl),a
                          10498 ; genPlus
                          10499 ; AOP_STK for _isCPUCollisionDetected_sloc2_1_0
                          10500 ; AOP_STK for _isCPUCollisionDetected_sloc0_1_0
                          10501 ;	genPlusIncr failed
   23D4 7E                10502 	ld	a,(hl)
   23D5 80                10503 	add	a,b
   23D6 23                10504 	inc	hl
   23D7 23                10505 	inc	hl
   23D8 77                10506 	ld	(hl),a
                          10507 ; genCmpGt
                          10508 ; AOP_STK for 
                          10509 ; AOP_STK for _isCPUCollisionDetected_sloc0_1_0
   23D9 AF                10510 	xor	a,a
   23DA 7E                10511 	ld	a,(hl)
   23DB F8 08             10512 	lda	hl,8(sp)
   23DD 9E                10513 	sbc	a,(hl) ; 2
   23DE 3E 00             10514 	ld	a,#0x00
   23E0 17                10515 	rla
   23E1 4F                10516 	ld	c,a
                          10517 ; genNot
   23E2 AF                10518 	xor	a,a
   23E3 B1                10519 	or	a,c
   23E4 D6 01             10520 	sub	a,#0x01
   23E6 3E 00             10521 	ld	a,#0x00
   23E8 17                10522 	rla
   23E9 4F                10523 	ld	c,a
                          10524 ; genAndOp
                          10525 ; AOP_STK for _isCPUCollisionDetected_sloc1_1_0
   23EA AF                10526 	xor	a,a
   23EB F8 01             10527 	lda	hl,1(sp)
   23ED B6                10528 	or	a,(hl)
   23EE 28 02             10529 	jr	z,00105$
   23F0 AF                10530 	xor	a,a
   23F1 B1                10531 	or	a,c
   23F2                   10532 00105$:
   23F2 28 02             10533 	jr	z,00106$
   23F4 3E 01             10534 	ld	a,#0x01
   23F6                   10535 00106$:
   23F6 4F                10536 	ld	c,a
                          10537 ;	main.c 243
                          10538 ; genPlus
                          10539 ; AOP_STK for 
                          10540 ;	genPlusIncr failed
   23F7 F8 08             10541 	lda	hl,8(sp)
   23F9 7E                10542 	ld	a,(hl)
   23FA 80                10543 	add	a,b
   23FB 47                10544 	ld	b,a
                          10545 ; genMinus
   23FC 05                10546 	dec	b
   23FD 05                10547 	dec	b
                          10548 ; genCmpLt
                          10549 ; AOP_STK for _isCPUCollisionDetected_sloc2_1_0
   23FE AF                10550 	xor	a,a
   23FF 78                10551 	ld	a,b
   2400 F8 00             10552 	lda	hl,0(sp)
   2402 9E                10553 	sbc	a,(hl) ; 2
   2403 3E 00             10554 	ld	a,#0x00
   2405 17                10555 	rla
   2406 47                10556 	ld	b,a
                          10557 ; genNot
   2407 AF                10558 	xor	a,a
   2408 B0                10559 	or	a,b
   2409 D6 01             10560 	sub	a,#0x01
   240B 3E 00             10561 	ld	a,#0x00
   240D 17                10562 	rla
   240E 47                10563 	ld	b,a
                          10564 ; genAndOp
   240F AF                10565 	xor	a,a
   2410 B1                10566 	or	a,c
   2411 28 02             10567 	jr	z,00107$
   2413 AF                10568 	xor	a,a
   2414 B0                10569 	or	a,b
   2415                   10570 00107$:
   2415 28 02             10571 	jr	z,00108$
   2417 3E 01             10572 	ld	a,#0x01
   2419                   10573 00108$:
   2419 4F                10574 	ld	c,a
                          10575 ; genRet
   241A 59                10576 	ld	e,c
                          10577 ; genLabel
   241B                   10578 00101$:
                          10579 ; genEndFunction
   241B E8 03             10580 	lda	sp,3(sp)
   241D C1                10581 	pop	bc
   241E C9                10582 	ret
   241F                   10583 ___isCPUCollisionDetected_end:
                          10584 ;	main.c 246
                          10585 ; genLabel
                          10586 ; genFunction
                          10587 ;	---------------------------------
                          10588 ; Function isLookingAtCPU
                          10589 ; ---------------------------------
   241F                   10590 ___isLookingAtCPU_start:
   241F                   10591 _isLookingAtCPU:
   241F C5                10592 	push	bc
   2420 E8 FF             10593 	lda	sp,-1(sp)
                          10594 ;	main.c 247
                          10595 ; genPlus
                          10596 ; genPlusIncr
   2422 11 B6 00          10597 	ld	de,#_player + 0 + 4
                          10598 ; genPointerGet
   2425 1A                10599 	ld	a,(de)
   2426 4F                10600 	ld	c,a
                          10601 ;	main.c 248
                          10602 ; genPlus
                          10603 ; genPlusIncr
   2427 11 B7 00          10604 	ld	de,#_player + 0 + 5
                          10605 ; genPointerGet
                          10606 ; AOP_STK for _isLookingAtCPU_player_y_1_1
   242A 1A                10607 	ld	a,(de)
   242B F8 00             10608 	lda	hl,0(sp)
   242D 77                10609 	ld	(hl),a
                          10610 ;	main.c 249
                          10611 ; genPlus
                          10612 ; genPlusIncr
   242E 11 BA 00          10613 	ld	de,#_player + 0 + 8
                          10614 ; genPointerGet
   2431 1A                10615 	ld	a,(de)
   2432 47                10616 	ld	b,a
                          10617 ; genCmpLt
   2433 78                10618 	ld	a,b
   2434 EE 80             10619 	xor	a,#0x80
   2436 FE 80             10620 	cp	#0x00^0x80
   2438 DA 83 24          10621 	jp	c,00105$
                          10622 ; genCmpGt
   243B 1E 83             10623 	ld	e,#0x83
   243D 78                10624 	ld	a,b
   243E EE 80             10625 	xor	a,#0x80
   2440 57                10626 	ld	d,a
   2441 7B                10627 	ld	a,e
   2442 9A                10628 	sbc	a,d
   2443 DA 83 24          10629 	jp	c,00105$
                          10630 ; genJumpTab
   2446 58                10631 	ld	e,b
   2447 16 00             10632 	ld	d,#0x00
   2449 21 50 24          10633 	ld	hl,#00110$
   244C 19                10634 	add	hl,de
   244D 19                10635 	add	hl,de
   244E 19                10636 	add	hl,de
   244F E9                10637 	jp	(hl)
   2450                   10638 00110$:
   2450 C3 5C 24          10639 	jp	00101$
   2453 C3 68 24          10640 	jp	00102$
   2456 C3 73 24          10641 	jp	00103$
   2459 C3 7D 24          10642 	jp	00104$
                          10643 ;	main.c 251
                          10644 ; genLabel
   245C                   10645 00101$:
                          10646 ; genAssign
                          10647 ; AOP_HL for _movementSkip
   245C 21 22 1D          10648 	ld	hl,#_movementSkip + 0
   245F 46                10649 	ld	b,(hl)
                          10650 ; genMinus
                          10651 ; AOP_STK for _isLookingAtCPU_player_y_1_1
   2460 F8 00             10652 	lda	hl,0(sp)
   2462 7E                10653 	ld	a,(hl)
   2463 90                10654 	sub	a,b
   2464 77                10655 	ld	(hl),a
                          10656 ;	main.c 252
                          10657 ; genGoto
   2465 C3 83 24          10658 	jp	00105$
                          10659 ;	main.c 254
                          10660 ; genLabel
   2468                   10661 00102$:
                          10662 ; genAssign
                          10663 ; AOP_HL for _movementSkip
   2468 21 22 1D          10664 	ld	hl,#_movementSkip + 0
   246B 7E                10665 	ld	a,(hl)
                          10666 ; genPlus
                          10667 ; AOP_STK for _isLookingAtCPU_player_y_1_1
                          10668 ;	genPlusIncr failed
   246C F8 00             10669 	lda	hl,0(sp)
   246E 86                10670 	add	a,(hl)
   246F 77                10671 	ld	(hl),a
                          10672 ;	main.c 255
                          10673 ; genGoto
   2470 C3 83 24          10674 	jp	00105$
                          10675 ;	main.c 257
                          10676 ; genLabel
   2473                   10677 00103$:
                          10678 ; genAssign
                          10679 ; AOP_HL for _movementSkip
   2473 21 22 1D          10680 	ld	hl,#_movementSkip + 0
   2476 46                10681 	ld	b,(hl)
                          10682 ; genMinus
   2477 79                10683 	ld	a,c
   2478 90                10684 	sub	a,b
   2479 4F                10685 	ld	c,a
                          10686 ;	main.c 258
                          10687 ; genGoto
   247A C3 83 24          10688 	jp	00105$
                          10689 ;	main.c 260
                          10690 ; genLabel
   247D                   10691 00104$:
                          10692 ; genAssign
                          10693 ; AOP_HL for _movementSkip
   247D 21 22 1D          10694 	ld	hl,#_movementSkip + 0
   2480 7E                10695 	ld	a,(hl)
                          10696 ; genPlus
                          10697 ;	genPlusIncr failed
   2481 81                10698 	add	a,c
   2482 4F                10699 	ld	c,a
                          10700 ;	main.c 262
                          10701 ; genLabel
   2483                   10702 00105$:
                          10703 ;	main.c 263
                          10704 ; genIpush
                          10705 ; AOP_STK for _isLookingAtCPU_player_y_1_1
   2483 F8 00             10706 	lda	hl,0(sp)
   2485 7E                10707 	ld	a,(hl)
   2486 F5                10708 	push	af
   2487 33                10709 	inc	sp
                          10710 ; genIpush
   2488 79                10711 	ld	a,c
   2489 F5                10712 	push	af
   248A 33                10713 	inc	sp
                          10714 ; genCall
   248B CD 7F 23          10715 	call	_isCPUCollisionDetected
   248E 4B                10716 	ld	c,e
   248F E8 02             10717 	lda	sp,2(sp)
                          10718 ; genRet
   2491 59                10719 	ld	e,c
                          10720 ; genLabel
   2492                   10721 00106$:
                          10722 ; genEndFunction
   2492 E8 01             10723 	lda	sp,1(sp)
   2494 C1                10724 	pop	bc
   2495 C9                10725 	ret
   2496                   10726 ___isLookingAtCPU_end:
                          10727 ;	main.c 269
                          10728 ; genLabel
                          10729 ; genFunction
                          10730 ;	---------------------------------
                          10731 ; Function movegamecharacter
                          10732 ; ---------------------------------
   2496                   10733 ___movegamecharacter_start:
   2496                   10734 _movegamecharacter:
   2496 C5                10735 	push	bc
   2497 E8 FC             10736 	lda	sp,-4(sp)
                          10737 ;	main.c 270
                          10738 ; genAssign
                          10739 ; AOP_STK for 
                          10740 ; AOP_STK for _movegamecharacter_sloc0_1_0
   2499 F8 08             10741 	lda	hl,8(sp)
   249B 2A                10742 	ld	a,(hl+)
   249C 5E                10743 	ld	e,(hl)
   249D F8 02             10744 	lda	hl,2(sp)
   249F 22                10745 	ld	(hl+),a
   24A0 73                10746 	ld	(hl),e
                          10747 ; genPlus
                          10748 ; AOP_STK for _movegamecharacter_sloc0_1_0
                          10749 ; genPlusIncr
                          10750 ;	genPlusIncr failed
   24A1 2B                10751 	dec	hl
   24A2 5E                10752 	ld	e,(hl)
   24A3 23                10753 	inc	hl
   24A4 56                10754 	ld	d,(hl)
   24A5 21 04 00          10755 	ld	hl,#0x0004
   24A8 19                10756 	add	hl,de
   24A9 5D                10757 	ld	e,l
   24AA 54                10758 	ld	d,h
                          10759 ; genAssign (pointer)
                          10760 ; AOP_STK for 
   24AB F8 0A             10761 	lda	hl,10(sp)
   24AD 7E                10762 	ld	a,(hl)
   24AE 12                10763 	ld	(de),a
                          10764 ;	main.c 271
                          10765 ; genPlus
                          10766 ; AOP_STK for _movegamecharacter_sloc0_1_0
                          10767 ; genPlusIncr
                          10768 ;	genPlusIncr failed
   24AF F8 02             10769 	lda	hl,2(sp)
   24B1 5E                10770 	ld	e,(hl)
   24B2 23                10771 	inc	hl
   24B3 56                10772 	ld	d,(hl)
   24B4 21 05 00          10773 	ld	hl,#0x0005
   24B7 19                10774 	add	hl,de
   24B8 5D                10775 	ld	e,l
   24B9 54                10776 	ld	d,h
                          10777 ; genAssign (pointer)
                          10778 ; AOP_STK for 
   24BA F8 0B             10779 	lda	hl,11(sp)
   24BC 7E                10780 	ld	a,(hl)
   24BD 12                10781 	ld	(de),a
                          10782 ;	main.c 272
                          10783 ; genPlus
                          10784 ; AOP_STK for _movegamecharacter_sloc1_1_0
                          10785 ; genPlusIncr
                          10786 ;	genPlusIncr failed
   24BE 11 B2 00          10787 	ld	de,#_player + 0
   24C1 21 06 00          10788 	ld	hl,#0x0006
   24C4 19                10789 	add	hl,de
   24C5 7D                10790 	ld	a,l
   24C6 54                10791 	ld	d,h
   24C7 F8 00             10792 	lda	hl,0(sp)
   24C9 22                10793 	ld	(hl+),a
   24CA 72                10794 	ld	(hl),d
                          10795 ; genPlus
                          10796 ; genPlusIncr
   24CB 11 B7 00          10797 	ld	de,#_player + 0 + 5
                          10798 ; genPointerGet
   24CE 1A                10799 	ld	a,(de)
   24CF 4F                10800 	ld	c,a
                          10801 ; genPlus
                          10802 ; genPlusIncr
   24D0 11 B6 00          10803 	ld	de,#_player + 0 + 4
                          10804 ; genPointerGet
   24D3 1A                10805 	ld	a,(de)
   24D4 47                10806 	ld	b,a
                          10807 ; genIpush
   24D5 79                10808 	ld	a,c
   24D6 F5                10809 	push	af
   24D7 33                10810 	inc	sp
                          10811 ; genIpush
   24D8 78                10812 	ld	a,b
   24D9 F5                10813 	push	af
   24DA 33                10814 	inc	sp
                          10815 ; genCall
   24DB CD 5B 26          10816 	call	_convertTileIndex
   24DE 42                10817 	ld	b,d
   24DF 4B                10818 	ld	c,e
   24E0 E8 02             10819 	lda	sp,2(sp)
                          10820 ; genAssign (pointer)
                          10821 ; AOP_STK for _movegamecharacter_sloc1_1_0
   24E2 F8 00             10822 	lda	hl,0(sp)
   24E4 5E                10823 	ld	e,(hl)
   24E5 23                10824 	inc	hl
   24E6 56                10825 	ld	d,(hl)
   24E7 79                10826 	ld	a,c
   24E8 12                10827 	ld	(de),a
   24E9 13                10828 	inc	de
   24EA 78                10829 	ld	a,b
   24EB 12                10830 	ld	(de),a
                          10831 ;	main.c 273
                          10832 ; genIpush
                          10833 ; AOP_STK for _movegamecharacter_sloc0_1_0
   24EC 23                10834 	inc	hl
   24ED 2A                10835 	ld	a,(hl+)
   24EE 66                10836 	ld	h,(hl)
   24EF 6F                10837 	ld	l,a
   24F0 E5                10838 	push	hl
                          10839 ; genCall
   24F1 CD FA 24          10840 	call	_updategamecharacter
   24F4 E8 02             10841 	lda	sp,2(sp)
                          10842 ; genLabel
   24F6                   10843 00101$:
                          10844 ; genEndFunction
   24F6 E8 04             10845 	lda	sp,4(sp)
   24F8 C1                10846 	pop	bc
   24F9 C9                10847 	ret
   24FA                   10848 ___movegamecharacter_end:
                          10849 ;	main.c 276
                          10850 ; genLabel
                          10851 ; genFunction
                          10852 ;	---------------------------------
                          10853 ; Function updategamecharacter
                          10854 ; ---------------------------------
   24FA                   10855 ___updategamecharacter_start:
   24FA                   10856 _updategamecharacter:
   24FA C5                10857 	push	bc
   24FB E8 FC             10858 	lda	sp,-4(sp)
                          10859 ;	main.c 277
                          10860 ; genAssign
                          10861 ; AOP_STK for 
                          10862 ; AOP_STK for _updategamecharacter_sloc0_1_0
   24FD F8 08             10863 	lda	hl,8(sp)
   24FF 2A                10864 	ld	a,(hl+)
   2500 5E                10865 	ld	e,(hl)
   2501 F8 02             10866 	lda	hl,2(sp)
   2503 22                10867 	ld	(hl+),a
   2504 73                10868 	ld	(hl),e
                          10869 ; genPlus
                          10870 ; AOP_STK for _updategamecharacter_sloc0_1_0
                          10871 ; genPlusIncr
                          10872 ;	genPlusIncr failed
   2505 2B                10873 	dec	hl
   2506 5E                10874 	ld	e,(hl)
   2507 23                10875 	inc	hl
   2508 56                10876 	ld	d,(hl)
   2509 21 05 00          10877 	ld	hl,#0x0005
   250C 19                10878 	add	hl,de
   250D 5D                10879 	ld	e,l
   250E 54                10880 	ld	d,h
                          10881 ; genPointerGet
   250F 1A                10882 	ld	a,(de)
   2510 4F                10883 	ld	c,a
                          10884 ; genPlus
                          10885 ; AOP_STK for _updategamecharacter_sloc0_1_0
                          10886 ; genPlusIncr
                          10887 ;	genPlusIncr failed
   2511 F8 02             10888 	lda	hl,2(sp)
   2513 5E                10889 	ld	e,(hl)
   2514 23                10890 	inc	hl
   2515 56                10891 	ld	d,(hl)
   2516 21 04 00          10892 	ld	hl,#0x0004
   2519 19                10893 	add	hl,de
   251A 5D                10894 	ld	e,l
   251B 54                10895 	ld	d,h
                          10896 ; genPointerGet
                          10897 ; AOP_STK for _updategamecharacter_sloc1_1_0
   251C 1A                10898 	ld	a,(de)
   251D F8 01             10899 	lda	hl,1(sp)
                          10900 ; genPointerGet
                          10901 ; AOP_STK for _updategamecharacter_sloc0_1_0
   251F 22                10902 	ld	(hl+),a
   2520 5E                10903 	ld	e,(hl)
   2521 23                10904 	inc	hl
   2522 56                10905 	ld	d,(hl)
   2523 1A                10906 	ld	a,(de)
   2524 47                10907 	ld	b,a
                          10908 ; genIpush
   2525 79                10909 	ld	a,c
   2526 F5                10910 	push	af
   2527 33                10911 	inc	sp
                          10912 ; genIpush
                          10913 ; AOP_STK for _updategamecharacter_sloc1_1_0
   2528 2B                10914 	dec	hl
   2529 2B                10915 	dec	hl
   252A 7E                10916 	ld	a,(hl)
   252B F5                10917 	push	af
   252C 33                10918 	inc	sp
                          10919 ; genIpush
   252D 78                10920 	ld	a,b
   252E F5                10921 	push	af
   252F 33                10922 	inc	sp
                          10923 ; genCall
   2530 CD 00 00          10924 	call	_move_sprite
   2533 E8 03             10925 	lda	sp,3(sp)
                          10926 ;	main.c 278
                          10927 ; genPlus
                          10928 ; AOP_STK for _updategamecharacter_sloc1_1_0
                          10929 ; AOP_HL for _spritesize
                          10930 ; AOP_STK for _updategamecharacter_sloc2_1_0
                          10931 ;	genPlusIncr failed
   2535 F8 01             10932 	lda	hl,1(sp)
   2537 7E                10933 	ld	a,(hl)
   2538 21 A1 00          10934 	ld	hl,#_spritesize + 0
   253B 86                10935 	add	a,(hl)
   253C F8 00             10936 	lda	hl,0(sp)
                          10937 ; genPlus
                          10938 ; AOP_STK for _updategamecharacter_sloc0_1_0
                          10939 ; genPlusIncr
   253E 22                10940 	ld	(hl+),a
   253F 23                10941 	inc	hl
   2540 5E                10942 	ld	e,(hl)
   2541 23                10943 	inc	hl
   2542 56                10944 	ld	d,(hl)
   2543 13                10945 	inc	de
                          10946 ; genPointerGet
   2544 1A                10947 	ld	a,(de)
   2545 47                10948 	ld	b,a
                          10949 ; genIpush
   2546 79                10950 	ld	a,c
   2547 F5                10951 	push	af
   2548 33                10952 	inc	sp
                          10953 ; genIpush
                          10954 ; AOP_STK for _updategamecharacter_sloc2_1_0
   2549 F8 01             10955 	lda	hl,1(sp)
   254B 7E                10956 	ld	a,(hl)
   254C F5                10957 	push	af
   254D 33                10958 	inc	sp
                          10959 ; genIpush
   254E 78                10960 	ld	a,b
   254F F5                10961 	push	af
   2550 33                10962 	inc	sp
                          10963 ; genCall
   2551 CD 00 00          10964 	call	_move_sprite
   2554 E8 03             10965 	lda	sp,3(sp)
                          10966 ;	main.c 279
                          10967 ; genPlus
                          10968 ; AOP_HL for _spritesize
                          10969 ;	genPlusIncr failed
   2556 79                10970 	ld	a,c
   2557 21 A1 00          10971 	ld	hl,#_spritesize + 0
   255A 86                10972 	add	a,(hl)
   255B 4F                10973 	ld	c,a
                          10974 ; genPlus
                          10975 ; AOP_STK for _updategamecharacter_sloc0_1_0
                          10976 ; genPlusIncr
   255C F8 02             10977 	lda	hl,2(sp)
   255E 5E                10978 	ld	e,(hl)
   255F 23                10979 	inc	hl
   2560 56                10980 	ld	d,(hl)
   2561 13                10981 	inc	de
   2562 13                10982 	inc	de
                          10983 ; genPointerGet
   2563 1A                10984 	ld	a,(de)
   2564 47                10985 	ld	b,a
                          10986 ; genIpush
   2565 79                10987 	ld	a,c
   2566 F5                10988 	push	af
   2567 33                10989 	inc	sp
                          10990 ; genIpush
                          10991 ; AOP_STK for _updategamecharacter_sloc1_1_0
   2568 2B                10992 	dec	hl
   2569 2B                10993 	dec	hl
   256A 7E                10994 	ld	a,(hl)
   256B F5                10995 	push	af
   256C 33                10996 	inc	sp
                          10997 ; genIpush
   256D 78                10998 	ld	a,b
   256E F5                10999 	push	af
   256F 33                11000 	inc	sp
                          11001 ; genCall
   2570 CD 00 00          11002 	call	_move_sprite
   2573 E8 03             11003 	lda	sp,3(sp)
                          11004 ;	main.c 280
                          11005 ; genPlus
                          11006 ; AOP_STK for _updategamecharacter_sloc0_1_0
                          11007 ; genPlusIncr
                          11008 ;	genPlusIncr failed
   2575 F8 02             11009 	lda	hl,2(sp)
   2577 5E                11010 	ld	e,(hl)
   2578 23                11011 	inc	hl
   2579 56                11012 	ld	d,(hl)
   257A 21 03 00          11013 	ld	hl,#0x0003
   257D 19                11014 	add	hl,de
   257E 5D                11015 	ld	e,l
   257F 54                11016 	ld	d,h
                          11017 ; genPointerGet
   2580 1A                11018 	ld	a,(de)
   2581 47                11019 	ld	b,a
                          11020 ; genIpush
   2582 79                11021 	ld	a,c
   2583 F5                11022 	push	af
   2584 33                11023 	inc	sp
                          11024 ; genIpush
                          11025 ; AOP_STK for _updategamecharacter_sloc2_1_0
   2585 F8 01             11026 	lda	hl,1(sp)
   2587 7E                11027 	ld	a,(hl)
   2588 F5                11028 	push	af
   2589 33                11029 	inc	sp
                          11030 ; genIpush
   258A 78                11031 	ld	a,b
   258B F5                11032 	push	af
   258C 33                11033 	inc	sp
                          11034 ; genCall
   258D CD 00 00          11035 	call	_move_sprite
   2590 E8 03             11036 	lda	sp,3(sp)
                          11037 ; genLabel
   2592                   11038 00101$:
                          11039 ; genEndFunction
   2592 E8 04             11040 	lda	sp,4(sp)
   2594 C1                11041 	pop	bc
   2595 C9                11042 	ret
   2596                   11043 ___updategamecharacter_end:
                          11044 ;	main.c 283
                          11045 ; genLabel
                          11046 ; genFunction
                          11047 ;	---------------------------------
                          11048 ; Function copyCPU
                          11049 ; ---------------------------------
   2596                   11050 ___copyCPU_start:
   2596                   11051 _copyCPU:
   2596 C5                11052 	push	bc
                          11053 	
                          11054 ;	main.c 285
                          11055 ; genAssign
                          11056 ; (operands are equal 3)
                          11057 ; genAssign
                          11058 ; AOP_STK for 
   2597 F8 04             11059 	lda	hl,4(sp)
   2599 4E                11060 	ld	c,(hl)
   259A 23                11061 	inc	hl
   259B 46                11062 	ld	b,(hl)
                          11063 ; genIpush
   259C 21 0C 00          11064 	ld	hl,#0x000C
   259F E5                11065 	push	hl
                          11066 ; genIpush
                          11067 ; AOP_STK for 
   25A0 F8 08             11068 	lda	hl,8(sp)
   25A2 2A                11069 	ld	a,(hl+)
   25A3 66                11070 	ld	h,(hl)
   25A4 6F                11071 	ld	l,a
   25A5 E5                11072 	push	hl
                          11073 ; genIpush
   25A6 C5                11074 	push	bc
                          11075 ; genCall
   25A7 CD 00 00          11076 	call	_memcpy
   25AA E8 06             11077 	lda	sp,6(sp)
                          11078 ; genLabel
   25AC                   11079 00101$:
                          11080 ; genEndFunction
                          11081 	
   25AC C1                11082 	pop	bc
   25AD C9                11083 	ret
   25AE                   11084 ___copyCPU_end:
                          11085 ;	main.c 289
                          11086 ; genLabel
                          11087 ; genFunction
                          11088 ;	---------------------------------
                          11089 ; Function changeCPU
                          11090 ; ---------------------------------
   25AE                   11091 ___changeCPU_start:
   25AE                   11092 _changeCPU:
   25AE C5                11093 	push	bc
   25AF E8 FE             11094 	lda	sp,-2(sp)
                          11095 ;	main.c 291
                          11096 ; genIpush
   25B1 3E 0C             11097 	ld	a,#0x0C
   25B3 F5                11098 	push	af
   25B4 33                11099 	inc	sp
                          11100 ; genIpush
                          11101 ; AOP_HL for _currentRoom
   25B5 21 C9 00          11102 	ld	hl,#_currentRoom + 0
   25B8 7E                11103 	ld	a,(hl)
   25B9 F5                11104 	push	af
   25BA 33                11105 	inc	sp
                          11106 ; genCall
   25BB CD 00 00          11107 	call	__muluchar
   25BE 4B                11108 	ld	c,e
   25BF E8 02             11109 	lda	sp,2(sp)
                          11110 ; genPlus
                          11111 ;	genPlusIncr failed
   25C1 3E 8E             11112 	ld	a,#<_CPU_info
   25C3 81                11113 	add	a,c
   25C4 4F                11114 	ld	c,a
   25C5 3E 13             11115 	ld	a,#>_CPU_info
   25C7 CE 00             11116 	adc	a,#0x00
   25C9 47                11117 	ld	b,a
                          11118 ; genIpush
   25CA C5                11119 	push	bc
                          11120 ; genIpush
   25CB 21 BC 00          11121 	ld	hl,#_cpu + 0
   25CE E5                11122 	push	hl
                          11123 ; genCall
   25CF CD 96 25          11124 	call	_copyCPU
   25D2 E8 04             11125 	lda	sp,4(sp)
                          11126 ;	main.c 293
                          11127 ; genPlus
                          11128 ; AOP_STK for _changeCPU_sloc0_1_0
                          11129 ; genPlusIncr
                          11130 ;	genPlusIncr failed
   25D4 11 BC 00          11131 	ld	de,#_cpu + 0
   25D7 21 06 00          11132 	ld	hl,#0x0006
   25DA 19                11133 	add	hl,de
   25DB 7D                11134 	ld	a,l
   25DC 54                11135 	ld	d,h
   25DD F8 00             11136 	lda	hl,0(sp)
   25DF 22                11137 	ld	(hl+),a
   25E0 72                11138 	ld	(hl),d
                          11139 ; genPlus
                          11140 ; genPlusIncr
   25E1 11 C1 00          11141 	ld	de,#_cpu + 0 + 5
                          11142 ; genPointerGet
   25E4 1A                11143 	ld	a,(de)
   25E5 4F                11144 	ld	c,a
                          11145 ; genPlus
                          11146 ; genPlusIncr
   25E6 11 C0 00          11147 	ld	de,#_cpu + 0 + 4
                          11148 ; genPointerGet
   25E9 1A                11149 	ld	a,(de)
   25EA 47                11150 	ld	b,a
                          11151 ; genIpush
   25EB 79                11152 	ld	a,c
   25EC F5                11153 	push	af
   25ED 33                11154 	inc	sp
                          11155 ; genIpush
   25EE 78                11156 	ld	a,b
   25EF F5                11157 	push	af
   25F0 33                11158 	inc	sp
                          11159 ; genCall
   25F1 CD 5B 26          11160 	call	_convertTileIndex
   25F4 42                11161 	ld	b,d
   25F5 4B                11162 	ld	c,e
   25F6 E8 02             11163 	lda	sp,2(sp)
                          11164 ; genAssign (pointer)
                          11165 ; AOP_STK for _changeCPU_sloc0_1_0
   25F8 F8 00             11166 	lda	hl,0(sp)
   25FA 5E                11167 	ld	e,(hl)
   25FB 23                11168 	inc	hl
   25FC 56                11169 	ld	d,(hl)
   25FD 79                11170 	ld	a,c
   25FE 12                11171 	ld	(de),a
   25FF 13                11172 	inc	de
   2600 78                11173 	ld	a,b
   2601 12                11174 	ld	(de),a
                          11175 ;	main.c 296
                          11176 ; genIpush
   2602 3E 04             11177 	ld	a,#0x04
   2604 F5                11178 	push	af
   2605 33                11179 	inc	sp
                          11180 ; genIpush
   2606 3E 04             11181 	ld	a,#0x04
   2608 F5                11182 	push	af
   2609 33                11183 	inc	sp
                          11184 ; genCall
   260A CD 00 00          11185 	call	_set_sprite_tile
   260D E8 02             11186 	lda	sp,2(sp)
                          11187 ;	main.c 297
                          11188 ; genAssign (pointer)
   260F 11 BC 00          11189 	ld	de,#_cpu + 0
   2612 3E 04             11190 	ld	a,#0x04
   2614 12                11191 	ld	(de),a
                          11192 ;	main.c 298
                          11193 ; genIpush
   2615 3E 05             11194 	ld	a,#0x05
   2617 F5                11195 	push	af
   2618 33                11196 	inc	sp
                          11197 ; genIpush
   2619 3E 05             11198 	ld	a,#0x05
   261B F5                11199 	push	af
   261C 33                11200 	inc	sp
                          11201 ; genCall
   261D CD 00 00          11202 	call	_set_sprite_tile
   2620 E8 02             11203 	lda	sp,2(sp)
                          11204 ;	main.c 299
                          11205 ; genPlus
                          11206 ; genPlusIncr
   2622 11 BD 00          11207 	ld	de,#_cpu + 0 + 1
                          11208 ; genAssign (pointer)
   2625 3E 05             11209 	ld	a,#0x05
   2627 12                11210 	ld	(de),a
                          11211 ;	main.c 300
                          11212 ; genIpush
   2628 3E 06             11213 	ld	a,#0x06
   262A F5                11214 	push	af
   262B 33                11215 	inc	sp
                          11216 ; genIpush
   262C 3E 06             11217 	ld	a,#0x06
   262E F5                11218 	push	af
   262F 33                11219 	inc	sp
                          11220 ; genCall
   2630 CD 00 00          11221 	call	_set_sprite_tile
   2633 E8 02             11222 	lda	sp,2(sp)
                          11223 ;	main.c 301
                          11224 ; genPlus
                          11225 ; genPlusIncr
   2635 11 BE 00          11226 	ld	de,#_cpu + 0 + 2
                          11227 ; genAssign (pointer)
   2638 3E 06             11228 	ld	a,#0x06
   263A 12                11229 	ld	(de),a
                          11230 ;	main.c 302
                          11231 ; genIpush
   263B 3E 07             11232 	ld	a,#0x07
   263D F5                11233 	push	af
   263E 33                11234 	inc	sp
                          11235 ; genIpush
   263F 3E 07             11236 	ld	a,#0x07
   2641 F5                11237 	push	af
   2642 33                11238 	inc	sp
                          11239 ; genCall
   2643 CD 00 00          11240 	call	_set_sprite_tile
   2646 E8 02             11241 	lda	sp,2(sp)
                          11242 ;	main.c 303
                          11243 ; genPlus
                          11244 ; genPlusIncr
   2648 11 BF 00          11245 	ld	de,#_cpu + 0 + 3
                          11246 ; genAssign (pointer)
   264B 3E 07             11247 	ld	a,#0x07
   264D 12                11248 	ld	(de),a
                          11249 ;	main.c 305
                          11250 ; genIpush
   264E 21 BC 00          11251 	ld	hl,#_cpu + 0
   2651 E5                11252 	push	hl
                          11253 ; genCall
   2652 CD FA 24          11254 	call	_updategamecharacter
   2655 E8 02             11255 	lda	sp,2(sp)
                          11256 ; genLabel
   2657                   11257 00101$:
                          11258 ; genEndFunction
   2657 E8 02             11259 	lda	sp,2(sp)
   2659 C1                11260 	pop	bc
   265A C9                11261 	ret
   265B                   11262 ___changeCPU_end:
                          11263 ;	main.c 309
                          11264 ; genLabel
                          11265 ; genFunction
                          11266 ;	---------------------------------
                          11267 ; Function convertTileIndex
                          11268 ; ---------------------------------
   265B                   11269 ___convertTileIndex_start:
   265B                   11270 _convertTileIndex:
   265B C5                11271 	push	bc
   265C E8 FE             11272 	lda	sp,-2(sp)
                          11273 ;	main.c 310
                          11274 ; genMinus
                          11275 ; AOP_STK for 
   265E F8 06             11276 	lda	hl,6(sp)
   2660 7E                11277 	ld	a,(hl)
   2661 C6 F8             11278 	add	a,#0xF8
   2663 4F                11279 	ld	c,a
                          11280 ; genRightShift
                          11281 ; shift right 	result 1, left 1
                          11282 ; Removed redundent load
   2664 CB 39             11283 	srl	c
   2666 CB 39             11284 	srl	c
   2668 CB 39             11285 	srl	c
                          11286 ; genCast
                          11287 ; AOP_STK for _convertTileIndex_indexTLxl_1_1
   266A F8 00             11288 	lda	hl,0(sp)
   266C 71                11289 	ld	(hl),c
   266D 23                11290 	inc	hl
   266E 36 00             11291 	ld	(hl),#0x00
                          11292 ;	main.c 311
                          11293 ; genMinus
                          11294 ; AOP_STK for 
   2670 F8 07             11295 	lda	hl,7(sp)
   2672 7E                11296 	ld	a,(hl)
   2673 C6 F0             11297 	add	a,#0xF0
   2675 4F                11298 	ld	c,a
                          11299 ; genRightShift
                          11300 ; shift right 	result 1, left 1
                          11301 ; Removed redundent load
   2676 CB 39             11302 	srl	c
   2678 CB 39             11303 	srl	c
   267A CB 39             11304 	srl	c
                          11305 ; genCast
                          11306 ; Removed redundent load
   267C 06 00             11307 	ld	b,#0x00
                          11308 ;	main.c 312
                          11309 ; genIpush
   267E 21 14 00          11310 	ld	hl,#0x0014
   2681 E5                11311 	push	hl
                          11312 ; genIpush
   2682 C5                11313 	push	bc
                          11314 ; genCall
   2683 CD 00 00          11315 	call	__muluint
   2686 42                11316 	ld	b,d
   2687 4B                11317 	ld	c,e
   2688 E8 04             11318 	lda	sp,4(sp)
                          11319 ; genPlus
                          11320 ; AOP_STK for _convertTileIndex_indexTLxl_1_1
                          11321 ;	genPlusIncr failed
   268A F8 00             11322 	lda	hl,0(sp)
   268C 2A                11323 	ld	a,(hl+)
   268D 66                11324 	ld	h,(hl)
   268E 6F                11325 	ld	l,a
   268F 09                11326 	add	hl,bc
   2690 4D                11327 	ld	c,l
   2691 44                11328 	ld	b,h
                          11329 ; genRet
   2692 59                11330 	ld	e,c
   2693 50                11331 	ld	d,b
                          11332 ; genLabel
   2694                   11333 00101$:
                          11334 ; genEndFunction
   2694 E8 02             11335 	lda	sp,2(sp)
   2696 C1                11336 	pop	bc
   2697 C9                11337 	ret
   2698                   11338 ___convertTileIndex_end:
                          11339 	.area _CODE
ASxxxx Assembler V01.75  (GameBoy Z80-like CPU), page 1.

Symbol Table

    _BCPD_REG                          **** GX
    _BCPS_REG                          **** GX
    _BGP_REG                           **** GX
  0 _CPU_info                          138E GR
  1 _Cursors                           00A2 GR
    _DIV_REG                           **** GX
    _DMA_REG                           **** GX
  0 _ElementalTypes                    13BF GR
  1 _Female_Player                     0021 GR
    _HDMA1_REG                         **** GX
    _HDMA2_REG                         **** GX
    _HDMA3_REG                         **** GX
    _HDMA4_REG                         **** GX
    _HDMA5_REG                         **** GX
    _IE_REG                            **** GX
    _IF_REG                            **** GX
    _KEY1_REG                          **** GX
    _LCDC_REG                          **** GX
    _LYC_REG                           **** GX
    _LY_REG                            **** GX
    _NR10_REG                          **** GX
    _NR11_REG                          **** GX
    _NR12_REG                          **** GX
    _NR13_REG                          **** GX
    _NR14_REG                          **** GX
    _NR21_REG                          **** GX
    _NR22_REG                          **** GX
    _NR23_REG                          **** GX
    _NR24_REG                          **** GX
    _NR30_REG                          **** GX
    _NR31_REG                          **** GX
    _NR32_REG                          **** GX
    _NR33_REG                          **** GX
    _NR34_REG                          **** GX
    _NR41_REG                          **** GX
    _NR42_REG                          **** GX
    _NR43_REG                          **** GX
    _NR44_REG                          **** GX
    _NR50_REG                          **** GX
    _NR51_REG                          **** GX
    _NR52_REG                          **** GX
  0 _NavgateCurrentRoom                1E10 GR
  0 _Navigation                        2214 GR
    _OBP0_REG                          **** GX
    _OBP1_REG                          **** GX
    _OCPD_REG                          **** GX
    _OCPS_REG                          **** GX
    _P1_REG                            **** GX
    _RP_REG                            **** GX
    _SB_REG                            **** GX
    _SCX_REG                           **** GX
    _SCY_REG                           **** GX
    _SC_REG                            **** GX
    _STAT_REG                          **** GX
    _SVBK_REG                          **** GX
  0 _Select_Screen_data                175C GR
  0 _Select_Screen_map                 1B5C GR
  1 _Smiler                            0001 GR
    _TAC_REG                           **** GX
    _TIMA_REG                          **** GX
    _TMA_REG                           **** GX
    _VBK_REG                           **** GX
    _WX_REG                            **** GX
    _WY_REG                            **** GX
  0 ___NavgateCurrentRoom_end          1E3E R
  0 ___NavgateCurrentRoom_start        1E10 R
  0 ___Navigation_end                  22E9 R
  0 ___Navigation_start                2214 R
  0 ___canplayermove_end               237F R
  0 ___canplayermove_start             2342 R
  0 ___changeCPU_end                   265B R
  0 ___changeCPU_start                 25AE R
  0 ___convertTileIndex_end            2698 R
  0 ___convertTileIndex_start          265B R
  0 ___copyCPU_end                     25AE R
  0 ___copyCPU_start                   2596 R
  0 ___displayRoom_end                 1E10 R
  0 ___displayRoom_start               1DA0 R
  0 ___fadein_end                      0A9E R
  0 ___fadein_start                    0A52 R
  0 ___fadeout_end                     0A52 R
  0 ___fadeout_start                   09FC R
  0 ___isCPUCollisionDetected_end      241F R
  0 ___isCPUCollisionDetected_start    237F R
  0 ___isLookingAtCPU_end              2496 R
  0 ___isLookingAtCPU_start            241F R
  0 ___isWallCollisionDetected_end     2342 R
  0 ___isWallCollisionDetected_start   22E9 R
  0 ___main_end                        1D22 R
  0 ___main_start                      1D06 R
  0 ___moveInput_end                   20FC R
  0 ___moveInput_start                 1E3E R
  0 ___movegamecharacter_end           24FA R
  0 ___movegamecharacter_start         2496 R
  0 ___onDoor_end                      2214 R
  0 ___onDoor_start                    2110 R
  0 ___performantdelay_end             0014 R
  0 ___performantdelay_start           0000 R
  0 ___playCollisionSound_end          0B0D R
  0 ___playCollisionSound_start        0AF8 R
  0 ___playDoorSound_end               0AF8 R
  0 ___playDoorSound_start             0AE7 R
  0 ___selectMonsters_end              0C30 R
  0 ___selectMonsters_start            0B0D R
  0 ___setUpEniroment_end              1D30 R
  0 ___setUpEniroment_start            1D23 R
  0 ___setUpPlayer_end                 1DA0 R
  0 ___setUpPlayer_start               1D30 R
  0 ___splashPage_end                  0AE7 R
  0 ___splashPage_start                0A9E R
  0 ___updategamecharacter_end         2596 R
  0 ___updategamecharacter_start       24FA R
    __cpu                              **** GX
    __io_in                            **** GX
    __io_out                           **** GX
    __io_status                        **** GX
    __mulsint                          **** GX
    __muluchar                         **** GX
    __muluint                          **** GX
  0 __str_0                            1CC4 R
  0 __str_32                           20FC R
  0 _canplayermove                     2342 GR
  0 _changeCPU                         25AE GR
  0 _convertTileIndex                  265B GR
  0 _copyCPU                           2596 GR
  1 _cpu                               00BC GR
  1 _currentRoom                       00C9 GR
    _delay                             **** GX
  0 _displayRoom                       1DA0 GR
  0 _fadein                            0A52 GR
  0 _fadeout                           09FC GR
    _gotoxy                            **** GX
  1 _i                                 0000 GR
  0 _isCPUCollisionDetected            237F GR
  0 _isLookingAtCPU                    241F GR
  0 _isWallCollisionDetected           22E9 GR
    _joypad                            **** GX
  0 _main                              1D06 GR
    _memcpy                            **** GX
  0 _monsters                          14B4 GR
  0 _moveInput                         1E3E GR
    _move_sprite                       **** GX
  0 _movegamecharacter                 2496 GR
  0 _movementSkip                      1D22 GR
  0 _onDoor                            2110 GR
  0 _performantdelay                   0000 GR
  0 _playCollisionSound                0AF8 GR
  0 _playDoorSound                     0AE7 GR
  1 _player                            00B2 GR
    _printf                            **** GX
  1 _roomType                          00C8 GR
  0 _room_bottom_data                  0D60 GR
  0 _room_bottom_map                   10A8 GR
  0 _room_middle_data                  0C30 GR
  0 _room_middle_map                   0F40 GR
  0 _room_top_data                     0E50 GR
  0 _room_top_map                      1210 GR
  0 _rooms                             1379 GR
  0 _selectMonsters                    0B0D GR
  0 _setUpEniroment                    1D23 GR
  0 _setUpPlayer                       1D30 GR
    _set_bkg_data                      **** GX
    _set_bkg_tiles                     **** GX
    _set_sprite_data                   **** GX
    _set_sprite_tile                   **** GX
  0 _splashPage                        0A9E GR
  0 _splashscreen_data                 0014 GR
  0 _splashscreen_map                  0894 GR
  1 _spritesize                        00A1 GR
  0 _str_1                             1CC8 R
  0 _str_2                             1CDA R
  0 _str_3                             1CE8 R
  0 _str_4                             1CFB R
    _sys_time                          **** GX
  0 _updategamecharacter               24FA GR
    _wait_vbl_done                     **** GX
    _waitpad                           **** GX
  0 _wall                              1378 GR

ASxxxx Assembler V01.75  (GameBoy Z80-like CPU), page 2.

Area Table

   0 _CODE                              size 2698   flags 0
   1 _DATA                              size   CA   flags 0
   2 _OVERLAY                           size    0   flags 0
   3 _ISEG                              size    0   flags 0
   4 _BSEG                              size    0   flags 0
   5 _XSEG                              size    0   flags 0
   6 _GSINIT                            size  42F   flags 0
   7 _GSFINAL                           size    0   flags 0
   8 _HOME                              size    0   flags 0
